
test1:     file format elf64-x86-64


Disassembly of section .init:

0000000000401490 <_init>:
  401490:	48 83 ec 08          	sub    $0x8,%rsp
  401494:	e8 d3 03 00 00       	callq  40186c <call_gmon_start>
  401499:	e8 62 04 00 00       	callq  401900 <frame_dummy>
  40149e:	e8 dd 43 00 00       	callq  405880 <__do_global_ctors_aux>
  4014a3:	48 83 c4 08          	add    $0x8,%rsp
  4014a7:	c3                   	retq   

Disassembly of section .plt:

00000000004014a8 <_ZNSsC1Ev@plt-0x10>:
  4014a8:	ff 35 42 6b 20 00    	pushq  0x206b42(%rip)        # 607ff0 <_GLOBAL_OFFSET_TABLE_+0x8>
  4014ae:	ff 25 44 6b 20 00    	jmpq   *0x206b44(%rip)        # 607ff8 <_GLOBAL_OFFSET_TABLE_+0x10>
  4014b4:	0f 1f 40 00          	nopl   0x0(%rax)

00000000004014b8 <_ZNSsC1Ev@plt>:
  4014b8:	ff 25 42 6b 20 00    	jmpq   *0x206b42(%rip)        # 608000 <_GLOBAL_OFFSET_TABLE_+0x18>
  4014be:	68 00 00 00 00       	pushq  $0x0
  4014c3:	e9 e0 ff ff ff       	jmpq   4014a8 <_init+0x18>

00000000004014c8 <_ZNSolsEi@plt>:
  4014c8:	ff 25 3a 6b 20 00    	jmpq   *0x206b3a(%rip)        # 608008 <_GLOBAL_OFFSET_TABLE_+0x20>
  4014ce:	68 01 00 00 00       	pushq  $0x1
  4014d3:	e9 d0 ff ff ff       	jmpq   4014a8 <_init+0x18>

00000000004014d8 <_ZSt18_Rb_tree_decrementPKSt18_Rb_tree_node_base@plt>:
  4014d8:	ff 25 32 6b 20 00    	jmpq   *0x206b32(%rip)        # 608010 <_GLOBAL_OFFSET_TABLE_+0x28>
  4014de:	68 02 00 00 00       	pushq  $0x2
  4014e3:	e9 c0 ff ff ff       	jmpq   4014a8 <_init+0x18>

00000000004014e8 <inet_pton@plt>:
  4014e8:	ff 25 2a 6b 20 00    	jmpq   *0x206b2a(%rip)        # 608018 <_GLOBAL_OFFSET_TABLE_+0x30>
  4014ee:	68 03 00 00 00       	pushq  $0x3
  4014f3:	e9 b0 ff ff ff       	jmpq   4014a8 <_init+0x18>

00000000004014f8 <close@plt>:
  4014f8:	ff 25 22 6b 20 00    	jmpq   *0x206b22(%rip)        # 608020 <_GLOBAL_OFFSET_TABLE_+0x38>
  4014fe:	68 04 00 00 00       	pushq  $0x4
  401503:	e9 a0 ff ff ff       	jmpq   4014a8 <_init+0x18>

0000000000401508 <epoll_create@plt>:
  401508:	ff 25 1a 6b 20 00    	jmpq   *0x206b1a(%rip)        # 608028 <_GLOBAL_OFFSET_TABLE_+0x40>
  40150e:	68 05 00 00 00       	pushq  $0x5
  401513:	e9 90 ff ff ff       	jmpq   4014a8 <_init+0x18>

0000000000401518 <_Znam@plt>:
  401518:	ff 25 12 6b 20 00    	jmpq   *0x206b12(%rip)        # 608030 <_GLOBAL_OFFSET_TABLE_+0x48>
  40151e:	68 06 00 00 00       	pushq  $0x6
  401523:	e9 80 ff ff ff       	jmpq   4014a8 <_init+0x18>

0000000000401528 <_ZdlPv@plt>:
  401528:	ff 25 0a 6b 20 00    	jmpq   *0x206b0a(%rip)        # 608038 <_GLOBAL_OFFSET_TABLE_+0x50>
  40152e:	68 07 00 00 00       	pushq  $0x7
  401533:	e9 70 ff ff ff       	jmpq   4014a8 <_init+0x18>

0000000000401538 <htons@plt>:
  401538:	ff 25 02 6b 20 00    	jmpq   *0x206b02(%rip)        # 608040 <_GLOBAL_OFFSET_TABLE_+0x58>
  40153e:	68 08 00 00 00       	pushq  $0x8
  401543:	e9 60 ff ff ff       	jmpq   4014a8 <_init+0x18>

0000000000401548 <_ZNSt8ios_base4InitC1Ev@plt>:
  401548:	ff 25 fa 6a 20 00    	jmpq   *0x206afa(%rip)        # 608048 <_GLOBAL_OFFSET_TABLE_+0x60>
  40154e:	68 09 00 00 00       	pushq  $0x9
  401553:	e9 50 ff ff ff       	jmpq   4014a8 <_init+0x18>

0000000000401558 <malloc@plt>:
  401558:	ff 25 f2 6a 20 00    	jmpq   *0x206af2(%rip)        # 608050 <_GLOBAL_OFFSET_TABLE_+0x68>
  40155e:	68 0a 00 00 00       	pushq  $0xa
  401563:	e9 40 ff ff ff       	jmpq   4014a8 <_init+0x18>

0000000000401568 <__libc_start_main@plt>:
  401568:	ff 25 ea 6a 20 00    	jmpq   *0x206aea(%rip)        # 608058 <_GLOBAL_OFFSET_TABLE_+0x70>
  40156e:	68 0b 00 00 00       	pushq  $0xb
  401573:	e9 30 ff ff ff       	jmpq   4014a8 <_init+0x18>

0000000000401578 <recv@plt>:
  401578:	ff 25 e2 6a 20 00    	jmpq   *0x206ae2(%rip)        # 608060 <_GLOBAL_OFFSET_TABLE_+0x78>
  40157e:	68 0c 00 00 00       	pushq  $0xc
  401583:	e9 20 ff ff ff       	jmpq   4014a8 <_init+0x18>

0000000000401588 <_ZSt18_Rb_tree_decrementPSt18_Rb_tree_node_base@plt>:
  401588:	ff 25 da 6a 20 00    	jmpq   *0x206ada(%rip)        # 608068 <_GLOBAL_OFFSET_TABLE_+0x80>
  40158e:	68 0d 00 00 00       	pushq  $0xd
  401593:	e9 10 ff ff ff       	jmpq   4014a8 <_init+0x18>

0000000000401598 <_ZNSsC1ERKSs@plt>:
  401598:	ff 25 d2 6a 20 00    	jmpq   *0x206ad2(%rip)        # 608070 <_GLOBAL_OFFSET_TABLE_+0x88>
  40159e:	68 0e 00 00 00       	pushq  $0xe
  4015a3:	e9 00 ff ff ff       	jmpq   4014a8 <_init+0x18>

00000000004015a8 <__cxa_atexit@plt>:
  4015a8:	ff 25 ca 6a 20 00    	jmpq   *0x206aca(%rip)        # 608078 <_GLOBAL_OFFSET_TABLE_+0x90>
  4015ae:	68 0f 00 00 00       	pushq  $0xf
  4015b3:	e9 f0 fe ff ff       	jmpq   4014a8 <_init+0x18>

00000000004015b8 <_ZNSt8ios_base4InitD1Ev@plt>:
  4015b8:	ff 25 c2 6a 20 00    	jmpq   *0x206ac2(%rip)        # 608080 <_GLOBAL_OFFSET_TABLE_+0x98>
  4015be:	68 10 00 00 00       	pushq  $0x10
  4015c3:	e9 e0 fe ff ff       	jmpq   4014a8 <_init+0x18>

00000000004015c8 <_ZStlsISt11char_traitsIcEERSt13basic_ostreamIcT_ES5_PKc@plt>:
  4015c8:	ff 25 ba 6a 20 00    	jmpq   *0x206aba(%rip)        # 608088 <_GLOBAL_OFFSET_TABLE_+0xa0>
  4015ce:	68 11 00 00 00       	pushq  $0x11
  4015d3:	e9 d0 fe ff ff       	jmpq   4014a8 <_init+0x18>

00000000004015d8 <_ZNSsD1Ev@plt>:
  4015d8:	ff 25 b2 6a 20 00    	jmpq   *0x206ab2(%rip)        # 608090 <_GLOBAL_OFFSET_TABLE_+0xa8>
  4015de:	68 12 00 00 00       	pushq  $0x12
  4015e3:	e9 c0 fe ff ff       	jmpq   4014a8 <_init+0x18>

00000000004015e8 <free@plt>:
  4015e8:	ff 25 aa 6a 20 00    	jmpq   *0x206aaa(%rip)        # 608098 <_GLOBAL_OFFSET_TABLE_+0xb0>
  4015ee:	68 13 00 00 00       	pushq  $0x13
  4015f3:	e9 b0 fe ff ff       	jmpq   4014a8 <_init+0x18>

00000000004015f8 <_ZNSolsEb@plt>:
  4015f8:	ff 25 a2 6a 20 00    	jmpq   *0x206aa2(%rip)        # 6080a0 <_GLOBAL_OFFSET_TABLE_+0xb8>
  4015fe:	68 14 00 00 00       	pushq  $0x14
  401603:	e9 a0 fe ff ff       	jmpq   4014a8 <_init+0x18>

0000000000401608 <_ZSt18_Rb_tree_incrementPKSt18_Rb_tree_node_base@plt>:
  401608:	ff 25 9a 6a 20 00    	jmpq   *0x206a9a(%rip)        # 6080a8 <_GLOBAL_OFFSET_TABLE_+0xc0>
  40160e:	68 15 00 00 00       	pushq  $0x15
  401613:	e9 90 fe ff ff       	jmpq   4014a8 <_init+0x18>

0000000000401618 <_ZNSsC1EPKcRKSaIcE@plt>:
  401618:	ff 25 92 6a 20 00    	jmpq   *0x206a92(%rip)        # 6080b0 <_GLOBAL_OFFSET_TABLE_+0xc8>
  40161e:	68 16 00 00 00       	pushq  $0x16
  401623:	e9 80 fe ff ff       	jmpq   4014a8 <_init+0x18>

0000000000401628 <epoll_ctl@plt>:
  401628:	ff 25 8a 6a 20 00    	jmpq   *0x206a8a(%rip)        # 6080b8 <_GLOBAL_OFFSET_TABLE_+0xd0>
  40162e:	68 17 00 00 00       	pushq  $0x17
  401633:	e9 70 fe ff ff       	jmpq   4014a8 <_init+0x18>

0000000000401638 <_ZSt9terminatev@plt>:
  401638:	ff 25 82 6a 20 00    	jmpq   *0x206a82(%rip)        # 6080c0 <_GLOBAL_OFFSET_TABLE_+0xd8>
  40163e:	68 18 00 00 00       	pushq  $0x18
  401643:	e9 60 fe ff ff       	jmpq   4014a8 <_init+0x18>

0000000000401648 <_ZNSolsEj@plt>:
  401648:	ff 25 7a 6a 20 00    	jmpq   *0x206a7a(%rip)        # 6080c8 <_GLOBAL_OFFSET_TABLE_+0xe0>
  40164e:	68 19 00 00 00       	pushq  $0x19
  401653:	e9 50 fe ff ff       	jmpq   4014a8 <_init+0x18>

0000000000401658 <__cxa_pure_virtual@plt>:
  401658:	ff 25 72 6a 20 00    	jmpq   *0x206a72(%rip)        # 6080d0 <_GLOBAL_OFFSET_TABLE_+0xe8>
  40165e:	68 1a 00 00 00       	pushq  $0x1a
  401663:	e9 40 fe ff ff       	jmpq   4014a8 <_init+0x18>

0000000000401668 <memcpy@plt>:
  401668:	ff 25 6a 6a 20 00    	jmpq   *0x206a6a(%rip)        # 6080d8 <_GLOBAL_OFFSET_TABLE_+0xf0>
  40166e:	68 1b 00 00 00       	pushq  $0x1b
  401673:	e9 30 fe ff ff       	jmpq   4014a8 <_init+0x18>

0000000000401678 <signal@plt>:
  401678:	ff 25 62 6a 20 00    	jmpq   *0x206a62(%rip)        # 6080e0 <_GLOBAL_OFFSET_TABLE_+0xf8>
  40167e:	68 1c 00 00 00       	pushq  $0x1c
  401683:	e9 20 fe ff ff       	jmpq   4014a8 <_init+0x18>

0000000000401688 <socket@plt>:
  401688:	ff 25 5a 6a 20 00    	jmpq   *0x206a5a(%rip)        # 6080e8 <_GLOBAL_OFFSET_TABLE_+0x100>
  40168e:	68 1d 00 00 00       	pushq  $0x1d
  401693:	e9 10 fe ff ff       	jmpq   4014a8 <_init+0x18>

0000000000401698 <fread@plt>:
  401698:	ff 25 52 6a 20 00    	jmpq   *0x206a52(%rip)        # 6080f0 <_GLOBAL_OFFSET_TABLE_+0x108>
  40169e:	68 1e 00 00 00       	pushq  $0x1e
  4016a3:	e9 00 fe ff ff       	jmpq   4014a8 <_init+0x18>

00000000004016a8 <__errno_location@plt>:
  4016a8:	ff 25 4a 6a 20 00    	jmpq   *0x206a4a(%rip)        # 6080f8 <_GLOBAL_OFFSET_TABLE_+0x110>
  4016ae:	68 1f 00 00 00       	pushq  $0x1f
  4016b3:	e9 f0 fd ff ff       	jmpq   4014a8 <_init+0x18>

00000000004016b8 <_ZSt29_Rb_tree_insert_and_rebalancebPSt18_Rb_tree_node_baseS0_RS_@plt>:
  4016b8:	ff 25 42 6a 20 00    	jmpq   *0x206a42(%rip)        # 608100 <_GLOBAL_OFFSET_TABLE_+0x118>
  4016be:	68 20 00 00 00       	pushq  $0x20
  4016c3:	e9 e0 fd ff ff       	jmpq   4014a8 <_init+0x18>

00000000004016c8 <_ZStlsIcSt11char_traitsIcESaIcEERSt13basic_ostreamIT_T0_ES7_RKSbIS4_S5_T1_E@plt>:
  4016c8:	ff 25 3a 6a 20 00    	jmpq   *0x206a3a(%rip)        # 608108 <_GLOBAL_OFFSET_TABLE_+0x120>
  4016ce:	68 21 00 00 00       	pushq  $0x21
  4016d3:	e9 d0 fd ff ff       	jmpq   4014a8 <_init+0x18>

00000000004016d8 <__stack_chk_fail@plt>:
  4016d8:	ff 25 32 6a 20 00    	jmpq   *0x206a32(%rip)        # 608110 <_GLOBAL_OFFSET_TABLE_+0x128>
  4016de:	68 22 00 00 00       	pushq  $0x22
  4016e3:	e9 c0 fd ff ff       	jmpq   4014a8 <_init+0x18>

00000000004016e8 <__cxa_allocate_exception@plt>:
  4016e8:	ff 25 2a 6a 20 00    	jmpq   *0x206a2a(%rip)        # 608118 <_GLOBAL_OFFSET_TABLE_+0x130>
  4016ee:	68 23 00 00 00       	pushq  $0x23
  4016f3:	e9 b0 fd ff ff       	jmpq   4014a8 <_init+0x18>

00000000004016f8 <_ZNSaIcED1Ev@plt>:
  4016f8:	ff 25 22 6a 20 00    	jmpq   *0x206a22(%rip)        # 608120 <_GLOBAL_OFFSET_TABLE_+0x138>
  4016fe:	68 24 00 00 00       	pushq  $0x24
  401703:	e9 a0 fd ff ff       	jmpq   4014a8 <_init+0x18>

0000000000401708 <send@plt>:
  401708:	ff 25 1a 6a 20 00    	jmpq   *0x206a1a(%rip)        # 608128 <_GLOBAL_OFFSET_TABLE_+0x140>
  40170e:	68 25 00 00 00       	pushq  $0x25
  401713:	e9 90 fd ff ff       	jmpq   4014a8 <_init+0x18>

0000000000401718 <epoll_wait@plt>:
  401718:	ff 25 12 6a 20 00    	jmpq   *0x206a12(%rip)        # 608130 <_GLOBAL_OFFSET_TABLE_+0x148>
  40171e:	68 26 00 00 00       	pushq  $0x26
  401723:	e9 80 fd ff ff       	jmpq   4014a8 <_init+0x18>

0000000000401728 <memcmp@plt>:
  401728:	ff 25 0a 6a 20 00    	jmpq   *0x206a0a(%rip)        # 608138 <_GLOBAL_OFFSET_TABLE_+0x150>
  40172e:	68 27 00 00 00       	pushq  $0x27
  401733:	e9 70 fd ff ff       	jmpq   4014a8 <_init+0x18>

0000000000401738 <__cxa_throw@plt>:
  401738:	ff 25 02 6a 20 00    	jmpq   *0x206a02(%rip)        # 608140 <_GLOBAL_OFFSET_TABLE_+0x158>
  40173e:	68 28 00 00 00       	pushq  $0x28
  401743:	e9 60 fd ff ff       	jmpq   4014a8 <_init+0x18>

0000000000401748 <_ZNSolsEPFRSoS_E@plt>:
  401748:	ff 25 fa 69 20 00    	jmpq   *0x2069fa(%rip)        # 608148 <_GLOBAL_OFFSET_TABLE_+0x160>
  40174e:	68 29 00 00 00       	pushq  $0x29
  401753:	e9 50 fd ff ff       	jmpq   4014a8 <_init+0x18>

0000000000401758 <fclose@plt>:
  401758:	ff 25 f2 69 20 00    	jmpq   *0x2069f2(%rip)        # 608150 <_GLOBAL_OFFSET_TABLE_+0x168>
  40175e:	68 2a 00 00 00       	pushq  $0x2a
  401763:	e9 40 fd ff ff       	jmpq   4014a8 <_init+0x18>

0000000000401768 <_ZSt17__throw_bad_allocv@plt>:
  401768:	ff 25 ea 69 20 00    	jmpq   *0x2069ea(%rip)        # 608158 <_GLOBAL_OFFSET_TABLE_+0x170>
  40176e:	68 2b 00 00 00       	pushq  $0x2b
  401773:	e9 30 fd ff ff       	jmpq   4014a8 <_init+0x18>

0000000000401778 <_ZSt4endlIcSt11char_traitsIcEERSt13basic_ostreamIT_T0_ES6_@plt>:
  401778:	ff 25 e2 69 20 00    	jmpq   *0x2069e2(%rip)        # 608160 <_GLOBAL_OFFSET_TABLE_+0x178>
  40177e:	68 2c 00 00 00       	pushq  $0x2c
  401783:	e9 20 fd ff ff       	jmpq   4014a8 <_init+0x18>

0000000000401788 <bind@plt>:
  401788:	ff 25 da 69 20 00    	jmpq   *0x2069da(%rip)        # 608168 <_GLOBAL_OFFSET_TABLE_+0x180>
  40178e:	68 2d 00 00 00       	pushq  $0x2d
  401793:	e9 10 fd ff ff       	jmpq   4014a8 <_init+0x18>

0000000000401798 <fwrite@plt>:
  401798:	ff 25 d2 69 20 00    	jmpq   *0x2069d2(%rip)        # 608170 <_GLOBAL_OFFSET_TABLE_+0x188>
  40179e:	68 2e 00 00 00       	pushq  $0x2e
  4017a3:	e9 00 fd ff ff       	jmpq   4014a8 <_init+0x18>

00000000004017a8 <realloc@plt>:
  4017a8:	ff 25 ca 69 20 00    	jmpq   *0x2069ca(%rip)        # 608178 <_GLOBAL_OFFSET_TABLE_+0x190>
  4017ae:	68 2f 00 00 00       	pushq  $0x2f
  4017b3:	e9 f0 fc ff ff       	jmpq   4014a8 <_init+0x18>

00000000004017b8 <perror@plt>:
  4017b8:	ff 25 c2 69 20 00    	jmpq   *0x2069c2(%rip)        # 608180 <_GLOBAL_OFFSET_TABLE_+0x198>
  4017be:	68 30 00 00 00       	pushq  $0x30
  4017c3:	e9 e0 fc ff ff       	jmpq   4014a8 <_init+0x18>

00000000004017c8 <_ZNSaIcEC1Ev@plt>:
  4017c8:	ff 25 ba 69 20 00    	jmpq   *0x2069ba(%rip)        # 608188 <_GLOBAL_OFFSET_TABLE_+0x1a0>
  4017ce:	68 31 00 00 00       	pushq  $0x31
  4017d3:	e9 d0 fc ff ff       	jmpq   4014a8 <_init+0x18>

00000000004017d8 <__gxx_personality_v0@plt>:
  4017d8:	ff 25 b2 69 20 00    	jmpq   *0x2069b2(%rip)        # 608190 <_GLOBAL_OFFSET_TABLE_+0x1a8>
  4017de:	68 32 00 00 00       	pushq  $0x32
  4017e3:	e9 c0 fc ff ff       	jmpq   4014a8 <_init+0x18>

00000000004017e8 <_Znwm@plt>:
  4017e8:	ff 25 aa 69 20 00    	jmpq   *0x2069aa(%rip)        # 608198 <_GLOBAL_OFFSET_TABLE_+0x1b0>
  4017ee:	68 33 00 00 00       	pushq  $0x33
  4017f3:	e9 b0 fc ff ff       	jmpq   4014a8 <_init+0x18>

00000000004017f8 <_Unwind_Resume@plt>:
  4017f8:	ff 25 a2 69 20 00    	jmpq   *0x2069a2(%rip)        # 6081a0 <_GLOBAL_OFFSET_TABLE_+0x1b8>
  4017fe:	68 34 00 00 00       	pushq  $0x34
  401803:	e9 a0 fc ff ff       	jmpq   4014a8 <_init+0x18>

0000000000401808 <accept@plt>:
  401808:	ff 25 9a 69 20 00    	jmpq   *0x20699a(%rip)        # 6081a8 <_GLOBAL_OFFSET_TABLE_+0x1c0>
  40180e:	68 35 00 00 00       	pushq  $0x35
  401813:	e9 90 fc ff ff       	jmpq   4014a8 <_init+0x18>

0000000000401818 <_ZNSsaSERKSs@plt>:
  401818:	ff 25 92 69 20 00    	jmpq   *0x206992(%rip)        # 6081b0 <_GLOBAL_OFFSET_TABLE_+0x1c8>
  40181e:	68 36 00 00 00       	pushq  $0x36
  401823:	e9 80 fc ff ff       	jmpq   4014a8 <_init+0x18>

0000000000401828 <fflush@plt>:
  401828:	ff 25 8a 69 20 00    	jmpq   *0x20698a(%rip)        # 6081b8 <_GLOBAL_OFFSET_TABLE_+0x1d0>
  40182e:	68 37 00 00 00       	pushq  $0x37
  401833:	e9 70 fc ff ff       	jmpq   4014a8 <_init+0x18>

Disassembly of section .text:

0000000000401840 <_start>:
  401840:	31 ed                	xor    %ebp,%ebp
  401842:	49 89 d1             	mov    %rdx,%r9
  401845:	5e                   	pop    %rsi
  401846:	48 89 e2             	mov    %rsp,%rdx
  401849:	48 83 e4 f0          	and    $0xfffffffffffffff0,%rsp
  40184d:	50                   	push   %rax
  40184e:	54                   	push   %rsp
  40184f:	49 c7 c0 e0 57 40 00 	mov    $0x4057e0,%r8
  401856:	48 c7 c1 f0 57 40 00 	mov    $0x4057f0,%rcx
  40185d:	48 c7 c7 aa 54 40 00 	mov    $0x4054aa,%rdi
  401864:	e8 ff fc ff ff       	callq  401568 <__libc_start_main@plt>
  401869:	f4                   	hlt    
  40186a:	90                   	nop
  40186b:	90                   	nop

000000000040186c <call_gmon_start>:
  40186c:	48 83 ec 08          	sub    $0x8,%rsp
  401870:	48 8b 05 69 67 20 00 	mov    0x206769(%rip),%rax        # 607fe0 <_DYNAMIC+0x1c0>
  401877:	48 85 c0             	test   %rax,%rax
  40187a:	74 02                	je     40187e <call_gmon_start+0x12>
  40187c:	ff d0                	callq  *%rax
  40187e:	48 83 c4 08          	add    $0x8,%rsp
  401882:	c3                   	retq   
  401883:	90                   	nop
  401884:	90                   	nop
  401885:	90                   	nop
  401886:	90                   	nop
  401887:	90                   	nop
  401888:	90                   	nop
  401889:	90                   	nop
  40188a:	90                   	nop
  40188b:	90                   	nop
  40188c:	90                   	nop
  40188d:	90                   	nop
  40188e:	90                   	nop
  40188f:	90                   	nop

0000000000401890 <__do_global_dtors_aux>:
  401890:	55                   	push   %rbp
  401891:	48 89 e5             	mov    %rsp,%rbp
  401894:	53                   	push   %rbx
  401895:	48 83 ec 08          	sub    $0x8,%rsp
  401899:	80 3d 68 6b 20 00 00 	cmpb   $0x0,0x206b68(%rip)        # 608408 <completed.7424>
  4018a0:	75 4b                	jne    4018ed <__do_global_dtors_aux+0x5d>
  4018a2:	bb 10 7e 60 00       	mov    $0x607e10,%ebx
  4018a7:	48 8b 05 62 6b 20 00 	mov    0x206b62(%rip),%rax        # 608410 <dtor_idx.7426>
  4018ae:	48 81 eb 08 7e 60 00 	sub    $0x607e08,%rbx
  4018b5:	48 c1 fb 03          	sar    $0x3,%rbx
  4018b9:	48 83 eb 01          	sub    $0x1,%rbx
  4018bd:	48 39 d8             	cmp    %rbx,%rax
  4018c0:	73 24                	jae    4018e6 <__do_global_dtors_aux+0x56>
  4018c2:	eb 04                	jmp    4018c8 <__do_global_dtors_aux+0x38>
  4018c4:	90                   	nop
  4018c5:	90                   	nop
  4018c6:	90                   	nop
  4018c7:	90                   	nop
  4018c8:	48 83 c0 01          	add    $0x1,%rax
  4018cc:	48 89 05 3d 6b 20 00 	mov    %rax,0x206b3d(%rip)        # 608410 <dtor_idx.7426>
  4018d3:	ff 14 c5 08 7e 60 00 	callq  *0x607e08(,%rax,8)
  4018da:	48 8b 05 2f 6b 20 00 	mov    0x206b2f(%rip),%rax        # 608410 <dtor_idx.7426>
  4018e1:	48 39 d8             	cmp    %rbx,%rax
  4018e4:	72 e2                	jb     4018c8 <__do_global_dtors_aux+0x38>
  4018e6:	c6 05 1b 6b 20 00 01 	movb   $0x1,0x206b1b(%rip)        # 608408 <completed.7424>
  4018ed:	48 83 c4 08          	add    $0x8,%rsp
  4018f1:	5b                   	pop    %rbx
  4018f2:	c9                   	leaveq 
  4018f3:	c3                   	retq   
  4018f4:	eb 0a                	jmp    401900 <frame_dummy>
  4018f6:	90                   	nop
  4018f7:	90                   	nop
  4018f8:	90                   	nop
  4018f9:	90                   	nop
  4018fa:	90                   	nop
  4018fb:	90                   	nop
  4018fc:	90                   	nop
  4018fd:	90                   	nop
  4018fe:	90                   	nop
  4018ff:	90                   	nop

0000000000401900 <frame_dummy>:
  401900:	55                   	push   %rbp
  401901:	48 83 3d 0f 65 20 00 	cmpq   $0x0,0x20650f(%rip)        # 607e18 <__JCR_END__>
  401908:	00 
  401909:	48 89 e5             	mov    %rsp,%rbp
  40190c:	74 12                	je     401920 <frame_dummy+0x20>
  40190e:	b8 00 00 00 00       	mov    $0x0,%eax
  401913:	48 85 c0             	test   %rax,%rax
  401916:	74 08                	je     401920 <frame_dummy+0x20>
  401918:	bf 18 7e 60 00       	mov    $0x607e18,%edi
  40191d:	c9                   	leaveq 
  40191e:	ff e0                	jmpq   *%rax
  401920:	c9                   	leaveq 
  401921:	c3                   	retq   
  401922:	90                   	nop
  401923:	90                   	nop

0000000000401924 <_ZN9asdfghjklC2Ev>:
  401924:	55                   	push   %rbp
  401925:	48 89 e5             	mov    %rsp,%rbp
  401928:	48 89 7d f8          	mov    %rdi,-0x8(%rbp)
  40192c:	48 8b 45 f8          	mov    -0x8(%rbp),%rax
  401930:	48 c7 00 10 59 40 00 	movq   $0x405910,(%rax)
  401937:	c9                   	leaveq 
  401938:	c3                   	retq   
  401939:	90                   	nop

000000000040193a <_ZN9asdfghjklC1Ev>:
  40193a:	55                   	push   %rbp
  40193b:	48 89 e5             	mov    %rsp,%rbp
  40193e:	48 89 7d f8          	mov    %rdi,-0x8(%rbp)
  401942:	48 8b 45 f8          	mov    -0x8(%rbp),%rax
  401946:	48 c7 00 10 59 40 00 	movq   $0x405910,(%rax)
  40194d:	c9                   	leaveq 
  40194e:	c3                   	retq   
  40194f:	90                   	nop

0000000000401950 <_ZN9asdfghjklD2Ev>:
  401950:	55                   	push   %rbp
  401951:	48 89 e5             	mov    %rsp,%rbp
  401954:	48 83 ec 10          	sub    $0x10,%rsp
  401958:	48 89 7d f8          	mov    %rdi,-0x8(%rbp)
  40195c:	48 8b 45 f8          	mov    -0x8(%rbp),%rax
  401960:	48 c7 00 10 59 40 00 	movq   $0x405910,(%rax)
  401967:	b8 00 00 00 00       	mov    $0x0,%eax
  40196c:	84 c0                	test   %al,%al
  40196e:	74 0c                	je     40197c <_ZN9asdfghjklD2Ev+0x2c>
  401970:	48 8b 45 f8          	mov    -0x8(%rbp),%rax
  401974:	48 89 c7             	mov    %rax,%rdi
  401977:	e8 ac fb ff ff       	callq  401528 <_ZdlPv@plt>
  40197c:	c9                   	leaveq 
  40197d:	c3                   	retq   

000000000040197e <_ZN9asdfghjklD1Ev>:
  40197e:	55                   	push   %rbp
  40197f:	48 89 e5             	mov    %rsp,%rbp
  401982:	48 83 ec 10          	sub    $0x10,%rsp
  401986:	48 89 7d f8          	mov    %rdi,-0x8(%rbp)
  40198a:	48 8b 45 f8          	mov    -0x8(%rbp),%rax
  40198e:	48 c7 00 10 59 40 00 	movq   $0x405910,(%rax)
  401995:	b8 00 00 00 00       	mov    $0x0,%eax
  40199a:	84 c0                	test   %al,%al
  40199c:	74 0c                	je     4019aa <_ZN9asdfghjklD1Ev+0x2c>
  40199e:	48 8b 45 f8          	mov    -0x8(%rbp),%rax
  4019a2:	48 89 c7             	mov    %rax,%rdi
  4019a5:	e8 7e fb ff ff       	callq  401528 <_ZdlPv@plt>
  4019aa:	c9                   	leaveq 
  4019ab:	c3                   	retq   

00000000004019ac <_ZN9asdfghjklD0Ev>:
  4019ac:	55                   	push   %rbp
  4019ad:	48 89 e5             	mov    %rsp,%rbp
  4019b0:	48 83 ec 10          	sub    $0x10,%rsp
  4019b4:	48 89 7d f8          	mov    %rdi,-0x8(%rbp)
  4019b8:	48 8b 45 f8          	mov    -0x8(%rbp),%rax
  4019bc:	48 c7 00 10 59 40 00 	movq   $0x405910,(%rax)
  4019c3:	b8 01 00 00 00       	mov    $0x1,%eax
  4019c8:	84 c0                	test   %al,%al
  4019ca:	74 0c                	je     4019d8 <_ZN9asdfghjklD0Ev+0x2c>
  4019cc:	48 8b 45 f8          	mov    -0x8(%rbp),%rax
  4019d0:	48 89 c7             	mov    %rax,%rdi
  4019d3:	e8 50 fb ff ff       	callq  401528 <_ZdlPv@plt>
  4019d8:	c9                   	leaveq 
  4019d9:	c3                   	retq   

00000000004019da <_ZN9asdfghjkl4asdfEv>:
  4019da:	55                   	push   %rbp
  4019db:	48 89 e5             	mov    %rsp,%rbp
  4019de:	48 89 7d f8          	mov    %rdi,-0x8(%rbp)
  4019e2:	c9                   	leaveq 
  4019e3:	c3                   	retq   

00000000004019e4 <_ZN6xaxaxa9AsyncSock13SocketManagerC2Ev>:
  4019e4:	55                   	push   %rbp
  4019e5:	48 89 e5             	mov    %rsp,%rbp
  4019e8:	41 54                	push   %r12
  4019ea:	53                   	push   %rbx
  4019eb:	48 83 ec 10          	sub    $0x10,%rsp
  4019ef:	48 89 7d e8          	mov    %rdi,-0x18(%rbp)
  4019f3:	48 8b 45 e8          	mov    -0x18(%rbp),%rax
  4019f7:	48 c7 00 00 5a 40 00 	movq   $0x405a00,(%rax)
  4019fe:	48 8b 45 e8          	mov    -0x18(%rbp),%rax
  401a02:	48 83 c0 10          	add    $0x10,%rax
  401a06:	48 89 c7             	mov    %rax,%rdi
  401a09:	e8 1c 10 00 00       	callq  402a2a <_ZNSt3mapIiN6xaxaxa9AsyncSock13SocketManager8taskInfoESt4lessIiESaISt4pairIKiS3_EEEC1Ev>
  401a0e:	bf 20 00 00 00       	mov    $0x20,%edi
  401a13:	e8 f0 fa ff ff       	callq  401508 <epoll_create@plt>
  401a18:	48 8b 55 e8          	mov    -0x18(%rbp),%rdx
  401a1c:	89 42 08             	mov    %eax,0x8(%rdx)
  401a1f:	48 8b 45 e8          	mov    -0x18(%rbp),%rax
  401a23:	8b 40 08             	mov    0x8(%rax),%eax
  401a26:	85 c0                	test   %eax,%eax
  401a28:	79 2f                	jns    401a59 <_ZN6xaxaxa9AsyncSock13SocketManagerC2Ev+0x75>
  401a2a:	bf 54 59 40 00       	mov    $0x405954,%edi
  401a2f:	e8 84 fd ff ff       	callq  4017b8 <perror@plt>
  401a34:	eb 23                	jmp    401a59 <_ZN6xaxaxa9AsyncSock13SocketManagerC2Ev+0x75>
  401a36:	89 d3                	mov    %edx,%ebx
  401a38:	49 89 c4             	mov    %rax,%r12
  401a3b:	48 8b 45 e8          	mov    -0x18(%rbp),%rax
  401a3f:	48 83 c0 10          	add    $0x10,%rax
  401a43:	48 89 c7             	mov    %rax,%rdi
  401a46:	e8 97 0f 00 00       	callq  4029e2 <_ZNSt3mapIiN6xaxaxa9AsyncSock13SocketManager8taskInfoESt4lessIiESaISt4pairIKiS3_EEED1Ev>
  401a4b:	4c 89 e0             	mov    %r12,%rax
  401a4e:	48 63 d3             	movslq %ebx,%rdx
  401a51:	48 89 c7             	mov    %rax,%rdi
  401a54:	e8 9f fd ff ff       	callq  4017f8 <_Unwind_Resume@plt>
  401a59:	48 83 c4 10          	add    $0x10,%rsp
  401a5d:	5b                   	pop    %rbx
  401a5e:	41 5c                	pop    %r12
  401a60:	c9                   	leaveq 
  401a61:	c3                   	retq   

0000000000401a62 <_ZN6xaxaxa9AsyncSock13SocketManagerC1Ev>:
  401a62:	55                   	push   %rbp
  401a63:	48 89 e5             	mov    %rsp,%rbp
  401a66:	41 54                	push   %r12
  401a68:	53                   	push   %rbx
  401a69:	48 83 ec 10          	sub    $0x10,%rsp
  401a6d:	48 89 7d e8          	mov    %rdi,-0x18(%rbp)
  401a71:	48 8b 45 e8          	mov    -0x18(%rbp),%rax
  401a75:	48 c7 00 00 5a 40 00 	movq   $0x405a00,(%rax)
  401a7c:	48 8b 45 e8          	mov    -0x18(%rbp),%rax
  401a80:	48 83 c0 10          	add    $0x10,%rax
  401a84:	48 89 c7             	mov    %rax,%rdi
  401a87:	e8 9e 0f 00 00       	callq  402a2a <_ZNSt3mapIiN6xaxaxa9AsyncSock13SocketManager8taskInfoESt4lessIiESaISt4pairIKiS3_EEEC1Ev>
  401a8c:	bf 20 00 00 00       	mov    $0x20,%edi
  401a91:	e8 72 fa ff ff       	callq  401508 <epoll_create@plt>
  401a96:	48 8b 55 e8          	mov    -0x18(%rbp),%rdx
  401a9a:	89 42 08             	mov    %eax,0x8(%rdx)
  401a9d:	48 8b 45 e8          	mov    -0x18(%rbp),%rax
  401aa1:	8b 40 08             	mov    0x8(%rax),%eax
  401aa4:	85 c0                	test   %eax,%eax
  401aa6:	79 2f                	jns    401ad7 <_ZN6xaxaxa9AsyncSock13SocketManagerC1Ev+0x75>
  401aa8:	bf 54 59 40 00       	mov    $0x405954,%edi
  401aad:	e8 06 fd ff ff       	callq  4017b8 <perror@plt>
  401ab2:	eb 23                	jmp    401ad7 <_ZN6xaxaxa9AsyncSock13SocketManagerC1Ev+0x75>
  401ab4:	89 d3                	mov    %edx,%ebx
  401ab6:	49 89 c4             	mov    %rax,%r12
  401ab9:	48 8b 45 e8          	mov    -0x18(%rbp),%rax
  401abd:	48 83 c0 10          	add    $0x10,%rax
  401ac1:	48 89 c7             	mov    %rax,%rdi
  401ac4:	e8 19 0f 00 00       	callq  4029e2 <_ZNSt3mapIiN6xaxaxa9AsyncSock13SocketManager8taskInfoESt4lessIiESaISt4pairIKiS3_EEED1Ev>
  401ac9:	4c 89 e0             	mov    %r12,%rax
  401acc:	48 63 d3             	movslq %ebx,%rdx
  401acf:	48 89 c7             	mov    %rax,%rdi
  401ad2:	e8 21 fd ff ff       	callq  4017f8 <_Unwind_Resume@plt>
  401ad7:	48 83 c4 10          	add    $0x10,%rsp
  401adb:	5b                   	pop    %rbx
  401adc:	41 5c                	pop    %r12
  401ade:	c9                   	leaveq 
  401adf:	c3                   	retq   

0000000000401ae0 <_ZN6xaxaxa9AsyncSock13SocketManagerD2Ev>:
  401ae0:	55                   	push   %rbp
  401ae1:	48 89 e5             	mov    %rsp,%rbp
  401ae4:	41 54                	push   %r12
  401ae6:	53                   	push   %rbx
  401ae7:	48 83 ec 10          	sub    $0x10,%rsp
  401aeb:	48 89 7d e8          	mov    %rdi,-0x18(%rbp)
  401aef:	48 8b 45 e8          	mov    -0x18(%rbp),%rax
  401af3:	48 c7 00 00 5a 40 00 	movq   $0x405a00,(%rax)
  401afa:	48 8b 45 e8          	mov    -0x18(%rbp),%rax
  401afe:	8b 40 08             	mov    0x8(%rax),%eax
  401b01:	89 c7                	mov    %eax,%edi
  401b03:	e8 f0 f9 ff ff       	callq  4014f8 <close@plt>
  401b08:	eb 23                	jmp    401b2d <_ZN6xaxaxa9AsyncSock13SocketManagerD2Ev+0x4d>
  401b0a:	89 d3                	mov    %edx,%ebx
  401b0c:	49 89 c4             	mov    %rax,%r12
  401b0f:	48 8b 45 e8          	mov    -0x18(%rbp),%rax
  401b13:	48 83 c0 10          	add    $0x10,%rax
  401b17:	48 89 c7             	mov    %rax,%rdi
  401b1a:	e8 c3 0e 00 00       	callq  4029e2 <_ZNSt3mapIiN6xaxaxa9AsyncSock13SocketManager8taskInfoESt4lessIiESaISt4pairIKiS3_EEED1Ev>
  401b1f:	4c 89 e0             	mov    %r12,%rax
  401b22:	48 63 d3             	movslq %ebx,%rdx
  401b25:	48 89 c7             	mov    %rax,%rdi
  401b28:	e8 cb fc ff ff       	callq  4017f8 <_Unwind_Resume@plt>
  401b2d:	48 8b 45 e8          	mov    -0x18(%rbp),%rax
  401b31:	48 83 c0 10          	add    $0x10,%rax
  401b35:	48 89 c7             	mov    %rax,%rdi
  401b38:	e8 a5 0e 00 00       	callq  4029e2 <_ZNSt3mapIiN6xaxaxa9AsyncSock13SocketManager8taskInfoESt4lessIiESaISt4pairIKiS3_EEED1Ev>
  401b3d:	48 83 c4 10          	add    $0x10,%rsp
  401b41:	5b                   	pop    %rbx
  401b42:	41 5c                	pop    %r12
  401b44:	c9                   	leaveq 
  401b45:	c3                   	retq   

0000000000401b46 <_ZN6xaxaxa9AsyncSock13SocketManagerD1Ev>:
  401b46:	55                   	push   %rbp
  401b47:	48 89 e5             	mov    %rsp,%rbp
  401b4a:	41 54                	push   %r12
  401b4c:	53                   	push   %rbx
  401b4d:	48 83 ec 10          	sub    $0x10,%rsp
  401b51:	48 89 7d e8          	mov    %rdi,-0x18(%rbp)
  401b55:	48 8b 45 e8          	mov    -0x18(%rbp),%rax
  401b59:	48 c7 00 00 5a 40 00 	movq   $0x405a00,(%rax)
  401b60:	48 8b 45 e8          	mov    -0x18(%rbp),%rax
  401b64:	8b 40 08             	mov    0x8(%rax),%eax
  401b67:	89 c7                	mov    %eax,%edi
  401b69:	e8 8a f9 ff ff       	callq  4014f8 <close@plt>
  401b6e:	eb 23                	jmp    401b93 <_ZN6xaxaxa9AsyncSock13SocketManagerD1Ev+0x4d>
  401b70:	89 d3                	mov    %edx,%ebx
  401b72:	49 89 c4             	mov    %rax,%r12
  401b75:	48 8b 45 e8          	mov    -0x18(%rbp),%rax
  401b79:	48 83 c0 10          	add    $0x10,%rax
  401b7d:	48 89 c7             	mov    %rax,%rdi
  401b80:	e8 5d 0e 00 00       	callq  4029e2 <_ZNSt3mapIiN6xaxaxa9AsyncSock13SocketManager8taskInfoESt4lessIiESaISt4pairIKiS3_EEED1Ev>
  401b85:	4c 89 e0             	mov    %r12,%rax
  401b88:	48 63 d3             	movslq %ebx,%rdx
  401b8b:	48 89 c7             	mov    %rax,%rdi
  401b8e:	e8 65 fc ff ff       	callq  4017f8 <_Unwind_Resume@plt>
  401b93:	48 8b 45 e8          	mov    -0x18(%rbp),%rax
  401b97:	48 83 c0 10          	add    $0x10,%rax
  401b9b:	48 89 c7             	mov    %rax,%rdi
  401b9e:	e8 3f 0e 00 00       	callq  4029e2 <_ZNSt3mapIiN6xaxaxa9AsyncSock13SocketManager8taskInfoESt4lessIiESaISt4pairIKiS3_EEED1Ev>
  401ba3:	48 83 c4 10          	add    $0x10,%rsp
  401ba7:	5b                   	pop    %rbx
  401ba8:	41 5c                	pop    %r12
  401baa:	c9                   	leaveq 
  401bab:	c3                   	retq   

0000000000401bac <_ZN6xaxaxa9AsyncSock13SocketManager9EventLoopEv>:
  401bac:	55                   	push   %rbp
  401bad:	48 89 e5             	mov    %rsp,%rbp
  401bb0:	41 55                	push   %r13
  401bb2:	41 54                	push   %r12
  401bb4:	53                   	push   %rbx
  401bb5:	48 81 ec a8 00 00 00 	sub    $0xa8,%rsp
  401bbc:	48 89 bd 48 ff ff ff 	mov    %rdi,-0xb8(%rbp)
  401bc3:	bf 80 01 00 00       	mov    $0x180,%edi
  401bc8:	e8 4b f9 ff ff       	callq  401518 <_Znam@plt>
  401bcd:	48 89 45 c8          	mov    %rax,-0x38(%rbp)
  401bd1:	48 8b 85 48 ff ff ff 	mov    -0xb8(%rbp),%rax
  401bd8:	8b 40 08             	mov    0x8(%rax),%eax
  401bdb:	48 8b 5d c8          	mov    -0x38(%rbp),%rbx
  401bdf:	b9 ff ff ff ff       	mov    $0xffffffff,%ecx
  401be4:	ba 20 00 00 00       	mov    $0x20,%edx
  401be9:	48 89 de             	mov    %rbx,%rsi
  401bec:	89 c7                	mov    %eax,%edi
  401bee:	e8 25 fb ff ff       	callq  401718 <epoll_wait@plt>
  401bf3:	89 45 dc             	mov    %eax,-0x24(%rbp)
  401bf6:	83 7d dc ff          	cmpl   $0xffffffffffffffff,-0x24(%rbp)
  401bfa:	75 61                	jne    401c5d <_ZN6xaxaxa9AsyncSock13SocketManager9EventLoopEv+0xb1>
  401bfc:	bf 10 00 00 00       	mov    $0x10,%edi
  401c01:	e8 e2 fb ff ff       	callq  4017e8 <_Znwm@plt>
  401c06:	48 89 c3             	mov    %rax,%rbx
  401c09:	e8 9a fa ff ff       	callq  4016a8 <__errno_location@plt>
  401c0e:	8b 10                	mov    (%rax),%edx
  401c10:	48 89 d8             	mov    %rbx,%rax
  401c13:	89 d6                	mov    %edx,%esi
  401c15:	48 89 c7             	mov    %rax,%rdi
  401c18:	e8 1b 0c 00 00       	callq  402838 <_ZN6xaxaxa9ExceptionC1Ei>
  401c1d:	eb 1c                	jmp    401c3b <_ZN6xaxaxa9AsyncSock13SocketManager9EventLoopEv+0x8f>
  401c1f:	41 89 d4             	mov    %edx,%r12d
  401c22:	49 89 c5             	mov    %rax,%r13
  401c25:	48 89 df             	mov    %rbx,%rdi
  401c28:	e8 fb f8 ff ff       	callq  401528 <_ZdlPv@plt>
  401c2d:	4c 89 e8             	mov    %r13,%rax
  401c30:	49 63 d4             	movslq %r12d,%rdx
  401c33:	48 89 c7             	mov    %rax,%rdi
  401c36:	e8 bd fb ff ff       	callq  4017f8 <_Unwind_Resume@plt>
  401c3b:	bf 08 00 00 00       	mov    $0x8,%edi
  401c40:	e8 a3 fa ff ff       	callq  4016e8 <__cxa_allocate_exception@plt>
  401c45:	48 89 c2             	mov    %rax,%rdx
  401c48:	48 89 1a             	mov    %rbx,(%rdx)
  401c4b:	ba 00 00 00 00       	mov    $0x0,%edx
  401c50:	be 80 5a 40 00       	mov    $0x405a80,%esi
  401c55:	48 89 c7             	mov    %rax,%rdi
  401c58:	e8 db fa ff ff       	callq  401738 <__cxa_throw@plt>
  401c5d:	c7 45 d8 00 00 00 00 	movl   $0x0,-0x28(%rbp)
  401c64:	e9 ec 02 00 00       	jmpq   401f55 <_ZN6xaxaxa9AsyncSock13SocketManager9EventLoopEv+0x3a9>
  401c69:	8b 45 d8             	mov    -0x28(%rbp),%eax
  401c6c:	48 63 d0             	movslq %eax,%rdx
  401c6f:	48 89 d0             	mov    %rdx,%rax
  401c72:	48 01 c0             	add    %rax,%rax
  401c75:	48 01 d0             	add    %rdx,%rax
  401c78:	48 c1 e0 02          	shl    $0x2,%rax
  401c7c:	48 03 45 c8          	add    -0x38(%rbp),%rax
  401c80:	48 8b 10             	mov    (%rax),%rdx
  401c83:	48 89 55 b0          	mov    %rdx,-0x50(%rbp)
  401c87:	8b 40 08             	mov    0x8(%rax),%eax
  401c8a:	89 45 b8             	mov    %eax,-0x48(%rbp)
  401c8d:	8b 45 b4             	mov    -0x4c(%rbp),%eax
  401c90:	89 45 d4             	mov    %eax,-0x2c(%rbp)
  401c93:	8b 5d d4             	mov    -0x2c(%rbp),%ebx
  401c96:	be 61 59 40 00       	mov    $0x405961,%esi
  401c9b:	bf 40 82 60 00       	mov    $0x608240,%edi
  401ca0:	e8 23 f9 ff ff       	callq  4015c8 <_ZStlsISt11char_traitsIcEERSt13basic_ostreamIcT_ES5_PKc@plt>
  401ca5:	89 de                	mov    %ebx,%esi
  401ca7:	48 89 c7             	mov    %rax,%rdi
  401caa:	e8 19 f8 ff ff       	callq  4014c8 <_ZNSolsEi@plt>
  401caf:	be 78 17 40 00       	mov    $0x401778,%esi
  401cb4:	48 89 c7             	mov    %rax,%rdi
  401cb7:	e8 8c fa ff ff       	callq  401748 <_ZNSolsEPFRSoS_E@plt>
  401cbc:	48 8b 85 48 ff ff ff 	mov    -0xb8(%rbp),%rax
  401cc3:	48 8d 50 10          	lea    0x10(%rax),%rdx
  401cc7:	48 8d 45 d4          	lea    -0x2c(%rbp),%rax
  401ccb:	48 89 c6             	mov    %rax,%rsi
  401cce:	48 89 d7             	mov    %rdx,%rdi
  401cd1:	e8 58 0e 00 00       	callq  402b2e <_ZNSt3mapIiN6xaxaxa9AsyncSock13SocketManager8taskInfoESt4lessIiESaISt4pairIKiS3_EEEixERS7_>
  401cd6:	48 8b 10             	mov    (%rax),%rdx
  401cd9:	48 89 95 50 ff ff ff 	mov    %rdx,-0xb0(%rbp)
  401ce0:	48 8b 50 08          	mov    0x8(%rax),%rdx
  401ce4:	48 89 95 58 ff ff ff 	mov    %rdx,-0xa8(%rbp)
  401ceb:	48 8b 50 10          	mov    0x10(%rax),%rdx
  401cef:	48 89 95 60 ff ff ff 	mov    %rdx,-0xa0(%rbp)
  401cf6:	48 8b 50 18          	mov    0x18(%rax),%rdx
  401cfa:	48 89 95 68 ff ff ff 	mov    %rdx,-0x98(%rbp)
  401d01:	48 8b 50 20          	mov    0x20(%rax),%rdx
  401d05:	48 89 95 70 ff ff ff 	mov    %rdx,-0x90(%rbp)
  401d0c:	48 8b 50 28          	mov    0x28(%rax),%rdx
  401d10:	48 89 95 78 ff ff ff 	mov    %rdx,-0x88(%rbp)
  401d17:	48 8b 50 30          	mov    0x30(%rax),%rdx
  401d1b:	48 89 55 80          	mov    %rdx,-0x80(%rbp)
  401d1f:	48 8b 50 38          	mov    0x38(%rax),%rdx
  401d23:	48 89 55 88          	mov    %rdx,-0x78(%rbp)
  401d27:	48 8b 50 40          	mov    0x40(%rax),%rdx
  401d2b:	48 89 55 90          	mov    %rdx,-0x70(%rbp)
  401d2f:	48 8b 50 48          	mov    0x48(%rax),%rdx
  401d33:	48 89 55 98          	mov    %rdx,-0x68(%rbp)
  401d37:	0f b6 40 50          	movzbl 0x50(%rax),%eax
  401d3b:	88 45 a0             	mov    %al,-0x60(%rbp)
  401d3e:	8b 85 78 ff ff ff    	mov    -0x88(%rbp),%eax
  401d44:	8b 55 b0             	mov    -0x50(%rbp),%edx
  401d47:	f7 d2                	not    %edx
  401d49:	21 d0                	and    %edx,%eax
  401d4b:	89 85 7c ff ff ff    	mov    %eax,-0x84(%rbp)
  401d51:	c6 45 a0 01          	movb   $0x1,-0x60(%rbp)
  401d55:	8b 9d 78 ff ff ff    	mov    -0x88(%rbp),%ebx
  401d5b:	be 64 59 40 00       	mov    $0x405964,%esi
  401d60:	bf 40 82 60 00       	mov    $0x608240,%edi
  401d65:	e8 5e f8 ff ff       	callq  4015c8 <_ZStlsISt11char_traitsIcEERSt13basic_ostreamIcT_ES5_PKc@plt>
  401d6a:	89 de                	mov    %ebx,%esi
  401d6c:	48 89 c7             	mov    %rax,%rdi
  401d6f:	e8 d4 f8 ff ff       	callq  401648 <_ZNSolsEj@plt>
  401d74:	be 78 17 40 00       	mov    $0x401778,%esi
  401d79:	48 89 c7             	mov    %rax,%rdi
  401d7c:	e8 c7 f9 ff ff       	callq  401748 <_ZNSolsEPFRSoS_E@plt>
  401d81:	8b 5d b0             	mov    -0x50(%rbp),%ebx
  401d84:	be 6e 59 40 00       	mov    $0x40596e,%esi
  401d89:	bf 40 82 60 00       	mov    $0x608240,%edi
  401d8e:	e8 35 f8 ff ff       	callq  4015c8 <_ZStlsISt11char_traitsIcEERSt13basic_ostreamIcT_ES5_PKc@plt>
  401d93:	89 de                	mov    %ebx,%esi
  401d95:	48 89 c7             	mov    %rax,%rdi
  401d98:	e8 ab f8 ff ff       	callq  401648 <_ZNSolsEj@plt>
  401d9d:	be 78 17 40 00       	mov    $0x401778,%esi
  401da2:	48 89 c7             	mov    %rax,%rdi
  401da5:	e8 9e f9 ff ff       	callq  401748 <_ZNSolsEPFRSoS_E@plt>
  401daa:	8b 45 b0             	mov    -0x50(%rbp),%eax
  401dad:	83 e0 01             	and    $0x1,%eax
  401db0:	84 c0                	test   %al,%al
  401db2:	74 4e                	je     401e02 <_ZN6xaxaxa9AsyncSock13SocketManager9EventLoopEv+0x256>
  401db4:	48 8b 85 58 ff ff ff 	mov    -0xa8(%rbp),%rax
  401dbb:	48 85 c0             	test   %rax,%rax
  401dbe:	0f 95 c0             	setne  %al
  401dc1:	0f b6 d8             	movzbl %al,%ebx
  401dc4:	be 79 59 40 00       	mov    $0x405979,%esi
  401dc9:	bf 40 82 60 00       	mov    $0x608240,%edi
  401dce:	e8 f5 f7 ff ff       	callq  4015c8 <_ZStlsISt11char_traitsIcEERSt13basic_ostreamIcT_ES5_PKc@plt>
  401dd3:	89 de                	mov    %ebx,%esi
  401dd5:	48 89 c7             	mov    %rax,%rdi
  401dd8:	e8 1b f8 ff ff       	callq  4015f8 <_ZNSolsEb@plt>
  401ddd:	be 78 17 40 00       	mov    $0x401778,%esi
  401de2:	48 89 c7             	mov    %rax,%rdi
  401de5:	e8 5e f9 ff ff       	callq  401748 <_ZNSolsEPFRSoS_E@plt>
  401dea:	48 8b 8d 58 ff ff ff 	mov    -0xa8(%rbp),%rcx
  401df1:	8b 55 d4             	mov    -0x2c(%rbp),%edx
  401df4:	48 8b 85 60 ff ff ff 	mov    -0xa0(%rbp),%rax
  401dfb:	89 d6                	mov    %edx,%esi
  401dfd:	48 89 c7             	mov    %rax,%rdi
  401e00:	ff d1                	callq  *%rcx
  401e02:	8b 45 b0             	mov    -0x50(%rbp),%eax
  401e05:	83 e0 04             	and    $0x4,%eax
  401e08:	85 c0                	test   %eax,%eax
  401e0a:	74 4e                	je     401e5a <_ZN6xaxaxa9AsyncSock13SocketManager9EventLoopEv+0x2ae>
  401e0c:	48 8b 85 68 ff ff ff 	mov    -0x98(%rbp),%rax
  401e13:	48 85 c0             	test   %rax,%rax
  401e16:	0f 95 c0             	setne  %al
  401e19:	0f b6 d8             	movzbl %al,%ebx
  401e1c:	be 8a 59 40 00       	mov    $0x40598a,%esi
  401e21:	bf 40 82 60 00       	mov    $0x608240,%edi
  401e26:	e8 9d f7 ff ff       	callq  4015c8 <_ZStlsISt11char_traitsIcEERSt13basic_ostreamIcT_ES5_PKc@plt>
  401e2b:	89 de                	mov    %ebx,%esi
  401e2d:	48 89 c7             	mov    %rax,%rdi
  401e30:	e8 c3 f7 ff ff       	callq  4015f8 <_ZNSolsEb@plt>
  401e35:	be 78 17 40 00       	mov    $0x401778,%esi
  401e3a:	48 89 c7             	mov    %rax,%rdi
  401e3d:	e8 06 f9 ff ff       	callq  401748 <_ZNSolsEPFRSoS_E@plt>
  401e42:	48 8b 8d 68 ff ff ff 	mov    -0x98(%rbp),%rcx
  401e49:	8b 55 d4             	mov    -0x2c(%rbp),%edx
  401e4c:	48 8b 85 70 ff ff ff 	mov    -0x90(%rbp),%rax
  401e53:	89 d6                	mov    %edx,%esi
  401e55:	48 89 c7             	mov    %rax,%rdi
  401e58:	ff d1                	callq  *%rcx
  401e5a:	c6 45 a0 00          	movb   $0x0,-0x60(%rbp)
  401e5e:	8b 9d 7c ff ff ff    	mov    -0x84(%rbp),%ebx
  401e64:	be 9b 59 40 00       	mov    $0x40599b,%esi
  401e69:	bf 40 82 60 00       	mov    $0x608240,%edi
  401e6e:	e8 55 f7 ff ff       	callq  4015c8 <_ZStlsISt11char_traitsIcEERSt13basic_ostreamIcT_ES5_PKc@plt>
  401e73:	89 de                	mov    %ebx,%esi
  401e75:	48 89 c7             	mov    %rax,%rdi
  401e78:	e8 cb f7 ff ff       	callq  401648 <_ZNSolsEj@plt>
  401e7d:	be 78 17 40 00       	mov    $0x401778,%esi
  401e82:	48 89 c7             	mov    %rax,%rdi
  401e85:	e8 be f8 ff ff       	callq  401748 <_ZNSolsEPFRSoS_E@plt>
  401e8a:	8b 95 7c ff ff ff    	mov    -0x84(%rbp),%edx
  401e90:	8b 85 78 ff ff ff    	mov    -0x88(%rbp),%eax
  401e96:	39 c2                	cmp    %eax,%edx
  401e98:	0f 84 a4 00 00 00    	je     401f42 <_ZN6xaxaxa9AsyncSock13SocketManager9EventLoopEv+0x396>
  401e9e:	8b 85 7c ff ff ff    	mov    -0x84(%rbp),%eax
  401ea4:	89 85 78 ff ff ff    	mov    %eax,-0x88(%rbp)
  401eaa:	bf 0c 00 00 00       	mov    $0xc,%edi
  401eaf:	e8 34 f9 ff ff       	callq  4017e8 <_Znwm@plt>
  401eb4:	48 89 c2             	mov    %rax,%rdx
  401eb7:	48 89 d0             	mov    %rdx,%rax
  401eba:	48 c7 00 00 00 00 00 	movq   $0x0,(%rax)
  401ec1:	c7 40 08 00 00 00 00 	movl   $0x0,0x8(%rax)
  401ec8:	48 89 55 c0          	mov    %rdx,-0x40(%rbp)
  401ecc:	8b 55 d4             	mov    -0x2c(%rbp),%edx
  401ecf:	48 8b 45 c0          	mov    -0x40(%rbp),%rax
  401ed3:	89 50 04             	mov    %edx,0x4(%rax)
  401ed6:	8b 95 78 ff ff ff    	mov    -0x88(%rbp),%edx
  401edc:	48 8b 45 c0          	mov    -0x40(%rbp),%rax
  401ee0:	89 10                	mov    %edx,(%rax)
  401ee2:	8b 55 d4             	mov    -0x2c(%rbp),%edx
  401ee5:	48 8b 85 48 ff ff ff 	mov    -0xb8(%rbp),%rax
  401eec:	8b 40 08             	mov    0x8(%rax),%eax
  401eef:	48 8b 4d c0          	mov    -0x40(%rbp),%rcx
  401ef3:	be 03 00 00 00       	mov    $0x3,%esi
  401ef8:	89 c7                	mov    %eax,%edi
  401efa:	e8 29 f7 ff ff       	callq  401628 <epoll_ctl@plt>
  401eff:	48 8b 45 c0          	mov    -0x40(%rbp),%rax
  401f03:	8b 18                	mov    (%rax),%ebx
  401f05:	be a9 59 40 00       	mov    $0x4059a9,%esi
  401f0a:	bf 40 82 60 00       	mov    $0x608240,%edi
  401f0f:	e8 b4 f6 ff ff       	callq  4015c8 <_ZStlsISt11char_traitsIcEERSt13basic_ostreamIcT_ES5_PKc@plt>
  401f14:	89 de                	mov    %ebx,%esi
  401f16:	48 89 c7             	mov    %rax,%rdi
  401f19:	e8 2a f7 ff ff       	callq  401648 <_ZNSolsEj@plt>
  401f1e:	eb 22                	jmp    401f42 <_ZN6xaxaxa9AsyncSock13SocketManager9EventLoopEv+0x396>
  401f20:	89 d3                	mov    %edx,%ebx
  401f22:	49 89 c4             	mov    %rax,%r12
  401f25:	48 8d 85 50 ff ff ff 	lea    -0xb0(%rbp),%rax
  401f2c:	48 89 c7             	mov    %rax,%rdi
  401f2f:	e8 c8 0a 00 00       	callq  4029fc <_ZN6xaxaxa9AsyncSock13SocketManager8taskInfoD1Ev>
  401f34:	4c 89 e0             	mov    %r12,%rax
  401f37:	48 63 d3             	movslq %ebx,%rdx
  401f3a:	48 89 c7             	mov    %rax,%rdi
  401f3d:	e8 b6 f8 ff ff       	callq  4017f8 <_Unwind_Resume@plt>
  401f42:	48 8d 85 50 ff ff ff 	lea    -0xb0(%rbp),%rax
  401f49:	48 89 c7             	mov    %rax,%rdi
  401f4c:	e8 ab 0a 00 00       	callq  4029fc <_ZN6xaxaxa9AsyncSock13SocketManager8taskInfoD1Ev>
  401f51:	83 45 d8 01          	addl   $0x1,-0x28(%rbp)
  401f55:	8b 45 d8             	mov    -0x28(%rbp),%eax
  401f58:	3b 45 dc             	cmp    -0x24(%rbp),%eax
  401f5b:	0f 9c c0             	setl   %al
  401f5e:	84 c0                	test   %al,%al
  401f60:	0f 85 03 fd ff ff    	jne    401c69 <_ZN6xaxaxa9AsyncSock13SocketManager9EventLoopEv+0xbd>
  401f66:	e9 66 fc ff ff       	jmpq   401bd1 <_ZN6xaxaxa9AsyncSock13SocketManager9EventLoopEv+0x25>
  401f6b:	90                   	nop

0000000000401f6c <_ZN6xaxaxa9AsyncSock13SocketManager9BeginRecvEiNS_6BufferENS1_8CallbackE>:
  401f6c:	55                   	push   %rbp
  401f6d:	48 89 e5             	mov    %rsp,%rbp
  401f70:	41 55                	push   %r13
  401f72:	41 54                	push   %r12
  401f74:	53                   	push   %rbx
  401f75:	48 81 ec b8 00 00 00 	sub    $0xb8,%rsp
  401f7c:	48 89 bd 58 ff ff ff 	mov    %rdi,-0xa8(%rbp)
  401f83:	89 b5 54 ff ff ff    	mov    %esi,-0xac(%rbp)
  401f89:	48 89 95 48 ff ff ff 	mov    %rdx,-0xb8(%rbp)
  401f90:	48 89 c8             	mov    %rcx,%rax
  401f93:	4c 89 c2             	mov    %r8,%rdx
  401f96:	48 89 85 38 ff ff ff 	mov    %rax,-0xc8(%rbp)
  401f9d:	48 89 95 40 ff ff ff 	mov    %rdx,-0xc0(%rbp)
  401fa4:	48 8b 85 58 ff ff ff 	mov    -0xa8(%rbp),%rax
  401fab:	48 8d 50 10          	lea    0x10(%rax),%rdx
  401faf:	48 8d 85 54 ff ff ff 	lea    -0xac(%rbp),%rax
  401fb6:	48 89 c6             	mov    %rax,%rsi
  401fb9:	48 89 d7             	mov    %rdx,%rdi
  401fbc:	e8 6d 0b 00 00       	callq  402b2e <_ZNSt3mapIiN6xaxaxa9AsyncSock13SocketManager8taskInfoESt4lessIiESaISt4pairIKiS3_EEEixERS7_>
  401fc1:	48 8b 10             	mov    (%rax),%rdx
  401fc4:	48 89 95 60 ff ff ff 	mov    %rdx,-0xa0(%rbp)
  401fcb:	48 8b 50 08          	mov    0x8(%rax),%rdx
  401fcf:	48 89 95 68 ff ff ff 	mov    %rdx,-0x98(%rbp)
  401fd6:	48 8b 50 10          	mov    0x10(%rax),%rdx
  401fda:	48 89 95 70 ff ff ff 	mov    %rdx,-0x90(%rbp)
  401fe1:	48 8b 50 18          	mov    0x18(%rax),%rdx
  401fe5:	48 89 95 78 ff ff ff 	mov    %rdx,-0x88(%rbp)
  401fec:	48 8b 50 20          	mov    0x20(%rax),%rdx
  401ff0:	48 89 55 80          	mov    %rdx,-0x80(%rbp)
  401ff4:	48 8b 50 28          	mov    0x28(%rax),%rdx
  401ff8:	48 89 55 88          	mov    %rdx,-0x78(%rbp)
  401ffc:	48 8b 50 30          	mov    0x30(%rax),%rdx
  402000:	48 89 55 90          	mov    %rdx,-0x70(%rbp)
  402004:	48 8b 50 38          	mov    0x38(%rax),%rdx
  402008:	48 89 55 98          	mov    %rdx,-0x68(%rbp)
  40200c:	48 8b 50 40          	mov    0x40(%rax),%rdx
  402010:	48 89 55 a0          	mov    %rdx,-0x60(%rbp)
  402014:	48 8b 50 48          	mov    0x48(%rax),%rdx
  402018:	48 89 55 a8          	mov    %rdx,-0x58(%rbp)
  40201c:	0f b6 40 50          	movzbl 0x50(%rax),%eax
  402020:	88 45 b0             	mov    %al,-0x50(%rbp)
  402023:	0f b6 85 60 ff ff ff 	movzbl -0xa0(%rbp),%eax
  40202a:	84 c0                	test   %al,%al
  40202c:	0f 84 37 02 00 00    	je     402269 <_ZN6xaxaxa9AsyncSock13SocketManager9BeginRecvEiNS_6BufferENS1_8CallbackE+0x2fd>
  402032:	8b 45 8c             	mov    -0x74(%rbp),%eax
  402035:	83 e0 01             	and    $0x1,%eax
  402038:	84 c0                	test   %al,%al
  40203a:	0f 84 05 01 00 00    	je     402145 <_ZN6xaxaxa9AsyncSock13SocketManager9BeginRecvEiNS_6BufferENS1_8CallbackE+0x1d9>
  402040:	48 8d 45 df          	lea    -0x21(%rbp),%rax
  402044:	48 89 c7             	mov    %rax,%rdi
  402047:	e8 7c f7 ff ff       	callq  4017c8 <_ZNSaIcEC1Ev@plt>
  40204c:	48 8d 55 df          	lea    -0x21(%rbp),%rdx
  402050:	48 8d 45 d0          	lea    -0x30(%rbp),%rax
  402054:	be bf 59 40 00       	mov    $0x4059bf,%esi
  402059:	48 89 c7             	mov    %rax,%rdi
  40205c:	e8 b7 f5 ff ff       	callq  401618 <_ZNSsC1EPKcRKSaIcE@plt>
  402061:	4c 8d 65 d0          	lea    -0x30(%rbp),%r12
  402065:	bf 10 00 00 00       	mov    $0x10,%edi
  40206a:	e8 79 f7 ff ff       	callq  4017e8 <_Znwm@plt>
  40206f:	48 89 c3             	mov    %rax,%rbx
  402072:	48 89 d8             	mov    %rbx,%rax
  402075:	4c 89 e6             	mov    %r12,%rsi
  402078:	48 89 c7             	mov    %rax,%rdi
  40207b:	e8 a0 08 00 00       	callq  402920 <_ZN6xaxaxa9ExceptionC1ESs>
  402080:	eb 1c                	jmp    40209e <_ZN6xaxaxa9AsyncSock13SocketManager9BeginRecvEiNS_6BufferENS1_8CallbackE+0x132>
  402082:	48 89 c1             	mov    %rax,%rcx
  402085:	48 89 d0             	mov    %rdx,%rax
  402088:	41 89 c4             	mov    %eax,%r12d
  40208b:	49 89 cd             	mov    %rcx,%r13
  40208e:	48 89 df             	mov    %rbx,%rdi
  402091:	e8 92 f4 ff ff       	callq  401528 <_ZdlPv@plt>
  402096:	4c 89 e9             	mov    %r13,%rcx
  402099:	49 63 c4             	movslq %r12d,%rax
  40209c:	eb 2a                	jmp    4020c8 <_ZN6xaxaxa9AsyncSock13SocketManager9BeginRecvEiNS_6BufferENS1_8CallbackE+0x15c>
  40209e:	49 89 dc             	mov    %rbx,%r12
  4020a1:	bf 08 00 00 00       	mov    $0x8,%edi
  4020a6:	e8 3d f6 ff ff       	callq  4016e8 <__cxa_allocate_exception@plt>
  4020ab:	48 89 c3             	mov    %rax,%rbx
  4020ae:	48 89 d8             	mov    %rbx,%rax
  4020b1:	4c 89 20             	mov    %r12,(%rax)
  4020b4:	48 8d 45 d0          	lea    -0x30(%rbp),%rax
  4020b8:	48 89 c7             	mov    %rax,%rdi
  4020bb:	e8 18 f5 ff ff       	callq  4015d8 <_ZNSsD1Ev@plt>
  4020c0:	eb 65                	jmp    402127 <_ZN6xaxaxa9AsyncSock13SocketManager9BeginRecvEiNS_6BufferENS1_8CallbackE+0x1bb>
  4020c2:	48 89 c1             	mov    %rax,%rcx
  4020c5:	48 89 d0             	mov    %rdx,%rax
  4020c8:	89 c3                	mov    %eax,%ebx
  4020ca:	49 89 cc             	mov    %rcx,%r12
  4020cd:	48 8d 45 d0          	lea    -0x30(%rbp),%rax
  4020d1:	48 89 c7             	mov    %rax,%rdi
  4020d4:	e8 ff f4 ff ff       	callq  4015d8 <_ZNSsD1Ev@plt>
  4020d9:	eb 11                	jmp    4020ec <_ZN6xaxaxa9AsyncSock13SocketManager9BeginRecvEiNS_6BufferENS1_8CallbackE+0x180>
  4020db:	48 89 c1             	mov    %rax,%rcx
  4020de:	48 89 d0             	mov    %rdx,%rax
  4020e1:	48 83 f8 ff          	cmp    $0xffffffffffffffff,%rax
  4020e5:	75 24                	jne    40210b <_ZN6xaxaxa9AsyncSock13SocketManager9BeginRecvEiNS_6BufferENS1_8CallbackE+0x19f>
  4020e7:	e8 4c f5 ff ff       	callq  401638 <_ZSt9terminatev@plt>
  4020ec:	4c 89 e1             	mov    %r12,%rcx
  4020ef:	48 63 c3             	movslq %ebx,%rax
  4020f2:	eb 17                	jmp    40210b <_ZN6xaxaxa9AsyncSock13SocketManager9BeginRecvEiNS_6BufferENS1_8CallbackE+0x19f>
  4020f4:	48 89 c1             	mov    %rax,%rcx
  4020f7:	48 89 d0             	mov    %rdx,%rax
  4020fa:	48 83 f8 ff          	cmp    $0xffffffffffffffff,%rax
  4020fe:	75 0b                	jne    40210b <_ZN6xaxaxa9AsyncSock13SocketManager9BeginRecvEiNS_6BufferENS1_8CallbackE+0x19f>
  402100:	e8 33 f5 ff ff       	callq  401638 <_ZSt9terminatev@plt>
  402105:	48 89 c1             	mov    %rax,%rcx
  402108:	48 89 d0             	mov    %rdx,%rax
  40210b:	89 c3                	mov    %eax,%ebx
  40210d:	49 89 cc             	mov    %rcx,%r12
  402110:	48 8d 45 df          	lea    -0x21(%rbp),%rax
  402114:	48 89 c7             	mov    %rax,%rdi
  402117:	e8 dc f5 ff ff       	callq  4016f8 <_ZNSaIcED1Ev@plt>
  40211c:	4c 89 e1             	mov    %r12,%rcx
  40211f:	48 63 c3             	movslq %ebx,%rax
  402122:	e9 59 02 00 00       	jmpq   402380 <_ZN6xaxaxa9AsyncSock13SocketManager9BeginRecvEiNS_6BufferENS1_8CallbackE+0x414>
  402127:	48 8d 45 df          	lea    -0x21(%rbp),%rax
  40212b:	48 89 c7             	mov    %rax,%rdi
  40212e:	e8 c5 f5 ff ff       	callq  4016f8 <_ZNSaIcED1Ev@plt>
  402133:	ba 00 00 00 00       	mov    $0x0,%edx
  402138:	be 80 5a 40 00       	mov    $0x405a80,%esi
  40213d:	48 89 df             	mov    %rbx,%rdi
  402140:	e8 f3 f5 ff ff       	callq  401738 <__cxa_throw@plt>
  402145:	0f b6 45 b0          	movzbl -0x50(%rbp),%eax
  402149:	84 c0                	test   %al,%al
  40214b:	74 64                	je     4021b1 <_ZN6xaxaxa9AsyncSock13SocketManager9BeginRecvEiNS_6BufferENS1_8CallbackE+0x245>
  40214d:	8b 45 8c             	mov    -0x74(%rbp),%eax
  402150:	83 c8 01             	or     $0x1,%eax
  402153:	89 45 8c             	mov    %eax,-0x74(%rbp)
  402156:	48 8b 85 38 ff ff ff 	mov    -0xc8(%rbp),%rax
  40215d:	48 89 85 68 ff ff ff 	mov    %rax,-0x98(%rbp)
  402164:	48 8b 85 40 ff ff ff 	mov    -0xc0(%rbp),%rax
  40216b:	48 89 85 70 ff ff ff 	mov    %rax,-0x90(%rbp)
  402172:	48 8d 85 60 ff ff ff 	lea    -0xa0(%rbp),%rax
  402179:	48 83 c0 30          	add    $0x30,%rax
  40217d:	48 3b 85 48 ff ff ff 	cmp    -0xb8(%rbp),%rax
  402184:	0f 84 18 02 00 00    	je     4023a2 <_ZN6xaxaxa9AsyncSock13SocketManager9BeginRecvEiNS_6BufferENS1_8CallbackE+0x436>
  40218a:	48 8b 85 48 ff ff ff 	mov    -0xb8(%rbp),%rax
  402191:	48 8d 95 60 ff ff ff 	lea    -0xa0(%rbp),%rdx
  402198:	48 8d 4a 30          	lea    0x30(%rdx),%rcx
  40219c:	ba 0d 00 00 00       	mov    $0xd,%edx
  4021a1:	48 89 c6             	mov    %rax,%rsi
  4021a4:	48 89 cf             	mov    %rcx,%rdi
  4021a7:	e8 bc f4 ff ff       	callq  401668 <memcpy@plt>
  4021ac:	e9 f1 01 00 00       	jmpq   4023a2 <_ZN6xaxaxa9AsyncSock13SocketManager9BeginRecvEiNS_6BufferENS1_8CallbackE+0x436>
  4021b1:	8b 45 88             	mov    -0x78(%rbp),%eax
  4021b4:	83 c8 01             	or     $0x1,%eax
  4021b7:	89 45 88             	mov    %eax,-0x78(%rbp)
  4021ba:	bf 0c 00 00 00       	mov    $0xc,%edi
  4021bf:	e8 24 f6 ff ff       	callq  4017e8 <_Znwm@plt>
  4021c4:	48 89 c2             	mov    %rax,%rdx
  4021c7:	48 89 d0             	mov    %rdx,%rax
  4021ca:	48 c7 00 00 00 00 00 	movq   $0x0,(%rax)
  4021d1:	c7 40 08 00 00 00 00 	movl   $0x0,0x8(%rax)
  4021d8:	48 89 55 c8          	mov    %rdx,-0x38(%rbp)
  4021dc:	8b 95 54 ff ff ff    	mov    -0xac(%rbp),%edx
  4021e2:	48 8b 45 c8          	mov    -0x38(%rbp),%rax
  4021e6:	89 50 04             	mov    %edx,0x4(%rax)
  4021e9:	8b 55 88             	mov    -0x78(%rbp),%edx
  4021ec:	48 8b 45 c8          	mov    -0x38(%rbp),%rax
  4021f0:	89 10                	mov    %edx,(%rax)
  4021f2:	48 8b 85 38 ff ff ff 	mov    -0xc8(%rbp),%rax
  4021f9:	48 89 85 68 ff ff ff 	mov    %rax,-0x98(%rbp)
  402200:	48 8b 85 40 ff ff ff 	mov    -0xc0(%rbp),%rax
  402207:	48 89 85 70 ff ff ff 	mov    %rax,-0x90(%rbp)
  40220e:	48 8d 85 60 ff ff ff 	lea    -0xa0(%rbp),%rax
  402215:	48 83 c0 30          	add    $0x30,%rax
  402219:	48 3b 85 48 ff ff ff 	cmp    -0xb8(%rbp),%rax
  402220:	74 22                	je     402244 <_ZN6xaxaxa9AsyncSock13SocketManager9BeginRecvEiNS_6BufferENS1_8CallbackE+0x2d8>
  402222:	48 8b 85 48 ff ff ff 	mov    -0xb8(%rbp),%rax
  402229:	48 8d 95 60 ff ff ff 	lea    -0xa0(%rbp),%rdx
  402230:	48 8d 4a 30          	lea    0x30(%rdx),%rcx
  402234:	ba 0d 00 00 00       	mov    $0xd,%edx
  402239:	48 89 c6             	mov    %rax,%rsi
  40223c:	48 89 cf             	mov    %rcx,%rdi
  40223f:	e8 24 f4 ff ff       	callq  401668 <memcpy@plt>
  402244:	8b 95 54 ff ff ff    	mov    -0xac(%rbp),%edx
  40224a:	48 8b 85 58 ff ff ff 	mov    -0xa8(%rbp),%rax
  402251:	8b 40 08             	mov    0x8(%rax),%eax
  402254:	48 8b 4d c8          	mov    -0x38(%rbp),%rcx
  402258:	be 03 00 00 00       	mov    $0x3,%esi
  40225d:	89 c7                	mov    %eax,%edi
  40225f:	e8 c4 f3 ff ff       	callq  401628 <epoll_ctl@plt>
  402264:	e9 39 01 00 00       	jmpq   4023a2 <_ZN6xaxaxa9AsyncSock13SocketManager9BeginRecvEiNS_6BufferENS1_8CallbackE+0x436>
  402269:	c6 85 60 ff ff ff 01 	movb   $0x1,-0xa0(%rbp)
  402270:	8b 85 54 ff ff ff    	mov    -0xac(%rbp),%eax
  402276:	89 85 64 ff ff ff    	mov    %eax,-0x9c(%rbp)
  40227c:	c7 45 88 01 00 00 00 	movl   $0x1,-0x78(%rbp)
  402283:	c7 45 8c 01 00 00 00 	movl   $0x1,-0x74(%rbp)
  40228a:	48 8b 85 38 ff ff ff 	mov    -0xc8(%rbp),%rax
  402291:	48 89 85 68 ff ff ff 	mov    %rax,-0x98(%rbp)
  402298:	48 8b 85 40 ff ff ff 	mov    -0xc0(%rbp),%rax
  40229f:	48 89 85 70 ff ff ff 	mov    %rax,-0x90(%rbp)
  4022a6:	48 8d 85 60 ff ff ff 	lea    -0xa0(%rbp),%rax
  4022ad:	48 83 c0 30          	add    $0x30,%rax
  4022b1:	48 3b 85 48 ff ff ff 	cmp    -0xb8(%rbp),%rax
  4022b8:	74 22                	je     4022dc <_ZN6xaxaxa9AsyncSock13SocketManager9BeginRecvEiNS_6BufferENS1_8CallbackE+0x370>
  4022ba:	48 8b 85 48 ff ff ff 	mov    -0xb8(%rbp),%rax
  4022c1:	48 8d 95 60 ff ff ff 	lea    -0xa0(%rbp),%rdx
  4022c8:	48 8d 4a 30          	lea    0x30(%rdx),%rcx
  4022cc:	ba 0d 00 00 00       	mov    $0xd,%edx
  4022d1:	48 89 c6             	mov    %rax,%rsi
  4022d4:	48 89 cf             	mov    %rcx,%rdi
  4022d7:	e8 8c f3 ff ff       	callq  401668 <memcpy@plt>
  4022dc:	c6 45 b0 00          	movb   $0x0,-0x50(%rbp)
  4022e0:	48 8b 85 58 ff ff ff 	mov    -0xa8(%rbp),%rax
  4022e7:	48 8d 50 10          	lea    0x10(%rax),%rdx
  4022eb:	48 8d 85 54 ff ff ff 	lea    -0xac(%rbp),%rax
  4022f2:	48 89 c6             	mov    %rax,%rsi
  4022f5:	48 89 d7             	mov    %rdx,%rdi
  4022f8:	e8 31 08 00 00       	callq  402b2e <_ZNSt3mapIiN6xaxaxa9AsyncSock13SocketManager8taskInfoESt4lessIiESaISt4pairIKiS3_EEEixERS7_>
  4022fd:	48 8d 95 60 ff ff ff 	lea    -0xa0(%rbp),%rdx
  402304:	48 39 c2             	cmp    %rax,%rdx
  402307:	74 17                	je     402320 <_ZN6xaxaxa9AsyncSock13SocketManager9BeginRecvEiNS_6BufferENS1_8CallbackE+0x3b4>
  402309:	48 8d 8d 60 ff ff ff 	lea    -0xa0(%rbp),%rcx
  402310:	ba 51 00 00 00       	mov    $0x51,%edx
  402315:	48 89 ce             	mov    %rcx,%rsi
  402318:	48 89 c7             	mov    %rax,%rdi
  40231b:	e8 48 f3 ff ff       	callq  401668 <memcpy@plt>
  402320:	bf 0c 00 00 00       	mov    $0xc,%edi
  402325:	e8 be f4 ff ff       	callq  4017e8 <_Znwm@plt>
  40232a:	48 89 c2             	mov    %rax,%rdx
  40232d:	48 89 d0             	mov    %rdx,%rax
  402330:	48 c7 00 00 00 00 00 	movq   $0x0,(%rax)
  402337:	c7 40 08 00 00 00 00 	movl   $0x0,0x8(%rax)
  40233e:	48 89 55 c0          	mov    %rdx,-0x40(%rbp)
  402342:	8b 95 54 ff ff ff    	mov    -0xac(%rbp),%edx
  402348:	48 8b 45 c0          	mov    -0x40(%rbp),%rax
  40234c:	89 50 04             	mov    %edx,0x4(%rax)
  40234f:	8b 55 88             	mov    -0x78(%rbp),%edx
  402352:	48 8b 45 c0          	mov    -0x40(%rbp),%rax
  402356:	89 10                	mov    %edx,(%rax)
  402358:	8b 95 54 ff ff ff    	mov    -0xac(%rbp),%edx
  40235e:	48 8b 85 58 ff ff ff 	mov    -0xa8(%rbp),%rax
  402365:	8b 40 08             	mov    0x8(%rax),%eax
  402368:	48 8b 4d c0          	mov    -0x40(%rbp),%rcx
  40236c:	be 01 00 00 00       	mov    $0x1,%esi
  402371:	89 c7                	mov    %eax,%edi
  402373:	e8 b0 f2 ff ff       	callq  401628 <epoll_ctl@plt>
  402378:	eb 28                	jmp    4023a2 <_ZN6xaxaxa9AsyncSock13SocketManager9BeginRecvEiNS_6BufferENS1_8CallbackE+0x436>
  40237a:	48 89 c1             	mov    %rax,%rcx
  40237d:	48 89 d0             	mov    %rdx,%rax
  402380:	89 c3                	mov    %eax,%ebx
  402382:	49 89 cc             	mov    %rcx,%r12
  402385:	48 8d 85 60 ff ff ff 	lea    -0xa0(%rbp),%rax
  40238c:	48 89 c7             	mov    %rax,%rdi
  40238f:	e8 68 06 00 00       	callq  4029fc <_ZN6xaxaxa9AsyncSock13SocketManager8taskInfoD1Ev>
  402394:	4c 89 e1             	mov    %r12,%rcx
  402397:	48 63 c3             	movslq %ebx,%rax
  40239a:	48 89 cf             	mov    %rcx,%rdi
  40239d:	e8 56 f4 ff ff       	callq  4017f8 <_Unwind_Resume@plt>
  4023a2:	48 8d 85 60 ff ff ff 	lea    -0xa0(%rbp),%rax
  4023a9:	48 89 c7             	mov    %rax,%rdi
  4023ac:	e8 4b 06 00 00       	callq  4029fc <_ZN6xaxaxa9AsyncSock13SocketManager8taskInfoD1Ev>
  4023b1:	48 81 c4 b8 00 00 00 	add    $0xb8,%rsp
  4023b8:	5b                   	pop    %rbx
  4023b9:	41 5c                	pop    %r12
  4023bb:	41 5d                	pop    %r13
  4023bd:	c9                   	leaveq 
  4023be:	c3                   	retq   
  4023bf:	90                   	nop

00000000004023c0 <_ZN6xaxaxa9AsyncSock13SocketManager7EndRecvEi>:
  4023c0:	55                   	push   %rbp
  4023c1:	48 89 e5             	mov    %rsp,%rbp
  4023c4:	41 54                	push   %r12
  4023c6:	53                   	push   %rbx
  4023c7:	48 83 ec 70          	sub    $0x70,%rsp
  4023cb:	48 89 7d 88          	mov    %rdi,-0x78(%rbp)
  4023cf:	89 75 84             	mov    %esi,-0x7c(%rbp)
  4023d2:	48 8b 45 88          	mov    -0x78(%rbp),%rax
  4023d6:	48 8d 50 10          	lea    0x10(%rax),%rdx
  4023da:	48 8d 45 84          	lea    -0x7c(%rbp),%rax
  4023de:	48 89 c6             	mov    %rax,%rsi
  4023e1:	48 89 d7             	mov    %rdx,%rdi
  4023e4:	e8 45 07 00 00       	callq  402b2e <_ZNSt3mapIiN6xaxaxa9AsyncSock13SocketManager8taskInfoESt4lessIiESaISt4pairIKiS3_EEEixERS7_>
  4023e9:	48 8b 10             	mov    (%rax),%rdx
  4023ec:	48 89 55 90          	mov    %rdx,-0x70(%rbp)
  4023f0:	48 8b 50 08          	mov    0x8(%rax),%rdx
  4023f4:	48 89 55 98          	mov    %rdx,-0x68(%rbp)
  4023f8:	48 8b 50 10          	mov    0x10(%rax),%rdx
  4023fc:	48 89 55 a0          	mov    %rdx,-0x60(%rbp)
  402400:	48 8b 50 18          	mov    0x18(%rax),%rdx
  402404:	48 89 55 a8          	mov    %rdx,-0x58(%rbp)
  402408:	48 8b 50 20          	mov    0x20(%rax),%rdx
  40240c:	48 89 55 b0          	mov    %rdx,-0x50(%rbp)
  402410:	48 8b 50 28          	mov    0x28(%rax),%rdx
  402414:	48 89 55 b8          	mov    %rdx,-0x48(%rbp)
  402418:	48 8b 50 30          	mov    0x30(%rax),%rdx
  40241c:	48 89 55 c0          	mov    %rdx,-0x40(%rbp)
  402420:	48 8b 50 38          	mov    0x38(%rax),%rdx
  402424:	48 89 55 c8          	mov    %rdx,-0x38(%rbp)
  402428:	48 8b 50 40          	mov    0x40(%rax),%rdx
  40242c:	48 89 55 d0          	mov    %rdx,-0x30(%rbp)
  402430:	48 8b 50 48          	mov    0x48(%rax),%rdx
  402434:	48 89 55 d8          	mov    %rdx,-0x28(%rbp)
  402438:	0f b6 40 50          	movzbl 0x50(%rax),%eax
  40243c:	88 45 e0             	mov    %al,-0x20(%rbp)
  40243f:	8b 45 c8             	mov    -0x38(%rbp),%eax
  402442:	48 63 d0             	movslq %eax,%rdx
  402445:	48 8b 5d c0          	mov    -0x40(%rbp),%rbx
  402449:	8b 45 84             	mov    -0x7c(%rbp),%eax
  40244c:	b9 00 00 00 00       	mov    $0x0,%ecx
  402451:	48 89 de             	mov    %rbx,%rsi
  402454:	89 c7                	mov    %eax,%edi
  402456:	e8 1d f1 ff ff       	callq  401578 <recv@plt>
  40245b:	89 c3                	mov    %eax,%ebx
  40245d:	48 8d 45 90          	lea    -0x70(%rbp),%rax
  402461:	48 89 c7             	mov    %rax,%rdi
  402464:	e8 93 05 00 00       	callq  4029fc <_ZN6xaxaxa9AsyncSock13SocketManager8taskInfoD1Ev>
  402469:	89 d8                	mov    %ebx,%eax
  40246b:	48 83 c4 70          	add    $0x70,%rsp
  40246f:	5b                   	pop    %rbx
  402470:	41 5c                	pop    %r12
  402472:	c9                   	leaveq 
  402473:	c3                   	retq   
  402474:	89 d3                	mov    %edx,%ebx
  402476:	49 89 c4             	mov    %rax,%r12
  402479:	48 8d 45 90          	lea    -0x70(%rbp),%rax
  40247d:	48 89 c7             	mov    %rax,%rdi
  402480:	e8 77 05 00 00       	callq  4029fc <_ZN6xaxaxa9AsyncSock13SocketManager8taskInfoD1Ev>
  402485:	4c 89 e0             	mov    %r12,%rax
  402488:	48 63 d3             	movslq %ebx,%rdx
  40248b:	48 89 c7             	mov    %rax,%rdi
  40248e:	e8 65 f3 ff ff       	callq  4017f8 <_Unwind_Resume@plt>
  402493:	90                   	nop

0000000000402494 <_ZN6xaxaxa9AsyncSock13SocketManager7EndSendEi>:
  402494:	55                   	push   %rbp
  402495:	48 89 e5             	mov    %rsp,%rbp
  402498:	41 54                	push   %r12
  40249a:	53                   	push   %rbx
  40249b:	48 83 ec 70          	sub    $0x70,%rsp
  40249f:	48 89 7d 88          	mov    %rdi,-0x78(%rbp)
  4024a3:	89 75 84             	mov    %esi,-0x7c(%rbp)
  4024a6:	48 8b 45 88          	mov    -0x78(%rbp),%rax
  4024aa:	48 8d 50 10          	lea    0x10(%rax),%rdx
  4024ae:	48 8d 45 84          	lea    -0x7c(%rbp),%rax
  4024b2:	48 89 c6             	mov    %rax,%rsi
  4024b5:	48 89 d7             	mov    %rdx,%rdi
  4024b8:	e8 71 06 00 00       	callq  402b2e <_ZNSt3mapIiN6xaxaxa9AsyncSock13SocketManager8taskInfoESt4lessIiESaISt4pairIKiS3_EEEixERS7_>
  4024bd:	48 8b 10             	mov    (%rax),%rdx
  4024c0:	48 89 55 90          	mov    %rdx,-0x70(%rbp)
  4024c4:	48 8b 50 08          	mov    0x8(%rax),%rdx
  4024c8:	48 89 55 98          	mov    %rdx,-0x68(%rbp)
  4024cc:	48 8b 50 10          	mov    0x10(%rax),%rdx
  4024d0:	48 89 55 a0          	mov    %rdx,-0x60(%rbp)
  4024d4:	48 8b 50 18          	mov    0x18(%rax),%rdx
  4024d8:	48 89 55 a8          	mov    %rdx,-0x58(%rbp)
  4024dc:	48 8b 50 20          	mov    0x20(%rax),%rdx
  4024e0:	48 89 55 b0          	mov    %rdx,-0x50(%rbp)
  4024e4:	48 8b 50 28          	mov    0x28(%rax),%rdx
  4024e8:	48 89 55 b8          	mov    %rdx,-0x48(%rbp)
  4024ec:	48 8b 50 30          	mov    0x30(%rax),%rdx
  4024f0:	48 89 55 c0          	mov    %rdx,-0x40(%rbp)
  4024f4:	48 8b 50 38          	mov    0x38(%rax),%rdx
  4024f8:	48 89 55 c8          	mov    %rdx,-0x38(%rbp)
  4024fc:	48 8b 50 40          	mov    0x40(%rax),%rdx
  402500:	48 89 55 d0          	mov    %rdx,-0x30(%rbp)
  402504:	48 8b 50 48          	mov    0x48(%rax),%rdx
  402508:	48 89 55 d8          	mov    %rdx,-0x28(%rbp)
  40250c:	0f b6 40 50          	movzbl 0x50(%rax),%eax
  402510:	88 45 e0             	mov    %al,-0x20(%rbp)
  402513:	8b 45 d8             	mov    -0x28(%rbp),%eax
  402516:	48 63 d0             	movslq %eax,%rdx
  402519:	48 8b 5d d0          	mov    -0x30(%rbp),%rbx
  40251d:	8b 45 84             	mov    -0x7c(%rbp),%eax
  402520:	b9 00 00 00 00       	mov    $0x0,%ecx
  402525:	48 89 de             	mov    %rbx,%rsi
  402528:	89 c7                	mov    %eax,%edi
  40252a:	e8 d9 f1 ff ff       	callq  401708 <send@plt>
  40252f:	89 c3                	mov    %eax,%ebx
  402531:	48 8d 45 90          	lea    -0x70(%rbp),%rax
  402535:	48 89 c7             	mov    %rax,%rdi
  402538:	e8 bf 04 00 00       	callq  4029fc <_ZN6xaxaxa9AsyncSock13SocketManager8taskInfoD1Ev>
  40253d:	89 d8                	mov    %ebx,%eax
  40253f:	48 83 c4 70          	add    $0x70,%rsp
  402543:	5b                   	pop    %rbx
  402544:	41 5c                	pop    %r12
  402546:	c9                   	leaveq 
  402547:	c3                   	retq   
  402548:	89 d3                	mov    %edx,%ebx
  40254a:	49 89 c4             	mov    %rax,%r12
  40254d:	48 8d 45 90          	lea    -0x70(%rbp),%rax
  402551:	48 89 c7             	mov    %rax,%rdi
  402554:	e8 a3 04 00 00       	callq  4029fc <_ZN6xaxaxa9AsyncSock13SocketManager8taskInfoD1Ev>
  402559:	4c 89 e0             	mov    %r12,%rax
  40255c:	48 63 d3             	movslq %ebx,%rdx
  40255f:	48 89 c7             	mov    %rax,%rdi
  402562:	e8 91 f2 ff ff       	callq  4017f8 <_Unwind_Resume@plt>
  402567:	90                   	nop

0000000000402568 <_ZN6xaxaxa9AsyncSock13SocketManager11BeginAcceptEiNS1_8CallbackE>:
  402568:	55                   	push   %rbp
  402569:	48 89 e5             	mov    %rsp,%rbp
  40256c:	41 54                	push   %r12
  40256e:	53                   	push   %rbx
  40256f:	48 83 ec 40          	sub    $0x40,%rsp
  402573:	48 89 7d c8          	mov    %rdi,-0x38(%rbp)
  402577:	89 75 c4             	mov    %esi,-0x3c(%rbp)
  40257a:	48 89 c8             	mov    %rcx,%rax
  40257d:	48 89 55 b0          	mov    %rdx,-0x50(%rbp)
  402581:	48 89 45 b8          	mov    %rax,-0x48(%rbp)
  402585:	48 8d 45 e0          	lea    -0x20(%rbp),%rax
  402589:	b9 00 00 00 00       	mov    $0x0,%ecx
  40258e:	ba 00 00 00 00       	mov    $0x0,%edx
  402593:	be 00 00 00 00       	mov    $0x0,%esi
  402598:	48 89 c7             	mov    %rax,%rdi
  40259b:	e8 24 01 00 00       	callq  4026c4 <_ZN6xaxaxa6BufferC1EPvib>
  4025a0:	48 8b 45 e0          	mov    -0x20(%rbp),%rax
  4025a4:	48 89 45 d0          	mov    %rax,-0x30(%rbp)
  4025a8:	8b 45 e8             	mov    -0x18(%rbp),%eax
  4025ab:	89 45 d8             	mov    %eax,-0x28(%rbp)
  4025ae:	0f b6 45 ec          	movzbl -0x14(%rbp),%eax
  4025b2:	88 45 dc             	mov    %al,-0x24(%rbp)
  4025b5:	48 8b 4d b0          	mov    -0x50(%rbp),%rcx
  4025b9:	48 8b 75 b8          	mov    -0x48(%rbp),%rsi
  4025bd:	48 8d 55 d0          	lea    -0x30(%rbp),%rdx
  4025c1:	8b 5d c4             	mov    -0x3c(%rbp),%ebx
  4025c4:	48 8b 45 c8          	mov    -0x38(%rbp),%rax
  4025c8:	49 89 f0             	mov    %rsi,%r8
  4025cb:	89 de                	mov    %ebx,%esi
  4025cd:	48 89 c7             	mov    %rax,%rdi
  4025d0:	e8 97 f9 ff ff       	callq  401f6c <_ZN6xaxaxa9AsyncSock13SocketManager9BeginRecvEiNS_6BufferENS1_8CallbackE>
  4025d5:	eb 36                	jmp    40260d <_ZN6xaxaxa9AsyncSock13SocketManager11BeginAcceptEiNS1_8CallbackE+0xa5>
  4025d7:	89 d3                	mov    %edx,%ebx
  4025d9:	49 89 c4             	mov    %rax,%r12
  4025dc:	48 8d 45 d0          	lea    -0x30(%rbp),%rax
  4025e0:	48 89 c7             	mov    %rax,%rdi
  4025e3:	e8 3c 01 00 00       	callq  402724 <_ZN6xaxaxa6BufferD1Ev>
  4025e8:	4c 89 e0             	mov    %r12,%rax
  4025eb:	48 63 d3             	movslq %ebx,%rdx
  4025ee:	89 d3                	mov    %edx,%ebx
  4025f0:	49 89 c4             	mov    %rax,%r12
  4025f3:	48 8d 45 e0          	lea    -0x20(%rbp),%rax
  4025f7:	48 89 c7             	mov    %rax,%rdi
  4025fa:	e8 25 01 00 00       	callq  402724 <_ZN6xaxaxa6BufferD1Ev>
  4025ff:	4c 89 e0             	mov    %r12,%rax
  402602:	48 63 d3             	movslq %ebx,%rdx
  402605:	48 89 c7             	mov    %rax,%rdi
  402608:	e8 eb f1 ff ff       	callq  4017f8 <_Unwind_Resume@plt>
  40260d:	48 8d 45 d0          	lea    -0x30(%rbp),%rax
  402611:	48 89 c7             	mov    %rax,%rdi
  402614:	e8 0b 01 00 00       	callq  402724 <_ZN6xaxaxa6BufferD1Ev>
  402619:	48 8d 45 e0          	lea    -0x20(%rbp),%rax
  40261d:	48 89 c7             	mov    %rax,%rdi
  402620:	e8 ff 00 00 00       	callq  402724 <_ZN6xaxaxa6BufferD1Ev>
  402625:	48 83 c4 40          	add    $0x40,%rsp
  402629:	5b                   	pop    %rbx
  40262a:	41 5c                	pop    %r12
  40262c:	c9                   	leaveq 
  40262d:	c3                   	retq   

000000000040262e <_ZN6xaxaxa9AsyncSock13SocketManager9EndAcceptEi>:
  40262e:	55                   	push   %rbp
  40262f:	48 89 e5             	mov    %rsp,%rbp
  402632:	48 83 ec 10          	sub    $0x10,%rsp
  402636:	48 89 7d f8          	mov    %rdi,-0x8(%rbp)
  40263a:	89 75 f4             	mov    %esi,-0xc(%rbp)
  40263d:	8b 45 f4             	mov    -0xc(%rbp),%eax
  402640:	ba 00 00 00 00       	mov    $0x0,%edx
  402645:	be 00 00 00 00       	mov    $0x0,%esi
  40264a:	89 c7                	mov    %eax,%edi
  40264c:	e8 b7 f1 ff ff       	callq  401808 <accept@plt>
  402651:	c9                   	leaveq 
  402652:	c3                   	retq   

0000000000402653 <_Z41__static_initialization_and_destruction_0ii>:
  402653:	55                   	push   %rbp
  402654:	48 89 e5             	mov    %rsp,%rbp
  402657:	48 83 ec 10          	sub    $0x10,%rsp
  40265b:	89 7d fc             	mov    %edi,-0x4(%rbp)
  40265e:	89 75 f8             	mov    %esi,-0x8(%rbp)
  402661:	83 7d fc 01          	cmpl   $0x1,-0x4(%rbp)
  402665:	75 2a                	jne    402691 <_Z41__static_initialization_and_destruction_0ii+0x3e>
  402667:	81 7d f8 ff ff 00 00 	cmpl   $0xffff,-0x8(%rbp)
  40266e:	75 21                	jne    402691 <_Z41__static_initialization_and_destruction_0ii+0x3e>
  402670:	bf 18 84 60 00       	mov    $0x608418,%edi
  402675:	e8 ce ee ff ff       	callq  401548 <_ZNSt8ios_base4InitC1Ev@plt>
  40267a:	b8 b8 15 40 00       	mov    $0x4015b8,%eax
  40267f:	ba c8 81 60 00       	mov    $0x6081c8,%edx
  402684:	be 18 84 60 00       	mov    $0x608418,%esi
  402689:	48 89 c7             	mov    %rax,%rdi
  40268c:	e8 17 ef ff ff       	callq  4015a8 <__cxa_atexit@plt>
  402691:	c9                   	leaveq 
  402692:	c3                   	retq   

0000000000402693 <_GLOBAL__I__ZN6xaxaxa9AsyncSock13SocketManagerC2Ev>:
  402693:	55                   	push   %rbp
  402694:	48 89 e5             	mov    %rsp,%rbp
  402697:	be ff ff 00 00       	mov    $0xffff,%esi
  40269c:	bf 01 00 00 00       	mov    $0x1,%edi
  4026a1:	e8 ad ff ff ff       	callq  402653 <_Z41__static_initialization_and_destruction_0ii>
  4026a6:	c9                   	leaveq 
  4026a7:	c3                   	retq   

00000000004026a8 <_ZnwmPv>:
  4026a8:	55                   	push   %rbp
  4026a9:	48 89 e5             	mov    %rsp,%rbp
  4026ac:	48 89 7d f8          	mov    %rdi,-0x8(%rbp)
  4026b0:	48 89 75 f0          	mov    %rsi,-0x10(%rbp)
  4026b4:	48 8b 45 f0          	mov    -0x10(%rbp),%rax
  4026b8:	c9                   	leaveq 
  4026b9:	c3                   	retq   

00000000004026ba <_ZN6xaxaxa6BufferC1Ev>:
  4026ba:	55                   	push   %rbp
  4026bb:	48 89 e5             	mov    %rsp,%rbp
  4026be:	48 89 7d f8          	mov    %rdi,-0x8(%rbp)
  4026c2:	c9                   	leaveq 
  4026c3:	c3                   	retq   

00000000004026c4 <_ZN6xaxaxa6BufferC1EPvib>:
  4026c4:	55                   	push   %rbp
  4026c5:	48 89 e5             	mov    %rsp,%rbp
  4026c8:	48 89 7d f8          	mov    %rdi,-0x8(%rbp)
  4026cc:	48 89 75 f0          	mov    %rsi,-0x10(%rbp)
  4026d0:	89 55 ec             	mov    %edx,-0x14(%rbp)
  4026d3:	89 c8                	mov    %ecx,%eax
  4026d5:	88 45 e8             	mov    %al,-0x18(%rbp)
  4026d8:	48 8b 45 f8          	mov    -0x8(%rbp),%rax
  4026dc:	48 8b 55 f0          	mov    -0x10(%rbp),%rdx
  4026e0:	48 89 10             	mov    %rdx,(%rax)
  4026e3:	48 8b 45 f8          	mov    -0x8(%rbp),%rax
  4026e7:	8b 55 ec             	mov    -0x14(%rbp),%edx
  4026ea:	89 50 08             	mov    %edx,0x8(%rax)
  4026ed:	48 8b 45 f8          	mov    -0x8(%rbp),%rax
  4026f1:	0f b6 55 e8          	movzbl -0x18(%rbp),%edx
  4026f5:	88 50 0c             	mov    %dl,0xc(%rax)
  4026f8:	c9                   	leaveq 
  4026f9:	c3                   	retq   

00000000004026fa <_ZN6xaxaxa6Buffer4FreeEv>:
  4026fa:	55                   	push   %rbp
  4026fb:	48 89 e5             	mov    %rsp,%rbp
  4026fe:	48 83 ec 10          	sub    $0x10,%rsp
  402702:	48 89 7d f8          	mov    %rdi,-0x8(%rbp)
  402706:	48 8b 45 f8          	mov    -0x8(%rbp),%rax
  40270a:	48 8b 00             	mov    (%rax),%rax
  40270d:	48 85 c0             	test   %rax,%rax
  402710:	74 0f                	je     402721 <_ZN6xaxaxa6Buffer4FreeEv+0x27>
  402712:	48 8b 45 f8          	mov    -0x8(%rbp),%rax
  402716:	48 8b 00             	mov    (%rax),%rax
  402719:	48 89 c7             	mov    %rax,%rdi
  40271c:	e8 c7 ee ff ff       	callq  4015e8 <free@plt>
  402721:	c9                   	leaveq 
  402722:	c3                   	retq   
  402723:	90                   	nop

0000000000402724 <_ZN6xaxaxa6BufferD1Ev>:
  402724:	55                   	push   %rbp
  402725:	48 89 e5             	mov    %rsp,%rbp
  402728:	48 83 ec 10          	sub    $0x10,%rsp
  40272c:	48 89 7d f8          	mov    %rdi,-0x8(%rbp)
  402730:	48 8b 45 f8          	mov    -0x8(%rbp),%rax
  402734:	0f b6 40 0c          	movzbl 0xc(%rax),%eax
  402738:	84 c0                	test   %al,%al
  40273a:	74 0c                	je     402748 <_ZN6xaxaxa6BufferD1Ev+0x24>
  40273c:	48 8b 45 f8          	mov    -0x8(%rbp),%rax
  402740:	48 89 c7             	mov    %rax,%rdi
  402743:	e8 b2 ff ff ff       	callq  4026fa <_ZN6xaxaxa6Buffer4FreeEv>
  402748:	c9                   	leaveq 
  402749:	c3                   	retq   

000000000040274a <_ZN6xaxaxa6ObjectC2Ev>:
  40274a:	55                   	push   %rbp
  40274b:	48 89 e5             	mov    %rsp,%rbp
  40274e:	48 89 7d f8          	mov    %rdi,-0x8(%rbp)
  402752:	c9                   	leaveq 
  402753:	c3                   	retq   

0000000000402754 <_ZN6xaxaxa9ExceptionC1EiSs>:
  402754:	55                   	push   %rbp
  402755:	48 89 e5             	mov    %rsp,%rbp
  402758:	41 54                	push   %r12
  40275a:	53                   	push   %rbx
  40275b:	48 83 ec 20          	sub    $0x20,%rsp
  40275f:	48 89 7d e8          	mov    %rdi,-0x18(%rbp)
  402763:	89 75 e4             	mov    %esi,-0x1c(%rbp)
  402766:	48 89 55 d8          	mov    %rdx,-0x28(%rbp)
  40276a:	48 8b 45 e8          	mov    -0x18(%rbp),%rax
  40276e:	48 89 c7             	mov    %rax,%rdi
  402771:	e8 d4 ff ff ff       	callq  40274a <_ZN6xaxaxa6ObjectC2Ev>
  402776:	48 8b 45 e8          	mov    -0x18(%rbp),%rax
  40277a:	48 83 c0 08          	add    $0x8,%rax
  40277e:	48 89 c7             	mov    %rax,%rdi
  402781:	e8 32 ed ff ff       	callq  4014b8 <_ZNSsC1Ev@plt>
  402786:	48 8b 45 e8          	mov    -0x18(%rbp),%rax
  40278a:	8b 55 e4             	mov    -0x1c(%rbp),%edx
  40278d:	89 10                	mov    %edx,(%rax)
  40278f:	48 8b 45 e8          	mov    -0x18(%rbp),%rax
  402793:	48 8d 50 08          	lea    0x8(%rax),%rdx
  402797:	48 8b 45 d8          	mov    -0x28(%rbp),%rax
  40279b:	48 89 c6             	mov    %rax,%rsi
  40279e:	48 89 d7             	mov    %rdx,%rdi
  4027a1:	e8 72 f0 ff ff       	callq  401818 <_ZNSsaSERKSs@plt>
  4027a6:	be 40 59 40 00       	mov    $0x405940,%esi
  4027ab:	bf 40 82 60 00       	mov    $0x608240,%edi
  4027b0:	e8 13 ee ff ff       	callq  4015c8 <_ZStlsISt11char_traitsIcEERSt13basic_ostreamIcT_ES5_PKc@plt>
  4027b5:	48 8b 55 d8          	mov    -0x28(%rbp),%rdx
  4027b9:	48 89 d6             	mov    %rdx,%rsi
  4027bc:	48 89 c7             	mov    %rax,%rdi
  4027bf:	e8 04 ef ff ff       	callq  4016c8 <_ZStlsIcSt11char_traitsIcESaIcEERSt13basic_ostreamIT_T0_ES7_RKSbIS4_S5_T1_E@plt>
  4027c4:	be 4c 59 40 00       	mov    $0x40594c,%esi
  4027c9:	48 89 c7             	mov    %rax,%rdi
  4027cc:	e8 f7 ed ff ff       	callq  4015c8 <_ZStlsISt11char_traitsIcEERSt13basic_ostreamIcT_ES5_PKc@plt>
  4027d1:	8b 55 e4             	mov    -0x1c(%rbp),%edx
  4027d4:	89 d6                	mov    %edx,%esi
  4027d6:	48 89 c7             	mov    %rax,%rdi
  4027d9:	e8 ea ec ff ff       	callq  4014c8 <_ZNSolsEi@plt>
  4027de:	be 78 17 40 00       	mov    $0x401778,%esi
  4027e3:	48 89 c7             	mov    %rax,%rdi
  4027e6:	e8 5d ef ff ff       	callq  401748 <_ZNSolsEPFRSoS_E@plt>
  4027eb:	eb 23                	jmp    402810 <_ZN6xaxaxa9ExceptionC1EiSs+0xbc>
  4027ed:	89 d3                	mov    %edx,%ebx
  4027ef:	49 89 c4             	mov    %rax,%r12
  4027f2:	48 8b 45 e8          	mov    -0x18(%rbp),%rax
  4027f6:	48 83 c0 08          	add    $0x8,%rax
  4027fa:	48 89 c7             	mov    %rax,%rdi
  4027fd:	e8 d6 ed ff ff       	callq  4015d8 <_ZNSsD1Ev@plt>
  402802:	4c 89 e0             	mov    %r12,%rax
  402805:	48 63 d3             	movslq %ebx,%rdx
  402808:	48 89 c7             	mov    %rax,%rdi
  40280b:	e8 e8 ef ff ff       	callq  4017f8 <_Unwind_Resume@plt>
  402810:	48 83 c4 20          	add    $0x20,%rsp
  402814:	5b                   	pop    %rbx
  402815:	41 5c                	pop    %r12
  402817:	c9                   	leaveq 
  402818:	c3                   	retq   
  402819:	90                   	nop

000000000040281a <_ZN6xaxaxa9ExceptionD1Ev>:
  40281a:	55                   	push   %rbp
  40281b:	48 89 e5             	mov    %rsp,%rbp
  40281e:	48 83 ec 10          	sub    $0x10,%rsp
  402822:	48 89 7d f8          	mov    %rdi,-0x8(%rbp)
  402826:	48 8b 45 f8          	mov    -0x8(%rbp),%rax
  40282a:	48 83 c0 08          	add    $0x8,%rax
  40282e:	48 89 c7             	mov    %rax,%rdi
  402831:	e8 a2 ed ff ff       	callq  4015d8 <_ZNSsD1Ev@plt>
  402836:	c9                   	leaveq 
  402837:	c3                   	retq   

0000000000402838 <_ZN6xaxaxa9ExceptionC1Ei>:
  402838:	55                   	push   %rbp
  402839:	48 89 e5             	mov    %rsp,%rbp
  40283c:	41 54                	push   %r12
  40283e:	53                   	push   %rbx
  40283f:	48 83 ec 30          	sub    $0x30,%rsp
  402843:	48 89 7d c8          	mov    %rdi,-0x38(%rbp)
  402847:	89 75 c4             	mov    %esi,-0x3c(%rbp)
  40284a:	48 8b 45 c8          	mov    -0x38(%rbp),%rax
  40284e:	48 89 c7             	mov    %rax,%rdi
  402851:	e8 f4 fe ff ff       	callq  40274a <_ZN6xaxaxa6ObjectC2Ev>
  402856:	48 8b 45 c8          	mov    -0x38(%rbp),%rax
  40285a:	48 83 c0 08          	add    $0x8,%rax
  40285e:	48 89 c7             	mov    %rax,%rdi
  402861:	e8 52 ec ff ff       	callq  4014b8 <_ZNSsC1Ev@plt>
  402866:	48 8d 45 ef          	lea    -0x11(%rbp),%rax
  40286a:	48 89 c7             	mov    %rax,%rdi
  40286d:	e8 56 ef ff ff       	callq  4017c8 <_ZNSaIcEC1Ev@plt>
  402872:	48 8d 55 ef          	lea    -0x11(%rbp),%rdx
  402876:	48 8d 45 e0          	lea    -0x20(%rbp),%rax
  40287a:	be 00 00 00 00       	mov    $0x0,%esi
  40287f:	48 89 c7             	mov    %rax,%rdi
  402882:	e8 91 ed ff ff       	callq  401618 <_ZNSsC1EPKcRKSaIcE@plt>
  402887:	48 8d 55 e0          	lea    -0x20(%rbp),%rdx
  40288b:	8b 4d c4             	mov    -0x3c(%rbp),%ecx
  40288e:	48 8d 45 d0          	lea    -0x30(%rbp),%rax
  402892:	89 ce                	mov    %ecx,%esi
  402894:	48 89 c7             	mov    %rax,%rdi
  402897:	e8 b8 fe ff ff       	callq  402754 <_ZN6xaxaxa9ExceptionC1EiSs>
  40289c:	48 8d 45 d0          	lea    -0x30(%rbp),%rax
  4028a0:	48 89 c7             	mov    %rax,%rdi
  4028a3:	e8 72 ff ff ff       	callq  40281a <_ZN6xaxaxa9ExceptionD1Ev>
  4028a8:	eb 19                	jmp    4028c3 <_ZN6xaxaxa9ExceptionC1Ei+0x8b>
  4028aa:	89 d3                	mov    %edx,%ebx
  4028ac:	49 89 c4             	mov    %rax,%r12
  4028af:	48 8d 45 e0          	lea    -0x20(%rbp),%rax
  4028b3:	48 89 c7             	mov    %rax,%rdi
  4028b6:	e8 1d ed ff ff       	callq  4015d8 <_ZNSsD1Ev@plt>
  4028bb:	4c 89 e0             	mov    %r12,%rax
  4028be:	48 63 d3             	movslq %ebx,%rdx
  4028c1:	eb 0e                	jmp    4028d1 <_ZN6xaxaxa9ExceptionC1Ei+0x99>
  4028c3:	48 8d 45 e0          	lea    -0x20(%rbp),%rax
  4028c7:	48 89 c7             	mov    %rax,%rdi
  4028ca:	e8 09 ed ff ff       	callq  4015d8 <_ZNSsD1Ev@plt>
  4028cf:	eb 3a                	jmp    40290b <_ZN6xaxaxa9ExceptionC1Ei+0xd3>
  4028d1:	89 d3                	mov    %edx,%ebx
  4028d3:	49 89 c4             	mov    %rax,%r12
  4028d6:	48 8d 45 ef          	lea    -0x11(%rbp),%rax
  4028da:	48 89 c7             	mov    %rax,%rdi
  4028dd:	e8 16 ee ff ff       	callq  4016f8 <_ZNSaIcED1Ev@plt>
  4028e2:	4c 89 e0             	mov    %r12,%rax
  4028e5:	48 63 d3             	movslq %ebx,%rdx
  4028e8:	89 d3                	mov    %edx,%ebx
  4028ea:	49 89 c4             	mov    %rax,%r12
  4028ed:	48 8b 45 c8          	mov    -0x38(%rbp),%rax
  4028f1:	48 83 c0 08          	add    $0x8,%rax
  4028f5:	48 89 c7             	mov    %rax,%rdi
  4028f8:	e8 db ec ff ff       	callq  4015d8 <_ZNSsD1Ev@plt>
  4028fd:	4c 89 e0             	mov    %r12,%rax
  402900:	48 63 d3             	movslq %ebx,%rdx
  402903:	48 89 c7             	mov    %rax,%rdi
  402906:	e8 ed ee ff ff       	callq  4017f8 <_Unwind_Resume@plt>
  40290b:	48 8d 45 ef          	lea    -0x11(%rbp),%rax
  40290f:	48 89 c7             	mov    %rax,%rdi
  402912:	e8 e1 ed ff ff       	callq  4016f8 <_ZNSaIcED1Ev@plt>
  402917:	48 83 c4 30          	add    $0x30,%rsp
  40291b:	5b                   	pop    %rbx
  40291c:	41 5c                	pop    %r12
  40291e:	c9                   	leaveq 
  40291f:	c3                   	retq   

0000000000402920 <_ZN6xaxaxa9ExceptionC1ESs>:
  402920:	55                   	push   %rbp
  402921:	48 89 e5             	mov    %rsp,%rbp
  402924:	41 54                	push   %r12
  402926:	53                   	push   %rbx
  402927:	48 83 ec 30          	sub    $0x30,%rsp
  40292b:	48 89 7d c8          	mov    %rdi,-0x38(%rbp)
  40292f:	48 89 75 c0          	mov    %rsi,-0x40(%rbp)
  402933:	48 8b 45 c8          	mov    -0x38(%rbp),%rax
  402937:	48 89 c7             	mov    %rax,%rdi
  40293a:	e8 0b fe ff ff       	callq  40274a <_ZN6xaxaxa6ObjectC2Ev>
  40293f:	48 8b 45 c8          	mov    -0x38(%rbp),%rax
  402943:	48 83 c0 08          	add    $0x8,%rax
  402947:	48 89 c7             	mov    %rax,%rdi
  40294a:	e8 69 eb ff ff       	callq  4014b8 <_ZNSsC1Ev@plt>
  40294f:	48 8b 55 c0          	mov    -0x40(%rbp),%rdx
  402953:	48 8d 45 e0          	lea    -0x20(%rbp),%rax
  402957:	48 89 d6             	mov    %rdx,%rsi
  40295a:	48 89 c7             	mov    %rax,%rdi
  40295d:	e8 36 ec ff ff       	callq  401598 <_ZNSsC1ERKSs@plt>
  402962:	48 8d 55 e0          	lea    -0x20(%rbp),%rdx
  402966:	48 8d 45 d0          	lea    -0x30(%rbp),%rax
  40296a:	be 00 00 00 00       	mov    $0x0,%esi
  40296f:	48 89 c7             	mov    %rax,%rdi
  402972:	e8 dd fd ff ff       	callq  402754 <_ZN6xaxaxa9ExceptionC1EiSs>
  402977:	48 8d 45 d0          	lea    -0x30(%rbp),%rax
  40297b:	48 89 c7             	mov    %rax,%rdi
  40297e:	e8 97 fe ff ff       	callq  40281a <_ZN6xaxaxa9ExceptionD1Ev>
  402983:	eb 19                	jmp    40299e <_ZN6xaxaxa9ExceptionC1ESs+0x7e>
  402985:	89 d3                	mov    %edx,%ebx
  402987:	49 89 c4             	mov    %rax,%r12
  40298a:	48 8d 45 e0          	lea    -0x20(%rbp),%rax
  40298e:	48 89 c7             	mov    %rax,%rdi
  402991:	e8 42 ec ff ff       	callq  4015d8 <_ZNSsD1Ev@plt>
  402996:	4c 89 e0             	mov    %r12,%rax
  402999:	48 63 d3             	movslq %ebx,%rdx
  40299c:	eb 0e                	jmp    4029ac <_ZN6xaxaxa9ExceptionC1ESs+0x8c>
  40299e:	48 8d 45 e0          	lea    -0x20(%rbp),%rax
  4029a2:	48 89 c7             	mov    %rax,%rdi
  4029a5:	e8 2e ec ff ff       	callq  4015d8 <_ZNSsD1Ev@plt>
  4029aa:	eb 23                	jmp    4029cf <_ZN6xaxaxa9ExceptionC1ESs+0xaf>
  4029ac:	89 d3                	mov    %edx,%ebx
  4029ae:	49 89 c4             	mov    %rax,%r12
  4029b1:	48 8b 45 c8          	mov    -0x38(%rbp),%rax
  4029b5:	48 83 c0 08          	add    $0x8,%rax
  4029b9:	48 89 c7             	mov    %rax,%rdi
  4029bc:	e8 17 ec ff ff       	callq  4015d8 <_ZNSsD1Ev@plt>
  4029c1:	4c 89 e0             	mov    %r12,%rax
  4029c4:	48 63 d3             	movslq %ebx,%rdx
  4029c7:	48 89 c7             	mov    %rax,%rdi
  4029ca:	e8 29 ee ff ff       	callq  4017f8 <_Unwind_Resume@plt>
  4029cf:	48 83 c4 30          	add    $0x30,%rsp
  4029d3:	5b                   	pop    %rbx
  4029d4:	41 5c                	pop    %r12
  4029d6:	c9                   	leaveq 
  4029d7:	c3                   	retq   

00000000004029d8 <_ZN6xaxaxa9AsyncSock13SocketManager8CallbackC1Ev>:
  4029d8:	55                   	push   %rbp
  4029d9:	48 89 e5             	mov    %rsp,%rbp
  4029dc:	48 89 7d f8          	mov    %rdi,-0x8(%rbp)
  4029e0:	c9                   	leaveq 
  4029e1:	c3                   	retq   

00000000004029e2 <_ZNSt3mapIiN6xaxaxa9AsyncSock13SocketManager8taskInfoESt4lessIiESaISt4pairIKiS3_EEED1Ev>:
  4029e2:	55                   	push   %rbp
  4029e3:	48 89 e5             	mov    %rsp,%rbp
  4029e6:	48 83 ec 10          	sub    $0x10,%rsp
  4029ea:	48 89 7d f8          	mov    %rdi,-0x8(%rbp)
  4029ee:	48 8b 45 f8          	mov    -0x8(%rbp),%rax
  4029f2:	48 89 c7             	mov    %rax,%rdi
  4029f5:	e8 64 00 00 00       	callq  402a5e <_ZNSt8_Rb_treeIiSt4pairIKiN6xaxaxa9AsyncSock13SocketManager8taskInfoEESt10_Select1stIS6_ESt4lessIiESaIS6_EED1Ev>
  4029fa:	c9                   	leaveq 
  4029fb:	c3                   	retq   

00000000004029fc <_ZN6xaxaxa9AsyncSock13SocketManager8taskInfoD1Ev>:
  4029fc:	55                   	push   %rbp
  4029fd:	48 89 e5             	mov    %rsp,%rbp
  402a00:	48 83 ec 10          	sub    $0x10,%rsp
  402a04:	48 89 7d f8          	mov    %rdi,-0x8(%rbp)
  402a08:	48 8b 45 f8          	mov    -0x8(%rbp),%rax
  402a0c:	48 83 c0 40          	add    $0x40,%rax
  402a10:	48 89 c7             	mov    %rax,%rdi
  402a13:	e8 0c fd ff ff       	callq  402724 <_ZN6xaxaxa6BufferD1Ev>
  402a18:	48 8b 45 f8          	mov    -0x8(%rbp),%rax
  402a1c:	48 83 c0 30          	add    $0x30,%rax
  402a20:	48 89 c7             	mov    %rax,%rdi
  402a23:	e8 fc fc ff ff       	callq  402724 <_ZN6xaxaxa6BufferD1Ev>
  402a28:	c9                   	leaveq 
  402a29:	c3                   	retq   

0000000000402a2a <_ZNSt3mapIiN6xaxaxa9AsyncSock13SocketManager8taskInfoESt4lessIiESaISt4pairIKiS3_EEEC1Ev>:
  402a2a:	55                   	push   %rbp
  402a2b:	48 89 e5             	mov    %rsp,%rbp
  402a2e:	48 83 ec 10          	sub    $0x10,%rsp
  402a32:	48 89 7d f8          	mov    %rdi,-0x8(%rbp)
  402a36:	48 8b 45 f8          	mov    -0x8(%rbp),%rax
  402a3a:	48 89 c7             	mov    %rax,%rdi
  402a3d:	e8 8a 02 00 00       	callq  402ccc <_ZNSt8_Rb_treeIiSt4pairIKiN6xaxaxa9AsyncSock13SocketManager8taskInfoEESt10_Select1stIS6_ESt4lessIiESaIS6_EEC1Ev>
  402a42:	c9                   	leaveq 
  402a43:	c3                   	retq   

0000000000402a44 <_ZNSt8_Rb_treeIiSt4pairIKiN6xaxaxa9AsyncSock13SocketManager8taskInfoEESt10_Select1stIS6_ESt4lessIiESaIS6_EE13_Rb_tree_implISA_Lb0EED1Ev>:
  402a44:	55                   	push   %rbp
  402a45:	48 89 e5             	mov    %rsp,%rbp
  402a48:	48 83 ec 10          	sub    $0x10,%rsp
  402a4c:	48 89 7d f8          	mov    %rdi,-0x8(%rbp)
  402a50:	48 8b 45 f8          	mov    -0x8(%rbp),%rax
  402a54:	48 89 c7             	mov    %rax,%rdi
  402a57:	e8 8a 02 00 00       	callq  402ce6 <_ZNSaISt13_Rb_tree_nodeISt4pairIKiN6xaxaxa9AsyncSock13SocketManager8taskInfoEEEED2Ev>
  402a5c:	c9                   	leaveq 
  402a5d:	c3                   	retq   

0000000000402a5e <_ZNSt8_Rb_treeIiSt4pairIKiN6xaxaxa9AsyncSock13SocketManager8taskInfoEESt10_Select1stIS6_ESt4lessIiESaIS6_EED1Ev>:
  402a5e:	55                   	push   %rbp
  402a5f:	48 89 e5             	mov    %rsp,%rbp
  402a62:	41 54                	push   %r12
  402a64:	53                   	push   %rbx
  402a65:	48 83 ec 10          	sub    $0x10,%rsp
  402a69:	48 89 7d e8          	mov    %rdi,-0x18(%rbp)
  402a6d:	48 8b 45 e8          	mov    -0x18(%rbp),%rax
  402a71:	48 89 c7             	mov    %rax,%rdi
  402a74:	e8 f1 02 00 00       	callq  402d6a <_ZNSt8_Rb_treeIiSt4pairIKiN6xaxaxa9AsyncSock13SocketManager8taskInfoEESt10_Select1stIS6_ESt4lessIiESaIS6_EE8_M_beginEv>
  402a79:	48 89 c2             	mov    %rax,%rdx
  402a7c:	48 8b 45 e8          	mov    -0x18(%rbp),%rax
  402a80:	48 89 d6             	mov    %rdx,%rsi
  402a83:	48 89 c7             	mov    %rax,%rdi
  402a86:	e8 75 02 00 00       	callq  402d00 <_ZNSt8_Rb_treeIiSt4pairIKiN6xaxaxa9AsyncSock13SocketManager8taskInfoEESt10_Select1stIS6_ESt4lessIiESaIS6_EE8_M_eraseEPSt13_Rb_tree_nodeIS6_E>
  402a8b:	eb 1f                	jmp    402aac <_ZNSt8_Rb_treeIiSt4pairIKiN6xaxaxa9AsyncSock13SocketManager8taskInfoEESt10_Select1stIS6_ESt4lessIiESaIS6_EED1Ev+0x4e>
  402a8d:	89 d3                	mov    %edx,%ebx
  402a8f:	49 89 c4             	mov    %rax,%r12
  402a92:	48 8b 45 e8          	mov    -0x18(%rbp),%rax
  402a96:	48 89 c7             	mov    %rax,%rdi
  402a99:	e8 a6 ff ff ff       	callq  402a44 <_ZNSt8_Rb_treeIiSt4pairIKiN6xaxaxa9AsyncSock13SocketManager8taskInfoEESt10_Select1stIS6_ESt4lessIiESaIS6_EE13_Rb_tree_implISA_Lb0EED1Ev>
  402a9e:	4c 89 e0             	mov    %r12,%rax
  402aa1:	48 63 d3             	movslq %ebx,%rdx
  402aa4:	48 89 c7             	mov    %rax,%rdi
  402aa7:	e8 4c ed ff ff       	callq  4017f8 <_Unwind_Resume@plt>
  402aac:	48 8b 45 e8          	mov    -0x18(%rbp),%rax
  402ab0:	48 89 c7             	mov    %rax,%rdi
  402ab3:	e8 8c ff ff ff       	callq  402a44 <_ZNSt8_Rb_treeIiSt4pairIKiN6xaxaxa9AsyncSock13SocketManager8taskInfoEESt10_Select1stIS6_ESt4lessIiESaIS6_EE13_Rb_tree_implISA_Lb0EED1Ev>
  402ab8:	48 83 c4 10          	add    $0x10,%rsp
  402abc:	5b                   	pop    %rbx
  402abd:	41 5c                	pop    %r12
  402abf:	c9                   	leaveq 
  402ac0:	c3                   	retq   
  402ac1:	90                   	nop

0000000000402ac2 <_ZN6xaxaxa9AsyncSock13SocketManager8taskInfoC1Ev>:
  402ac2:	55                   	push   %rbp
  402ac3:	48 89 e5             	mov    %rsp,%rbp
  402ac6:	48 83 ec 10          	sub    $0x10,%rsp
  402aca:	48 89 7d f8          	mov    %rdi,-0x8(%rbp)
  402ace:	48 8b 45 f8          	mov    -0x8(%rbp),%rax
  402ad2:	48 83 c0 08          	add    $0x8,%rax
  402ad6:	48 89 c7             	mov    %rax,%rdi
  402ad9:	e8 fa fe ff ff       	callq  4029d8 <_ZN6xaxaxa9AsyncSock13SocketManager8CallbackC1Ev>
  402ade:	48 8b 45 f8          	mov    -0x8(%rbp),%rax
  402ae2:	48 83 c0 18          	add    $0x18,%rax
  402ae6:	48 89 c7             	mov    %rax,%rdi
  402ae9:	e8 ea fe ff ff       	callq  4029d8 <_ZN6xaxaxa9AsyncSock13SocketManager8CallbackC1Ev>
  402aee:	48 8b 45 f8          	mov    -0x8(%rbp),%rax
  402af2:	48 83 c0 30          	add    $0x30,%rax
  402af6:	48 89 c7             	mov    %rax,%rdi
  402af9:	e8 bc fb ff ff       	callq  4026ba <_ZN6xaxaxa6BufferC1Ev>
  402afe:	48 8b 45 f8          	mov    -0x8(%rbp),%rax
  402b02:	48 83 c0 40          	add    $0x40,%rax
  402b06:	48 89 c7             	mov    %rax,%rdi
  402b09:	e8 ac fb ff ff       	callq  4026ba <_ZN6xaxaxa6BufferC1Ev>
  402b0e:	c9                   	leaveq 
  402b0f:	c3                   	retq   

0000000000402b10 <_ZNSt4pairIKiN6xaxaxa9AsyncSock13SocketManager8taskInfoEED1Ev>:
  402b10:	55                   	push   %rbp
  402b11:	48 89 e5             	mov    %rsp,%rbp
  402b14:	48 83 ec 10          	sub    $0x10,%rsp
  402b18:	48 89 7d f8          	mov    %rdi,-0x8(%rbp)
  402b1c:	48 8b 45 f8          	mov    -0x8(%rbp),%rax
  402b20:	48 83 c0 08          	add    $0x8,%rax
  402b24:	48 89 c7             	mov    %rax,%rdi
  402b27:	e8 d0 fe ff ff       	callq  4029fc <_ZN6xaxaxa9AsyncSock13SocketManager8taskInfoD1Ev>
  402b2c:	c9                   	leaveq 
  402b2d:	c3                   	retq   

0000000000402b2e <_ZNSt3mapIiN6xaxaxa9AsyncSock13SocketManager8taskInfoESt4lessIiESaISt4pairIKiS3_EEEixERS7_>:
  402b2e:	55                   	push   %rbp
  402b2f:	48 89 e5             	mov    %rsp,%rbp
  402b32:	41 54                	push   %r12
  402b34:	53                   	push   %rbx
  402b35:	48 81 ec f0 00 00 00 	sub    $0xf0,%rsp
  402b3c:	48 89 bd 08 ff ff ff 	mov    %rdi,-0xf8(%rbp)
  402b43:	48 89 b5 00 ff ff ff 	mov    %rsi,-0x100(%rbp)
  402b4a:	48 8b 95 00 ff ff ff 	mov    -0x100(%rbp),%rdx
  402b51:	48 8b 85 08 ff ff ff 	mov    -0xf8(%rbp),%rax
  402b58:	48 89 d6             	mov    %rdx,%rsi
  402b5b:	48 89 c7             	mov    %rax,%rdi
  402b5e:	e8 19 02 00 00       	callq  402d7c <_ZNSt3mapIiN6xaxaxa9AsyncSock13SocketManager8taskInfoESt4lessIiESaISt4pairIKiS3_EEE11lower_boundERS7_>
  402b63:	48 89 45 e0          	mov    %rax,-0x20(%rbp)
  402b67:	48 8b 85 08 ff ff ff 	mov    -0xf8(%rbp),%rax
  402b6e:	48 89 c7             	mov    %rax,%rdi
  402b71:	e8 80 02 00 00       	callq  402df6 <_ZNSt3mapIiN6xaxaxa9AsyncSock13SocketManager8taskInfoESt4lessIiESaISt4pairIKiS3_EEE3endEv>
  402b76:	48 89 45 d0          	mov    %rax,-0x30(%rbp)
  402b7a:	48 8d 55 d0          	lea    -0x30(%rbp),%rdx
  402b7e:	48 8d 45 e0          	lea    -0x20(%rbp),%rax
  402b82:	48 89 d6             	mov    %rdx,%rsi
  402b85:	48 89 c7             	mov    %rax,%rdi
  402b88:	e8 83 02 00 00       	callq  402e10 <_ZNKSt17_Rb_tree_iteratorISt4pairIKiN6xaxaxa9AsyncSock13SocketManager8taskInfoEEEeqERKS7_>
  402b8d:	84 c0                	test   %al,%al
  402b8f:	75 3e                	jne    402bcf <_ZNSt3mapIiN6xaxaxa9AsyncSock13SocketManager8taskInfoESt4lessIiESaISt4pairIKiS3_EEEixERS7_+0xa1>
  402b91:	48 8d 45 e0          	lea    -0x20(%rbp),%rax
  402b95:	48 89 c7             	mov    %rax,%rdi
  402b98:	e8 1f 02 00 00       	callq  402dbc <_ZNKSt17_Rb_tree_iteratorISt4pairIKiN6xaxaxa9AsyncSock13SocketManager8taskInfoEEEdeEv>
  402b9d:	48 89 c3             	mov    %rax,%rbx
  402ba0:	48 8b 85 08 ff ff ff 	mov    -0xf8(%rbp),%rax
  402ba7:	48 89 c7             	mov    %rax,%rdi
  402baa:	e8 f3 01 00 00       	callq  402da2 <_ZNKSt3mapIiN6xaxaxa9AsyncSock13SocketManager8taskInfoESt4lessIiESaISt4pairIKiS3_EEE8key_compEv>
  402baf:	88 45 ef             	mov    %al,-0x11(%rbp)
  402bb2:	48 8b 8d 00 ff ff ff 	mov    -0x100(%rbp),%rcx
  402bb9:	48 8d 45 ef          	lea    -0x11(%rbp),%rax
  402bbd:	48 89 da             	mov    %rbx,%rdx
  402bc0:	48 89 ce             	mov    %rcx,%rsi
  402bc3:	48 89 c7             	mov    %rax,%rdi
  402bc6:	e8 07 02 00 00       	callq  402dd2 <_ZNKSt4lessIiEclERKiS2_>
  402bcb:	84 c0                	test   %al,%al
  402bcd:	74 07                	je     402bd6 <_ZNSt3mapIiN6xaxaxa9AsyncSock13SocketManager8taskInfoESt4lessIiESaISt4pairIKiS3_EEEixERS7_+0xa8>
  402bcf:	b8 01 00 00 00       	mov    $0x1,%eax
  402bd4:	eb 05                	jmp    402bdb <_ZNSt3mapIiN6xaxaxa9AsyncSock13SocketManager8taskInfoESt4lessIiESaISt4pairIKiS3_EEEixERS7_+0xad>
  402bd6:	b8 00 00 00 00       	mov    $0x0,%eax
  402bdb:	84 c0                	test   %al,%al
  402bdd:	0f 84 cc 00 00 00    	je     402caf <_ZNSt3mapIiN6xaxaxa9AsyncSock13SocketManager8taskInfoESt4lessIiESaISt4pairIKiS3_EEEixERS7_+0x181>
  402be3:	48 8d 95 70 ff ff ff 	lea    -0x90(%rbp),%rdx
  402bea:	b8 00 00 00 00       	mov    $0x0,%eax
  402bef:	b9 0a 00 00 00       	mov    $0xa,%ecx
  402bf4:	48 89 d7             	mov    %rdx,%rdi
  402bf7:	f3 48 ab             	rep stos %rax,%es:(%rdi)
  402bfa:	48 89 fa             	mov    %rdi,%rdx
  402bfd:	88 02                	mov    %al,(%rdx)
  402bff:	48 83 c2 01          	add    $0x1,%rdx
  402c03:	48 8d 85 70 ff ff ff 	lea    -0x90(%rbp),%rax
  402c0a:	48 89 c7             	mov    %rax,%rdi
  402c0d:	e8 b0 fe ff ff       	callq  402ac2 <_ZN6xaxaxa9AsyncSock13SocketManager8taskInfoC1Ev>
  402c12:	48 8d 95 70 ff ff ff 	lea    -0x90(%rbp),%rdx
  402c19:	48 8b 8d 00 ff ff ff 	mov    -0x100(%rbp),%rcx
  402c20:	48 8d 85 10 ff ff ff 	lea    -0xf0(%rbp),%rax
  402c27:	48 89 ce             	mov    %rcx,%rsi
  402c2a:	48 89 c7             	mov    %rax,%rdi
  402c2d:	e8 00 02 00 00       	callq  402e32 <_ZNSt4pairIKiN6xaxaxa9AsyncSock13SocketManager8taskInfoEEC1ERS0_RKS4_>
  402c32:	48 8d 95 10 ff ff ff 	lea    -0xf0(%rbp),%rdx
  402c39:	48 8b 4d e0          	mov    -0x20(%rbp),%rcx
  402c3d:	48 8b 85 08 ff ff ff 	mov    -0xf8(%rbp),%rax
  402c44:	48 89 ce             	mov    %rcx,%rsi
  402c47:	48 89 c7             	mov    %rax,%rdi
  402c4a:	e8 5f 02 00 00       	callq  402eae <_ZNSt3mapIiN6xaxaxa9AsyncSock13SocketManager8taskInfoESt4lessIiESaISt4pairIKiS3_EEE6insertESt17_Rb_tree_iteratorIS8_ERKS8_>
  402c4f:	48 89 45 e0          	mov    %rax,-0x20(%rbp)
  402c53:	48 8d 85 10 ff ff ff 	lea    -0xf0(%rbp),%rax
  402c5a:	48 89 c7             	mov    %rax,%rdi
  402c5d:	e8 ae fe ff ff       	callq  402b10 <_ZNSt4pairIKiN6xaxaxa9AsyncSock13SocketManager8taskInfoEED1Ev>
  402c62:	48 8d 85 70 ff ff ff 	lea    -0x90(%rbp),%rax
  402c69:	48 89 c7             	mov    %rax,%rdi
  402c6c:	e8 8b fd ff ff       	callq  4029fc <_ZN6xaxaxa9AsyncSock13SocketManager8taskInfoD1Ev>
  402c71:	eb 3c                	jmp    402caf <_ZNSt3mapIiN6xaxaxa9AsyncSock13SocketManager8taskInfoESt4lessIiESaISt4pairIKiS3_EEEixERS7_+0x181>
  402c73:	89 d3                	mov    %edx,%ebx
  402c75:	49 89 c4             	mov    %rax,%r12
  402c78:	48 8d 85 10 ff ff ff 	lea    -0xf0(%rbp),%rax
  402c7f:	48 89 c7             	mov    %rax,%rdi
  402c82:	e8 89 fe ff ff       	callq  402b10 <_ZNSt4pairIKiN6xaxaxa9AsyncSock13SocketManager8taskInfoEED1Ev>
  402c87:	4c 89 e0             	mov    %r12,%rax
  402c8a:	48 63 d3             	movslq %ebx,%rdx
  402c8d:	89 d3                	mov    %edx,%ebx
  402c8f:	49 89 c4             	mov    %rax,%r12
  402c92:	48 8d 85 70 ff ff ff 	lea    -0x90(%rbp),%rax
  402c99:	48 89 c7             	mov    %rax,%rdi
  402c9c:	e8 5b fd ff ff       	callq  4029fc <_ZN6xaxaxa9AsyncSock13SocketManager8taskInfoD1Ev>
  402ca1:	4c 89 e0             	mov    %r12,%rax
  402ca4:	48 63 d3             	movslq %ebx,%rdx
  402ca7:	48 89 c7             	mov    %rax,%rdi
  402caa:	e8 49 eb ff ff       	callq  4017f8 <_Unwind_Resume@plt>
  402caf:	48 8d 45 e0          	lea    -0x20(%rbp),%rax
  402cb3:	48 89 c7             	mov    %rax,%rdi
  402cb6:	e8 01 01 00 00       	callq  402dbc <_ZNKSt17_Rb_tree_iteratorISt4pairIKiN6xaxaxa9AsyncSock13SocketManager8taskInfoEEEdeEv>
  402cbb:	48 83 c0 08          	add    $0x8,%rax
  402cbf:	48 81 c4 f0 00 00 00 	add    $0xf0,%rsp
  402cc6:	5b                   	pop    %rbx
  402cc7:	41 5c                	pop    %r12
  402cc9:	c9                   	leaveq 
  402cca:	c3                   	retq   
  402ccb:	90                   	nop

0000000000402ccc <_ZNSt8_Rb_treeIiSt4pairIKiN6xaxaxa9AsyncSock13SocketManager8taskInfoEESt10_Select1stIS6_ESt4lessIiESaIS6_EEC1Ev>:
  402ccc:	55                   	push   %rbp
  402ccd:	48 89 e5             	mov    %rsp,%rbp
  402cd0:	48 83 ec 10          	sub    $0x10,%rsp
  402cd4:	48 89 7d f8          	mov    %rdi,-0x8(%rbp)
  402cd8:	48 8b 45 f8          	mov    -0x8(%rbp),%rax
  402cdc:	48 89 c7             	mov    %rax,%rdi
  402cdf:	e8 0a 02 00 00       	callq  402eee <_ZNSt8_Rb_treeIiSt4pairIKiN6xaxaxa9AsyncSock13SocketManager8taskInfoEESt10_Select1stIS6_ESt4lessIiESaIS6_EE13_Rb_tree_implISA_Lb0EEC1Ev>
  402ce4:	c9                   	leaveq 
  402ce5:	c3                   	retq   

0000000000402ce6 <_ZNSaISt13_Rb_tree_nodeISt4pairIKiN6xaxaxa9AsyncSock13SocketManager8taskInfoEEEED2Ev>:
  402ce6:	55                   	push   %rbp
  402ce7:	48 89 e5             	mov    %rsp,%rbp
  402cea:	48 83 ec 10          	sub    $0x10,%rsp
  402cee:	48 89 7d f8          	mov    %rdi,-0x8(%rbp)
  402cf2:	48 8b 45 f8          	mov    -0x8(%rbp),%rax
  402cf6:	48 89 c7             	mov    %rax,%rdi
  402cf9:	e8 52 02 00 00       	callq  402f50 <_ZN9__gnu_cxx13new_allocatorISt13_Rb_tree_nodeISt4pairIKiN6xaxaxa9AsyncSock13SocketManager8taskInfoEEEED2Ev>
  402cfe:	c9                   	leaveq 
  402cff:	c3                   	retq   

0000000000402d00 <_ZNSt8_Rb_treeIiSt4pairIKiN6xaxaxa9AsyncSock13SocketManager8taskInfoEESt10_Select1stIS6_ESt4lessIiESaIS6_EE8_M_eraseEPSt13_Rb_tree_nodeIS6_E>:
  402d00:	55                   	push   %rbp
  402d01:	48 89 e5             	mov    %rsp,%rbp
  402d04:	48 83 ec 20          	sub    $0x20,%rsp
  402d08:	48 89 7d e8          	mov    %rdi,-0x18(%rbp)
  402d0c:	48 89 75 e0          	mov    %rsi,-0x20(%rbp)
  402d10:	eb 49                	jmp    402d5b <_ZNSt8_Rb_treeIiSt4pairIKiN6xaxaxa9AsyncSock13SocketManager8taskInfoEESt10_Select1stIS6_ESt4lessIiESaIS6_EE8_M_eraseEPSt13_Rb_tree_nodeIS6_E+0x5b>
  402d12:	48 8b 45 e0          	mov    -0x20(%rbp),%rax
  402d16:	48 89 c7             	mov    %rax,%rdi
  402d19:	e8 3c 02 00 00       	callq  402f5a <_ZNSt8_Rb_treeIiSt4pairIKiN6xaxaxa9AsyncSock13SocketManager8taskInfoEESt10_Select1stIS6_ESt4lessIiESaIS6_EE8_S_rightEPSt18_Rb_tree_node_base>
  402d1e:	48 89 c2             	mov    %rax,%rdx
  402d21:	48 8b 45 e8          	mov    -0x18(%rbp),%rax
  402d25:	48 89 d6             	mov    %rdx,%rsi
  402d28:	48 89 c7             	mov    %rax,%rdi
  402d2b:	e8 d0 ff ff ff       	callq  402d00 <_ZNSt8_Rb_treeIiSt4pairIKiN6xaxaxa9AsyncSock13SocketManager8taskInfoEESt10_Select1stIS6_ESt4lessIiESaIS6_EE8_M_eraseEPSt13_Rb_tree_nodeIS6_E>
  402d30:	48 8b 45 e0          	mov    -0x20(%rbp),%rax
  402d34:	48 89 c7             	mov    %rax,%rdi
  402d37:	e8 30 02 00 00       	callq  402f6c <_ZNSt8_Rb_treeIiSt4pairIKiN6xaxaxa9AsyncSock13SocketManager8taskInfoEESt10_Select1stIS6_ESt4lessIiESaIS6_EE7_S_leftEPSt18_Rb_tree_node_base>
  402d3c:	48 89 45 f8          	mov    %rax,-0x8(%rbp)
  402d40:	48 8b 55 e0          	mov    -0x20(%rbp),%rdx
  402d44:	48 8b 45 e8          	mov    -0x18(%rbp),%rax
  402d48:	48 89 d6             	mov    %rdx,%rsi
  402d4b:	48 89 c7             	mov    %rax,%rdi
  402d4e:	e8 2b 02 00 00       	callq  402f7e <_ZNSt8_Rb_treeIiSt4pairIKiN6xaxaxa9AsyncSock13SocketManager8taskInfoEESt10_Select1stIS6_ESt4lessIiESaIS6_EE15_M_destroy_nodeEPSt13_Rb_tree_nodeIS6_E>
  402d53:	48 8b 45 f8          	mov    -0x8(%rbp),%rax
  402d57:	48 89 45 e0          	mov    %rax,-0x20(%rbp)
  402d5b:	48 83 7d e0 00       	cmpq   $0x0,-0x20(%rbp)
  402d60:	0f 95 c0             	setne  %al
  402d63:	84 c0                	test   %al,%al
  402d65:	75 ab                	jne    402d12 <_ZNSt8_Rb_treeIiSt4pairIKiN6xaxaxa9AsyncSock13SocketManager8taskInfoEESt10_Select1stIS6_ESt4lessIiESaIS6_EE8_M_eraseEPSt13_Rb_tree_nodeIS6_E+0x12>
  402d67:	c9                   	leaveq 
  402d68:	c3                   	retq   
  402d69:	90                   	nop

0000000000402d6a <_ZNSt8_Rb_treeIiSt4pairIKiN6xaxaxa9AsyncSock13SocketManager8taskInfoEESt10_Select1stIS6_ESt4lessIiESaIS6_EE8_M_beginEv>:
  402d6a:	55                   	push   %rbp
  402d6b:	48 89 e5             	mov    %rsp,%rbp
  402d6e:	48 89 7d f8          	mov    %rdi,-0x8(%rbp)
  402d72:	48 8b 45 f8          	mov    -0x8(%rbp),%rax
  402d76:	48 8b 40 10          	mov    0x10(%rax),%rax
  402d7a:	c9                   	leaveq 
  402d7b:	c3                   	retq   

0000000000402d7c <_ZNSt3mapIiN6xaxaxa9AsyncSock13SocketManager8taskInfoESt4lessIiESaISt4pairIKiS3_EEE11lower_boundERS7_>:
  402d7c:	55                   	push   %rbp
  402d7d:	48 89 e5             	mov    %rsp,%rbp
  402d80:	48 83 ec 10          	sub    $0x10,%rsp
  402d84:	48 89 7d f8          	mov    %rdi,-0x8(%rbp)
  402d88:	48 89 75 f0          	mov    %rsi,-0x10(%rbp)
  402d8c:	48 8b 45 f8          	mov    -0x8(%rbp),%rax
  402d90:	48 8b 55 f0          	mov    -0x10(%rbp),%rdx
  402d94:	48 89 d6             	mov    %rdx,%rsi
  402d97:	48 89 c7             	mov    %rax,%rdi
  402d9a:	e8 41 02 00 00       	callq  402fe0 <_ZNSt8_Rb_treeIiSt4pairIKiN6xaxaxa9AsyncSock13SocketManager8taskInfoEESt10_Select1stIS6_ESt4lessIiESaIS6_EE11lower_boundERS1_>
  402d9f:	c9                   	leaveq 
  402da0:	c3                   	retq   
  402da1:	90                   	nop

0000000000402da2 <_ZNKSt3mapIiN6xaxaxa9AsyncSock13SocketManager8taskInfoESt4lessIiESaISt4pairIKiS3_EEE8key_compEv>:
  402da2:	55                   	push   %rbp
  402da3:	48 89 e5             	mov    %rsp,%rbp
  402da6:	48 83 ec 10          	sub    $0x10,%rsp
  402daa:	48 89 7d f8          	mov    %rdi,-0x8(%rbp)
  402dae:	48 8b 45 f8          	mov    -0x8(%rbp),%rax
  402db2:	48 89 c7             	mov    %rax,%rdi
  402db5:	e8 7a 02 00 00       	callq  403034 <_ZNKSt8_Rb_treeIiSt4pairIKiN6xaxaxa9AsyncSock13SocketManager8taskInfoEESt10_Select1stIS6_ESt4lessIiESaIS6_EE8key_compEv>
  402dba:	c9                   	leaveq 
  402dbb:	c3                   	retq   

0000000000402dbc <_ZNKSt17_Rb_tree_iteratorISt4pairIKiN6xaxaxa9AsyncSock13SocketManager8taskInfoEEEdeEv>:
  402dbc:	55                   	push   %rbp
  402dbd:	48 89 e5             	mov    %rsp,%rbp
  402dc0:	48 89 7d f8          	mov    %rdi,-0x8(%rbp)
  402dc4:	48 8b 45 f8          	mov    -0x8(%rbp),%rax
  402dc8:	48 8b 00             	mov    (%rax),%rax
  402dcb:	48 83 c0 20          	add    $0x20,%rax
  402dcf:	c9                   	leaveq 
  402dd0:	c3                   	retq   
  402dd1:	90                   	nop

0000000000402dd2 <_ZNKSt4lessIiEclERKiS2_>:
  402dd2:	55                   	push   %rbp
  402dd3:	48 89 e5             	mov    %rsp,%rbp
  402dd6:	48 89 7d f8          	mov    %rdi,-0x8(%rbp)
  402dda:	48 89 75 f0          	mov    %rsi,-0x10(%rbp)
  402dde:	48 89 55 e8          	mov    %rdx,-0x18(%rbp)
  402de2:	48 8b 45 f0          	mov    -0x10(%rbp),%rax
  402de6:	8b 10                	mov    (%rax),%edx
  402de8:	48 8b 45 e8          	mov    -0x18(%rbp),%rax
  402dec:	8b 00                	mov    (%rax),%eax
  402dee:	39 c2                	cmp    %eax,%edx
  402df0:	0f 9c c0             	setl   %al
  402df3:	c9                   	leaveq 
  402df4:	c3                   	retq   
  402df5:	90                   	nop

0000000000402df6 <_ZNSt3mapIiN6xaxaxa9AsyncSock13SocketManager8taskInfoESt4lessIiESaISt4pairIKiS3_EEE3endEv>:
  402df6:	55                   	push   %rbp
  402df7:	48 89 e5             	mov    %rsp,%rbp
  402dfa:	48 83 ec 10          	sub    $0x10,%rsp
  402dfe:	48 89 7d f8          	mov    %rdi,-0x8(%rbp)
  402e02:	48 8b 45 f8          	mov    -0x8(%rbp),%rax
  402e06:	48 89 c7             	mov    %rax,%rdi
  402e09:	e8 30 02 00 00       	callq  40303e <_ZNSt8_Rb_treeIiSt4pairIKiN6xaxaxa9AsyncSock13SocketManager8taskInfoEESt10_Select1stIS6_ESt4lessIiESaIS6_EE3endEv>
  402e0e:	c9                   	leaveq 
  402e0f:	c3                   	retq   

0000000000402e10 <_ZNKSt17_Rb_tree_iteratorISt4pairIKiN6xaxaxa9AsyncSock13SocketManager8taskInfoEEEeqERKS7_>:
  402e10:	55                   	push   %rbp
  402e11:	48 89 e5             	mov    %rsp,%rbp
  402e14:	48 89 7d f8          	mov    %rdi,-0x8(%rbp)
  402e18:	48 89 75 f0          	mov    %rsi,-0x10(%rbp)
  402e1c:	48 8b 45 f8          	mov    -0x8(%rbp),%rax
  402e20:	48 8b 10             	mov    (%rax),%rdx
  402e23:	48 8b 45 f0          	mov    -0x10(%rbp),%rax
  402e27:	48 8b 00             	mov    (%rax),%rax
  402e2a:	48 39 c2             	cmp    %rax,%rdx
  402e2d:	0f 94 c0             	sete   %al
  402e30:	c9                   	leaveq 
  402e31:	c3                   	retq   

0000000000402e32 <_ZNSt4pairIKiN6xaxaxa9AsyncSock13SocketManager8taskInfoEEC1ERS0_RKS4_>:
  402e32:	55                   	push   %rbp
  402e33:	48 89 e5             	mov    %rsp,%rbp
  402e36:	48 89 7d f8          	mov    %rdi,-0x8(%rbp)
  402e3a:	48 89 75 f0          	mov    %rsi,-0x10(%rbp)
  402e3e:	48 89 55 e8          	mov    %rdx,-0x18(%rbp)
  402e42:	48 8b 45 f0          	mov    -0x10(%rbp),%rax
  402e46:	8b 10                	mov    (%rax),%edx
  402e48:	48 8b 45 f8          	mov    -0x8(%rbp),%rax
  402e4c:	89 10                	mov    %edx,(%rax)
  402e4e:	48 8b 45 f8          	mov    -0x8(%rbp),%rax
  402e52:	48 8b 55 e8          	mov    -0x18(%rbp),%rdx
  402e56:	48 8b 0a             	mov    (%rdx),%rcx
  402e59:	48 89 48 08          	mov    %rcx,0x8(%rax)
  402e5d:	48 8b 4a 08          	mov    0x8(%rdx),%rcx
  402e61:	48 89 48 10          	mov    %rcx,0x10(%rax)
  402e65:	48 8b 4a 10          	mov    0x10(%rdx),%rcx
  402e69:	48 89 48 18          	mov    %rcx,0x18(%rax)
  402e6d:	48 8b 4a 18          	mov    0x18(%rdx),%rcx
  402e71:	48 89 48 20          	mov    %rcx,0x20(%rax)
  402e75:	48 8b 4a 20          	mov    0x20(%rdx),%rcx
  402e79:	48 89 48 28          	mov    %rcx,0x28(%rax)
  402e7d:	48 8b 4a 28          	mov    0x28(%rdx),%rcx
  402e81:	48 89 48 30          	mov    %rcx,0x30(%rax)
  402e85:	48 8b 4a 30          	mov    0x30(%rdx),%rcx
  402e89:	48 89 48 38          	mov    %rcx,0x38(%rax)
  402e8d:	48 8b 4a 38          	mov    0x38(%rdx),%rcx
  402e91:	48 89 48 40          	mov    %rcx,0x40(%rax)
  402e95:	48 8b 4a 40          	mov    0x40(%rdx),%rcx
  402e99:	48 89 48 48          	mov    %rcx,0x48(%rax)
  402e9d:	48 8b 4a 48          	mov    0x48(%rdx),%rcx
  402ea1:	48 89 48 50          	mov    %rcx,0x50(%rax)
  402ea5:	0f b6 52 50          	movzbl 0x50(%rdx),%edx
  402ea9:	88 50 58             	mov    %dl,0x58(%rax)
  402eac:	c9                   	leaveq 
  402ead:	c3                   	retq   

0000000000402eae <_ZNSt3mapIiN6xaxaxa9AsyncSock13SocketManager8taskInfoESt4lessIiESaISt4pairIKiS3_EEE6insertESt17_Rb_tree_iteratorIS8_ERKS8_>:
  402eae:	55                   	push   %rbp
  402eaf:	48 89 e5             	mov    %rsp,%rbp
  402eb2:	48 83 ec 30          	sub    $0x30,%rsp
  402eb6:	48 89 7d e8          	mov    %rdi,-0x18(%rbp)
  402eba:	48 89 75 e0          	mov    %rsi,-0x20(%rbp)
  402ebe:	48 89 55 d8          	mov    %rdx,-0x28(%rbp)
  402ec2:	48 8d 55 e0          	lea    -0x20(%rbp),%rdx
  402ec6:	48 8d 45 f0          	lea    -0x10(%rbp),%rax
  402eca:	48 89 d6             	mov    %rdx,%rsi
  402ecd:	48 89 c7             	mov    %rax,%rdi
  402ed0:	e8 95 01 00 00       	callq  40306a <_ZNSt23_Rb_tree_const_iteratorISt4pairIKiN6xaxaxa9AsyncSock13SocketManager8taskInfoEEEC1ERKSt17_Rb_tree_iteratorIS6_E>
  402ed5:	48 8b 45 e8          	mov    -0x18(%rbp),%rax
  402ed9:	48 8b 55 d8          	mov    -0x28(%rbp),%rdx
  402edd:	48 8b 4d f0          	mov    -0x10(%rbp),%rcx
  402ee1:	48 89 ce             	mov    %rcx,%rsi
  402ee4:	48 89 c7             	mov    %rax,%rdi
  402ee7:	e8 9a 01 00 00       	callq  403086 <_ZNSt8_Rb_treeIiSt4pairIKiN6xaxaxa9AsyncSock13SocketManager8taskInfoEESt10_Select1stIS6_ESt4lessIiESaIS6_EE17_M_insert_unique_ESt23_Rb_tree_const_iteratorIS6_ERKS6_>
  402eec:	c9                   	leaveq 
  402eed:	c3                   	retq   

0000000000402eee <_ZNSt8_Rb_treeIiSt4pairIKiN6xaxaxa9AsyncSock13SocketManager8taskInfoEESt10_Select1stIS6_ESt4lessIiESaIS6_EE13_Rb_tree_implISA_Lb0EEC1Ev>:
  402eee:	55                   	push   %rbp
  402eef:	48 89 e5             	mov    %rsp,%rbp
  402ef2:	48 83 ec 10          	sub    $0x10,%rsp
  402ef6:	48 89 7d f8          	mov    %rdi,-0x8(%rbp)
  402efa:	48 8b 45 f8          	mov    -0x8(%rbp),%rax
  402efe:	48 89 c7             	mov    %rax,%rdi
  402f01:	e8 8a 05 00 00       	callq  403490 <_ZNSaISt13_Rb_tree_nodeISt4pairIKiN6xaxaxa9AsyncSock13SocketManager8taskInfoEEEEC2Ev>
  402f06:	48 8b 45 f8          	mov    -0x8(%rbp),%rax
  402f0a:	c7 40 08 00 00 00 00 	movl   $0x0,0x8(%rax)
  402f11:	48 8b 45 f8          	mov    -0x8(%rbp),%rax
  402f15:	48 c7 40 10 00 00 00 	movq   $0x0,0x10(%rax)
  402f1c:	00 
  402f1d:	48 8b 45 f8          	mov    -0x8(%rbp),%rax
  402f21:	48 c7 40 18 00 00 00 	movq   $0x0,0x18(%rax)
  402f28:	00 
  402f29:	48 8b 45 f8          	mov    -0x8(%rbp),%rax
  402f2d:	48 c7 40 20 00 00 00 	movq   $0x0,0x20(%rax)
  402f34:	00 
  402f35:	48 8b 45 f8          	mov    -0x8(%rbp),%rax
  402f39:	48 c7 40 28 00 00 00 	movq   $0x0,0x28(%rax)
  402f40:	00 
  402f41:	48 8b 45 f8          	mov    -0x8(%rbp),%rax
  402f45:	48 89 c7             	mov    %rax,%rdi
  402f48:	e8 5d 05 00 00       	callq  4034aa <_ZNSt8_Rb_treeIiSt4pairIKiN6xaxaxa9AsyncSock13SocketManager8taskInfoEESt10_Select1stIS6_ESt4lessIiESaIS6_EE13_Rb_tree_implISA_Lb0EE13_M_initializeEv>
  402f4d:	c9                   	leaveq 
  402f4e:	c3                   	retq   
  402f4f:	90                   	nop

0000000000402f50 <_ZN9__gnu_cxx13new_allocatorISt13_Rb_tree_nodeISt4pairIKiN6xaxaxa9AsyncSock13SocketManager8taskInfoEEEED2Ev>:
  402f50:	55                   	push   %rbp
  402f51:	48 89 e5             	mov    %rsp,%rbp
  402f54:	48 89 7d f8          	mov    %rdi,-0x8(%rbp)
  402f58:	c9                   	leaveq 
  402f59:	c3                   	retq   

0000000000402f5a <_ZNSt8_Rb_treeIiSt4pairIKiN6xaxaxa9AsyncSock13SocketManager8taskInfoEESt10_Select1stIS6_ESt4lessIiESaIS6_EE8_S_rightEPSt18_Rb_tree_node_base>:
  402f5a:	55                   	push   %rbp
  402f5b:	48 89 e5             	mov    %rsp,%rbp
  402f5e:	48 89 7d f8          	mov    %rdi,-0x8(%rbp)
  402f62:	48 8b 45 f8          	mov    -0x8(%rbp),%rax
  402f66:	48 8b 40 18          	mov    0x18(%rax),%rax
  402f6a:	c9                   	leaveq 
  402f6b:	c3                   	retq   

0000000000402f6c <_ZNSt8_Rb_treeIiSt4pairIKiN6xaxaxa9AsyncSock13SocketManager8taskInfoEESt10_Select1stIS6_ESt4lessIiESaIS6_EE7_S_leftEPSt18_Rb_tree_node_base>:
  402f6c:	55                   	push   %rbp
  402f6d:	48 89 e5             	mov    %rsp,%rbp
  402f70:	48 89 7d f8          	mov    %rdi,-0x8(%rbp)
  402f74:	48 8b 45 f8          	mov    -0x8(%rbp),%rax
  402f78:	48 8b 40 10          	mov    0x10(%rax),%rax
  402f7c:	c9                   	leaveq 
  402f7d:	c3                   	retq   

0000000000402f7e <_ZNSt8_Rb_treeIiSt4pairIKiN6xaxaxa9AsyncSock13SocketManager8taskInfoEESt10_Select1stIS6_ESt4lessIiESaIS6_EE15_M_destroy_nodeEPSt13_Rb_tree_nodeIS6_E>:
  402f7e:	55                   	push   %rbp
  402f7f:	48 89 e5             	mov    %rsp,%rbp
  402f82:	53                   	push   %rbx
  402f83:	48 83 ec 28          	sub    $0x28,%rsp
  402f87:	48 89 7d d8          	mov    %rdi,-0x28(%rbp)
  402f8b:	48 89 75 d0          	mov    %rsi,-0x30(%rbp)
  402f8f:	48 8b 45 d0          	mov    -0x30(%rbp),%rax
  402f93:	48 8d 58 20          	lea    0x20(%rax),%rbx
  402f97:	48 8d 45 ef          	lea    -0x11(%rbp),%rax
  402f9b:	48 8b 55 d8          	mov    -0x28(%rbp),%rdx
  402f9f:	48 89 d6             	mov    %rdx,%rsi
  402fa2:	48 89 c7             	mov    %rax,%rdi
  402fa5:	e8 42 05 00 00       	callq  4034ec <_ZNKSt8_Rb_treeIiSt4pairIKiN6xaxaxa9AsyncSock13SocketManager8taskInfoEESt10_Select1stIS6_ESt4lessIiESaIS6_EE13get_allocatorEv>
  402faa:	48 8d 45 ef          	lea    -0x11(%rbp),%rax
  402fae:	48 89 de             	mov    %rbx,%rsi
  402fb1:	48 89 c7             	mov    %rax,%rdi
  402fb4:	e8 89 05 00 00       	callq  403542 <_ZN9__gnu_cxx13new_allocatorISt4pairIKiN6xaxaxa9AsyncSock13SocketManager8taskInfoEEE7destroyEPS7_>
  402fb9:	48 8d 45 ef          	lea    -0x11(%rbp),%rax
  402fbd:	48 89 c7             	mov    %rax,%rdi
  402fc0:	e8 63 05 00 00       	callq  403528 <_ZNSaISt4pairIKiN6xaxaxa9AsyncSock13SocketManager8taskInfoEEED1Ev>
  402fc5:	48 8b 55 d0          	mov    -0x30(%rbp),%rdx
  402fc9:	48 8b 45 d8          	mov    -0x28(%rbp),%rax
  402fcd:	48 89 d6             	mov    %rdx,%rsi
  402fd0:	48 89 c7             	mov    %rax,%rdi
  402fd3:	e8 88 05 00 00       	callq  403560 <_ZNSt8_Rb_treeIiSt4pairIKiN6xaxaxa9AsyncSock13SocketManager8taskInfoEESt10_Select1stIS6_ESt4lessIiESaIS6_EE11_M_put_nodeEPSt13_Rb_tree_nodeIS6_E>
  402fd8:	48 83 c4 28          	add    $0x28,%rsp
  402fdc:	5b                   	pop    %rbx
  402fdd:	c9                   	leaveq 
  402fde:	c3                   	retq   
  402fdf:	90                   	nop

0000000000402fe0 <_ZNSt8_Rb_treeIiSt4pairIKiN6xaxaxa9AsyncSock13SocketManager8taskInfoEESt10_Select1stIS6_ESt4lessIiESaIS6_EE11lower_boundERS1_>:
  402fe0:	55                   	push   %rbp
  402fe1:	48 89 e5             	mov    %rsp,%rbp
  402fe4:	41 54                	push   %r12
  402fe6:	53                   	push   %rbx
  402fe7:	48 83 ec 10          	sub    $0x10,%rsp
  402feb:	48 89 7d e8          	mov    %rdi,-0x18(%rbp)
  402fef:	48 89 75 e0          	mov    %rsi,-0x20(%rbp)
  402ff3:	48 8b 45 e8          	mov    -0x18(%rbp),%rax
  402ff7:	48 89 c7             	mov    %rax,%rdi
  402ffa:	e8 8b 05 00 00       	callq  40358a <_ZNSt8_Rb_treeIiSt4pairIKiN6xaxaxa9AsyncSock13SocketManager8taskInfoEESt10_Select1stIS6_ESt4lessIiESaIS6_EE6_M_endEv>
  402fff:	49 89 c4             	mov    %rax,%r12
  403002:	48 8b 45 e8          	mov    -0x18(%rbp),%rax
  403006:	48 89 c7             	mov    %rax,%rdi
  403009:	e8 5c fd ff ff       	callq  402d6a <_ZNSt8_Rb_treeIiSt4pairIKiN6xaxaxa9AsyncSock13SocketManager8taskInfoEESt10_Select1stIS6_ESt4lessIiESaIS6_EE8_M_beginEv>
  40300e:	48 89 c3             	mov    %rax,%rbx
  403011:	48 8b 55 e0          	mov    -0x20(%rbp),%rdx
  403015:	48 8b 45 e8          	mov    -0x18(%rbp),%rax
  403019:	48 89 d1             	mov    %rdx,%rcx
  40301c:	4c 89 e2             	mov    %r12,%rdx
  40301f:	48 89 de             	mov    %rbx,%rsi
  403022:	48 89 c7             	mov    %rax,%rdi
  403025:	e8 72 05 00 00       	callq  40359c <_ZNSt8_Rb_treeIiSt4pairIKiN6xaxaxa9AsyncSock13SocketManager8taskInfoEESt10_Select1stIS6_ESt4lessIiESaIS6_EE14_M_lower_boundEPSt13_Rb_tree_nodeIS6_ESF_RS1_>
  40302a:	48 83 c4 10          	add    $0x10,%rsp
  40302e:	5b                   	pop    %rbx
  40302f:	41 5c                	pop    %r12
  403031:	c9                   	leaveq 
  403032:	c3                   	retq   
  403033:	90                   	nop

0000000000403034 <_ZNKSt8_Rb_treeIiSt4pairIKiN6xaxaxa9AsyncSock13SocketManager8taskInfoEESt10_Select1stIS6_ESt4lessIiESaIS6_EE8key_compEv>:
  403034:	55                   	push   %rbp
  403035:	48 89 e5             	mov    %rsp,%rbp
  403038:	48 89 7d f8          	mov    %rdi,-0x8(%rbp)
  40303c:	c9                   	leaveq 
  40303d:	c3                   	retq   

000000000040303e <_ZNSt8_Rb_treeIiSt4pairIKiN6xaxaxa9AsyncSock13SocketManager8taskInfoEESt10_Select1stIS6_ESt4lessIiESaIS6_EE3endEv>:
  40303e:	55                   	push   %rbp
  40303f:	48 89 e5             	mov    %rsp,%rbp
  403042:	48 83 ec 20          	sub    $0x20,%rsp
  403046:	48 89 7d e8          	mov    %rdi,-0x18(%rbp)
  40304a:	48 8b 45 e8          	mov    -0x18(%rbp),%rax
  40304e:	48 83 c0 08          	add    $0x8,%rax
  403052:	48 89 c2             	mov    %rax,%rdx
  403055:	48 8d 45 f0          	lea    -0x10(%rbp),%rax
  403059:	48 89 d6             	mov    %rdx,%rsi
  40305c:	48 89 c7             	mov    %rax,%rdi
  40305f:	e8 ca 05 00 00       	callq  40362e <_ZNSt17_Rb_tree_iteratorISt4pairIKiN6xaxaxa9AsyncSock13SocketManager8taskInfoEEEC1EPSt13_Rb_tree_nodeIS6_E>
  403064:	48 8b 45 f0          	mov    -0x10(%rbp),%rax
  403068:	c9                   	leaveq 
  403069:	c3                   	retq   

000000000040306a <_ZNSt23_Rb_tree_const_iteratorISt4pairIKiN6xaxaxa9AsyncSock13SocketManager8taskInfoEEEC1ERKSt17_Rb_tree_iteratorIS6_E>:
  40306a:	55                   	push   %rbp
  40306b:	48 89 e5             	mov    %rsp,%rbp
  40306e:	48 89 7d f8          	mov    %rdi,-0x8(%rbp)
  403072:	48 89 75 f0          	mov    %rsi,-0x10(%rbp)
  403076:	48 8b 45 f0          	mov    -0x10(%rbp),%rax
  40307a:	48 8b 10             	mov    (%rax),%rdx
  40307d:	48 8b 45 f8          	mov    -0x8(%rbp),%rax
  403081:	48 89 10             	mov    %rdx,(%rax)
  403084:	c9                   	leaveq 
  403085:	c3                   	retq   

0000000000403086 <_ZNSt8_Rb_treeIiSt4pairIKiN6xaxaxa9AsyncSock13SocketManager8taskInfoEESt10_Select1stIS6_ESt4lessIiESaIS6_EE17_M_insert_unique_ESt23_Rb_tree_const_iteratorIS6_ERKS6_>:
  403086:	55                   	push   %rbp
  403087:	48 89 e5             	mov    %rsp,%rbp
  40308a:	41 54                	push   %r12
  40308c:	53                   	push   %rbx
  40308d:	48 83 c4 80          	add    $0xffffffffffffff80,%rsp
  403091:	48 89 7d 98          	mov    %rdi,-0x68(%rbp)
  403095:	48 89 75 90          	mov    %rsi,-0x70(%rbp)
  403099:	48 89 55 88          	mov    %rdx,-0x78(%rbp)
  40309d:	48 8b 5d 90          	mov    -0x70(%rbp),%rbx
  4030a1:	48 8b 45 98          	mov    -0x68(%rbp),%rax
  4030a5:	48 89 c7             	mov    %rax,%rdi
  4030a8:	e8 dd 04 00 00       	callq  40358a <_ZNSt8_Rb_treeIiSt4pairIKiN6xaxaxa9AsyncSock13SocketManager8taskInfoEESt10_Select1stIS6_ESt4lessIiESaIS6_EE6_M_endEv>
  4030ad:	48 39 c3             	cmp    %rax,%rbx
  4030b0:	0f 94 c0             	sete   %al
  4030b3:	84 c0                	test   %al,%al
  4030b5:	0f 84 d3 00 00 00    	je     40318e <_ZNSt8_Rb_treeIiSt4pairIKiN6xaxaxa9AsyncSock13SocketManager8taskInfoEESt10_Select1stIS6_ESt4lessIiESaIS6_EE17_M_insert_unique_ESt23_Rb_tree_const_iteratorIS6_ERKS6_+0x108>
  4030bb:	48 8b 45 98          	mov    -0x68(%rbp),%rax
  4030bf:	48 89 c7             	mov    %rax,%rdi
  4030c2:	e8 d1 05 00 00       	callq  403698 <_ZNKSt8_Rb_treeIiSt4pairIKiN6xaxaxa9AsyncSock13SocketManager8taskInfoEESt10_Select1stIS6_ESt4lessIiESaIS6_EE4sizeEv>
  4030c7:	48 85 c0             	test   %rax,%rax
  4030ca:	74 4d                	je     403119 <_ZNSt8_Rb_treeIiSt4pairIKiN6xaxaxa9AsyncSock13SocketManager8taskInfoEESt10_Select1stIS6_ESt4lessIiESaIS6_EE17_M_insert_unique_ESt23_Rb_tree_const_iteratorIS6_ERKS6_+0x93>
  4030cc:	48 8b 55 88          	mov    -0x78(%rbp),%rdx
  4030d0:	48 8d 45 ef          	lea    -0x11(%rbp),%rax
  4030d4:	48 89 d6             	mov    %rdx,%rsi
  4030d7:	48 89 c7             	mov    %rax,%rdi
  4030da:	e8 a7 05 00 00       	callq  403686 <_ZNKSt10_Select1stISt4pairIKiN6xaxaxa9AsyncSock13SocketManager8taskInfoEEEclERKS6_>
  4030df:	48 89 c3             	mov    %rax,%rbx
  4030e2:	48 8b 45 98          	mov    -0x68(%rbp),%rax
  4030e6:	48 89 c7             	mov    %rax,%rdi
  4030e9:	e8 5a 05 00 00       	callq  403648 <_ZNSt8_Rb_treeIiSt4pairIKiN6xaxaxa9AsyncSock13SocketManager8taskInfoEESt10_Select1stIS6_ESt4lessIiESaIS6_EE12_M_rightmostEv>
  4030ee:	48 8b 00             	mov    (%rax),%rax
  4030f1:	48 89 c7             	mov    %rax,%rdi
  4030f4:	e8 61 05 00 00       	callq  40365a <_ZNSt8_Rb_treeIiSt4pairIKiN6xaxaxa9AsyncSock13SocketManager8taskInfoEESt10_Select1stIS6_ESt4lessIiESaIS6_EE6_S_keyEPKSt18_Rb_tree_node_base>
  4030f9:	48 89 c1             	mov    %rax,%rcx
  4030fc:	48 8b 45 98          	mov    -0x68(%rbp),%rax
  403100:	48 89 da             	mov    %rbx,%rdx
  403103:	48 89 ce             	mov    %rcx,%rsi
  403106:	48 89 c7             	mov    %rax,%rdi
  403109:	e8 c4 fc ff ff       	callq  402dd2 <_ZNKSt4lessIiEclERKiS2_>
  40310e:	84 c0                	test   %al,%al
  403110:	74 07                	je     403119 <_ZNSt8_Rb_treeIiSt4pairIKiN6xaxaxa9AsyncSock13SocketManager8taskInfoEESt10_Select1stIS6_ESt4lessIiESaIS6_EE17_M_insert_unique_ESt23_Rb_tree_const_iteratorIS6_ERKS6_+0x93>
  403112:	b8 01 00 00 00       	mov    $0x1,%eax
  403117:	eb 05                	jmp    40311e <_ZNSt8_Rb_treeIiSt4pairIKiN6xaxaxa9AsyncSock13SocketManager8taskInfoEESt10_Select1stIS6_ESt4lessIiESaIS6_EE17_M_insert_unique_ESt23_Rb_tree_const_iteratorIS6_ERKS6_+0x98>
  403119:	b8 00 00 00 00       	mov    $0x0,%eax
  40311e:	84 c0                	test   %al,%al
  403120:	74 29                	je     40314b <_ZNSt8_Rb_treeIiSt4pairIKiN6xaxaxa9AsyncSock13SocketManager8taskInfoEESt10_Select1stIS6_ESt4lessIiESaIS6_EE17_M_insert_unique_ESt23_Rb_tree_const_iteratorIS6_ERKS6_+0xc5>
  403122:	48 8b 45 98          	mov    -0x68(%rbp),%rax
  403126:	48 89 c7             	mov    %rax,%rdi
  403129:	e8 1a 05 00 00       	callq  403648 <_ZNSt8_Rb_treeIiSt4pairIKiN6xaxaxa9AsyncSock13SocketManager8taskInfoEESt10_Select1stIS6_ESt4lessIiESaIS6_EE12_M_rightmostEv>
  40312e:	48 8b 10             	mov    (%rax),%rdx
  403131:	48 8b 4d 88          	mov    -0x78(%rbp),%rcx
  403135:	48 8b 45 98          	mov    -0x68(%rbp),%rax
  403139:	be 00 00 00 00       	mov    $0x0,%esi
  40313e:	48 89 c7             	mov    %rax,%rdi
  403141:	e8 64 05 00 00       	callq  4036aa <_ZNSt8_Rb_treeIiSt4pairIKiN6xaxaxa9AsyncSock13SocketManager8taskInfoEESt10_Select1stIS6_ESt4lessIiESaIS6_EE10_M_insert_EPKSt18_Rb_tree_node_baseSF_RKS6_>
  403146:	e9 3b 03 00 00       	jmpq   403486 <_ZNSt8_Rb_treeIiSt4pairIKiN6xaxaxa9AsyncSock13SocketManager8taskInfoEESt10_Select1stIS6_ESt4lessIiESaIS6_EE17_M_insert_unique_ESt23_Rb_tree_const_iteratorIS6_ERKS6_+0x400>
  40314b:	48 8b 55 88          	mov    -0x78(%rbp),%rdx
  40314f:	48 8b 45 98          	mov    -0x68(%rbp),%rax
  403153:	48 89 d6             	mov    %rdx,%rsi
  403156:	48 89 c7             	mov    %rax,%rdi
  403159:	e8 30 06 00 00       	callq  40378e <_ZNSt8_Rb_treeIiSt4pairIKiN6xaxaxa9AsyncSock13SocketManager8taskInfoEESt10_Select1stIS6_ESt4lessIiESaIS6_EE16_M_insert_uniqueERKS6_>
  40315e:	48 89 c1             	mov    %rax,%rcx
  403161:	89 d0                	mov    %edx,%eax
  403163:	48 89 8d 70 ff ff ff 	mov    %rcx,-0x90(%rbp)
  40316a:	89 85 78 ff ff ff    	mov    %eax,-0x88(%rbp)
  403170:	48 8b 85 70 ff ff ff 	mov    -0x90(%rbp),%rax
  403177:	48 89 45 c0          	mov    %rax,-0x40(%rbp)
  40317b:	0f b6 85 78 ff ff ff 	movzbl -0x88(%rbp),%eax
  403182:	88 45 c8             	mov    %al,-0x38(%rbp)
  403185:	48 8b 45 c0          	mov    -0x40(%rbp),%rax
  403189:	e9 f8 02 00 00       	jmpq   403486 <_ZNSt8_Rb_treeIiSt4pairIKiN6xaxaxa9AsyncSock13SocketManager8taskInfoEESt10_Select1stIS6_ESt4lessIiESaIS6_EE17_M_insert_unique_ESt23_Rb_tree_const_iteratorIS6_ERKS6_+0x400>
  40318e:	48 8b 45 90          	mov    -0x70(%rbp),%rax
  403192:	48 89 c7             	mov    %rax,%rdi
  403195:	e8 c0 04 00 00       	callq  40365a <_ZNSt8_Rb_treeIiSt4pairIKiN6xaxaxa9AsyncSock13SocketManager8taskInfoEESt10_Select1stIS6_ESt4lessIiESaIS6_EE6_S_keyEPKSt18_Rb_tree_node_base>
  40319a:	48 89 c3             	mov    %rax,%rbx
  40319d:	48 8b 55 88          	mov    -0x78(%rbp),%rdx
  4031a1:	48 8d 45 ee          	lea    -0x12(%rbp),%rax
  4031a5:	48 89 d6             	mov    %rdx,%rsi
  4031a8:	48 89 c7             	mov    %rax,%rdi
  4031ab:	e8 d6 04 00 00       	callq  403686 <_ZNKSt10_Select1stISt4pairIKiN6xaxaxa9AsyncSock13SocketManager8taskInfoEEEclERKS6_>
  4031b0:	48 89 c1             	mov    %rax,%rcx
  4031b3:	48 8b 45 98          	mov    -0x68(%rbp),%rax
  4031b7:	48 89 da             	mov    %rbx,%rdx
  4031ba:	48 89 ce             	mov    %rcx,%rsi
  4031bd:	48 89 c7             	mov    %rax,%rdi
  4031c0:	e8 0d fc ff ff       	callq  402dd2 <_ZNKSt4lessIiEclERKiS2_>
  4031c5:	84 c0                	test   %al,%al
  4031c7:	0f 84 3e 01 00 00    	je     40330b <_ZNSt8_Rb_treeIiSt4pairIKiN6xaxaxa9AsyncSock13SocketManager8taskInfoEESt10_Select1stIS6_ESt4lessIiESaIS6_EE17_M_insert_unique_ESt23_Rb_tree_const_iteratorIS6_ERKS6_+0x285>
  4031cd:	48 8b 45 90          	mov    -0x70(%rbp),%rax
  4031d1:	48 89 45 e0          	mov    %rax,-0x20(%rbp)
  4031d5:	48 8b 5d 90          	mov    -0x70(%rbp),%rbx
  4031d9:	48 8b 45 98          	mov    -0x68(%rbp),%rax
  4031dd:	48 89 c7             	mov    %rax,%rdi
  4031e0:	e8 fd 07 00 00       	callq  4039e2 <_ZNSt8_Rb_treeIiSt4pairIKiN6xaxaxa9AsyncSock13SocketManager8taskInfoEESt10_Select1stIS6_ESt4lessIiESaIS6_EE11_M_leftmostEv>
  4031e5:	48 8b 00             	mov    (%rax),%rax
  4031e8:	48 39 c3             	cmp    %rax,%rbx
  4031eb:	0f 94 c0             	sete   %al
  4031ee:	84 c0                	test   %al,%al
  4031f0:	74 3c                	je     40322e <_ZNSt8_Rb_treeIiSt4pairIKiN6xaxaxa9AsyncSock13SocketManager8taskInfoEESt10_Select1stIS6_ESt4lessIiESaIS6_EE17_M_insert_unique_ESt23_Rb_tree_const_iteratorIS6_ERKS6_+0x1a8>
  4031f2:	48 8b 45 98          	mov    -0x68(%rbp),%rax
  4031f6:	48 89 c7             	mov    %rax,%rdi
  4031f9:	e8 e4 07 00 00       	callq  4039e2 <_ZNSt8_Rb_treeIiSt4pairIKiN6xaxaxa9AsyncSock13SocketManager8taskInfoEESt10_Select1stIS6_ESt4lessIiESaIS6_EE11_M_leftmostEv>
  4031fe:	4c 8b 20             	mov    (%rax),%r12
  403201:	48 8b 45 98          	mov    -0x68(%rbp),%rax
  403205:	48 89 c7             	mov    %rax,%rdi
  403208:	e8 d5 07 00 00       	callq  4039e2 <_ZNSt8_Rb_treeIiSt4pairIKiN6xaxaxa9AsyncSock13SocketManager8taskInfoEESt10_Select1stIS6_ESt4lessIiESaIS6_EE11_M_leftmostEv>
  40320d:	48 8b 18             	mov    (%rax),%rbx
  403210:	48 8b 55 88          	mov    -0x78(%rbp),%rdx
  403214:	48 8b 45 98          	mov    -0x68(%rbp),%rax
  403218:	48 89 d1             	mov    %rdx,%rcx
  40321b:	4c 89 e2             	mov    %r12,%rdx
  40321e:	48 89 de             	mov    %rbx,%rsi
  403221:	48 89 c7             	mov    %rax,%rdi
  403224:	e8 81 04 00 00       	callq  4036aa <_ZNSt8_Rb_treeIiSt4pairIKiN6xaxaxa9AsyncSock13SocketManager8taskInfoEESt10_Select1stIS6_ESt4lessIiESaIS6_EE10_M_insert_EPKSt18_Rb_tree_node_baseSF_RKS6_>
  403229:	e9 58 02 00 00       	jmpq   403486 <_ZNSt8_Rb_treeIiSt4pairIKiN6xaxaxa9AsyncSock13SocketManager8taskInfoEESt10_Select1stIS6_ESt4lessIiESaIS6_EE17_M_insert_unique_ESt23_Rb_tree_const_iteratorIS6_ERKS6_+0x400>
  40322e:	48 8b 55 88          	mov    -0x78(%rbp),%rdx
  403232:	48 8d 45 ed          	lea    -0x13(%rbp),%rax
  403236:	48 89 d6             	mov    %rdx,%rsi
  403239:	48 89 c7             	mov    %rax,%rdi
  40323c:	e8 45 04 00 00       	callq  403686 <_ZNKSt10_Select1stISt4pairIKiN6xaxaxa9AsyncSock13SocketManager8taskInfoEEEclERKS6_>
  403241:	48 89 c3             	mov    %rax,%rbx
  403244:	48 8d 45 e0          	lea    -0x20(%rbp),%rax
  403248:	48 89 c7             	mov    %rax,%rdi
  40324b:	e8 a4 07 00 00       	callq  4039f4 <_ZNSt23_Rb_tree_const_iteratorISt4pairIKiN6xaxaxa9AsyncSock13SocketManager8taskInfoEEEmmEv>
  403250:	48 8b 00             	mov    (%rax),%rax
  403253:	48 89 c7             	mov    %rax,%rdi
  403256:	e8 ff 03 00 00       	callq  40365a <_ZNSt8_Rb_treeIiSt4pairIKiN6xaxaxa9AsyncSock13SocketManager8taskInfoEESt10_Select1stIS6_ESt4lessIiESaIS6_EE6_S_keyEPKSt18_Rb_tree_node_base>
  40325b:	48 89 c1             	mov    %rax,%rcx
  40325e:	48 8b 45 98          	mov    -0x68(%rbp),%rax
  403262:	48 89 da             	mov    %rbx,%rdx
  403265:	48 89 ce             	mov    %rcx,%rsi
  403268:	48 89 c7             	mov    %rax,%rdi
  40326b:	e8 62 fb ff ff       	callq  402dd2 <_ZNKSt4lessIiEclERKiS2_>
  403270:	84 c0                	test   %al,%al
  403272:	74 54                	je     4032c8 <_ZNSt8_Rb_treeIiSt4pairIKiN6xaxaxa9AsyncSock13SocketManager8taskInfoEESt10_Select1stIS6_ESt4lessIiESaIS6_EE17_M_insert_unique_ESt23_Rb_tree_const_iteratorIS6_ERKS6_+0x242>
  403274:	48 8b 45 e0          	mov    -0x20(%rbp),%rax
  403278:	48 89 c7             	mov    %rax,%rdi
  40327b:	e8 9c 07 00 00       	callq  403a1c <_ZNSt8_Rb_treeIiSt4pairIKiN6xaxaxa9AsyncSock13SocketManager8taskInfoEESt10_Select1stIS6_ESt4lessIiESaIS6_EE8_S_rightEPKSt18_Rb_tree_node_base>
  403280:	48 85 c0             	test   %rax,%rax
  403283:	0f 94 c0             	sete   %al
  403286:	84 c0                	test   %al,%al
  403288:	74 1e                	je     4032a8 <_ZNSt8_Rb_treeIiSt4pairIKiN6xaxaxa9AsyncSock13SocketManager8taskInfoEESt10_Select1stIS6_ESt4lessIiESaIS6_EE17_M_insert_unique_ESt23_Rb_tree_const_iteratorIS6_ERKS6_+0x222>
  40328a:	48 8b 55 e0          	mov    -0x20(%rbp),%rdx
  40328e:	48 8b 4d 88          	mov    -0x78(%rbp),%rcx
  403292:	48 8b 45 98          	mov    -0x68(%rbp),%rax
  403296:	be 00 00 00 00       	mov    $0x0,%esi
  40329b:	48 89 c7             	mov    %rax,%rdi
  40329e:	e8 07 04 00 00       	callq  4036aa <_ZNSt8_Rb_treeIiSt4pairIKiN6xaxaxa9AsyncSock13SocketManager8taskInfoEESt10_Select1stIS6_ESt4lessIiESaIS6_EE10_M_insert_EPKSt18_Rb_tree_node_baseSF_RKS6_>
  4032a3:	e9 de 01 00 00       	jmpq   403486 <_ZNSt8_Rb_treeIiSt4pairIKiN6xaxaxa9AsyncSock13SocketManager8taskInfoEESt10_Select1stIS6_ESt4lessIiESaIS6_EE17_M_insert_unique_ESt23_Rb_tree_const_iteratorIS6_ERKS6_+0x400>
  4032a8:	48 8b 55 90          	mov    -0x70(%rbp),%rdx
  4032ac:	48 8b 5d 90          	mov    -0x70(%rbp),%rbx
  4032b0:	48 8b 4d 88          	mov    -0x78(%rbp),%rcx
  4032b4:	48 8b 45 98          	mov    -0x68(%rbp),%rax
  4032b8:	48 89 de             	mov    %rbx,%rsi
  4032bb:	48 89 c7             	mov    %rax,%rdi
  4032be:	e8 e7 03 00 00       	callq  4036aa <_ZNSt8_Rb_treeIiSt4pairIKiN6xaxaxa9AsyncSock13SocketManager8taskInfoEESt10_Select1stIS6_ESt4lessIiESaIS6_EE10_M_insert_EPKSt18_Rb_tree_node_baseSF_RKS6_>
  4032c3:	e9 be 01 00 00       	jmpq   403486 <_ZNSt8_Rb_treeIiSt4pairIKiN6xaxaxa9AsyncSock13SocketManager8taskInfoEESt10_Select1stIS6_ESt4lessIiESaIS6_EE17_M_insert_unique_ESt23_Rb_tree_const_iteratorIS6_ERKS6_+0x400>
  4032c8:	48 8b 55 88          	mov    -0x78(%rbp),%rdx
  4032cc:	48 8b 45 98          	mov    -0x68(%rbp),%rax
  4032d0:	48 89 d6             	mov    %rdx,%rsi
  4032d3:	48 89 c7             	mov    %rax,%rdi
  4032d6:	e8 b3 04 00 00       	callq  40378e <_ZNSt8_Rb_treeIiSt4pairIKiN6xaxaxa9AsyncSock13SocketManager8taskInfoEESt10_Select1stIS6_ESt4lessIiESaIS6_EE16_M_insert_uniqueERKS6_>
  4032db:	48 89 c1             	mov    %rax,%rcx
  4032de:	89 d0                	mov    %edx,%eax
  4032e0:	48 89 8d 70 ff ff ff 	mov    %rcx,-0x90(%rbp)
  4032e7:	89 85 78 ff ff ff    	mov    %eax,-0x88(%rbp)
  4032ed:	48 8b 85 70 ff ff ff 	mov    -0x90(%rbp),%rax
  4032f4:	48 89 45 b0          	mov    %rax,-0x50(%rbp)
  4032f8:	0f b6 85 78 ff ff ff 	movzbl -0x88(%rbp),%eax
  4032ff:	88 45 b8             	mov    %al,-0x48(%rbp)
  403302:	48 8b 45 b0          	mov    -0x50(%rbp),%rax
  403306:	e9 7b 01 00 00       	jmpq   403486 <_ZNSt8_Rb_treeIiSt4pairIKiN6xaxaxa9AsyncSock13SocketManager8taskInfoEESt10_Select1stIS6_ESt4lessIiESaIS6_EE17_M_insert_unique_ESt23_Rb_tree_const_iteratorIS6_ERKS6_+0x400>
  40330b:	48 8b 55 88          	mov    -0x78(%rbp),%rdx
  40330f:	48 8d 45 ec          	lea    -0x14(%rbp),%rax
  403313:	48 89 d6             	mov    %rdx,%rsi
  403316:	48 89 c7             	mov    %rax,%rdi
  403319:	e8 68 03 00 00       	callq  403686 <_ZNKSt10_Select1stISt4pairIKiN6xaxaxa9AsyncSock13SocketManager8taskInfoEEEclERKS6_>
  40331e:	48 89 c3             	mov    %rax,%rbx
  403321:	48 8b 45 90          	mov    -0x70(%rbp),%rax
  403325:	48 89 c7             	mov    %rax,%rdi
  403328:	e8 2d 03 00 00       	callq  40365a <_ZNSt8_Rb_treeIiSt4pairIKiN6xaxaxa9AsyncSock13SocketManager8taskInfoEESt10_Select1stIS6_ESt4lessIiESaIS6_EE6_S_keyEPKSt18_Rb_tree_node_base>
  40332d:	48 89 c1             	mov    %rax,%rcx
  403330:	48 8b 45 98          	mov    -0x68(%rbp),%rax
  403334:	48 89 da             	mov    %rbx,%rdx
  403337:	48 89 ce             	mov    %rcx,%rsi
  40333a:	48 89 c7             	mov    %rax,%rdi
  40333d:	e8 90 fa ff ff       	callq  402dd2 <_ZNKSt4lessIiEclERKiS2_>
  403342:	84 c0                	test   %al,%al
  403344:	0f 84 22 01 00 00    	je     40346c <_ZNSt8_Rb_treeIiSt4pairIKiN6xaxaxa9AsyncSock13SocketManager8taskInfoEESt10_Select1stIS6_ESt4lessIiESaIS6_EE17_M_insert_unique_ESt23_Rb_tree_const_iteratorIS6_ERKS6_+0x3e6>
  40334a:	48 8b 45 90          	mov    -0x70(%rbp),%rax
  40334e:	48 89 45 e0          	mov    %rax,-0x20(%rbp)
  403352:	48 8b 5d 90          	mov    -0x70(%rbp),%rbx
  403356:	48 8b 45 98          	mov    -0x68(%rbp),%rax
  40335a:	48 89 c7             	mov    %rax,%rdi
  40335d:	e8 e6 02 00 00       	callq  403648 <_ZNSt8_Rb_treeIiSt4pairIKiN6xaxaxa9AsyncSock13SocketManager8taskInfoEESt10_Select1stIS6_ESt4lessIiESaIS6_EE12_M_rightmostEv>
  403362:	48 8b 00             	mov    (%rax),%rax
  403365:	48 39 c3             	cmp    %rax,%rbx
  403368:	0f 94 c0             	sete   %al
  40336b:	84 c0                	test   %al,%al
  40336d:	74 29                	je     403398 <_ZNSt8_Rb_treeIiSt4pairIKiN6xaxaxa9AsyncSock13SocketManager8taskInfoEESt10_Select1stIS6_ESt4lessIiESaIS6_EE17_M_insert_unique_ESt23_Rb_tree_const_iteratorIS6_ERKS6_+0x312>
  40336f:	48 8b 45 98          	mov    -0x68(%rbp),%rax
  403373:	48 89 c7             	mov    %rax,%rdi
  403376:	e8 cd 02 00 00       	callq  403648 <_ZNSt8_Rb_treeIiSt4pairIKiN6xaxaxa9AsyncSock13SocketManager8taskInfoEESt10_Select1stIS6_ESt4lessIiESaIS6_EE12_M_rightmostEv>
  40337b:	48 8b 10             	mov    (%rax),%rdx
  40337e:	48 8b 4d 88          	mov    -0x78(%rbp),%rcx
  403382:	48 8b 45 98          	mov    -0x68(%rbp),%rax
  403386:	be 00 00 00 00       	mov    $0x0,%esi
  40338b:	48 89 c7             	mov    %rax,%rdi
  40338e:	e8 17 03 00 00       	callq  4036aa <_ZNSt8_Rb_treeIiSt4pairIKiN6xaxaxa9AsyncSock13SocketManager8taskInfoEESt10_Select1stIS6_ESt4lessIiESaIS6_EE10_M_insert_EPKSt18_Rb_tree_node_baseSF_RKS6_>
  403393:	e9 ee 00 00 00       	jmpq   403486 <_ZNSt8_Rb_treeIiSt4pairIKiN6xaxaxa9AsyncSock13SocketManager8taskInfoEESt10_Select1stIS6_ESt4lessIiESaIS6_EE17_M_insert_unique_ESt23_Rb_tree_const_iteratorIS6_ERKS6_+0x400>
  403398:	48 8d 45 e0          	lea    -0x20(%rbp),%rax
  40339c:	48 89 c7             	mov    %rax,%rdi
  40339f:	e8 8a 06 00 00       	callq  403a2e <_ZNSt23_Rb_tree_const_iteratorISt4pairIKiN6xaxaxa9AsyncSock13SocketManager8taskInfoEEEppEv>
  4033a4:	48 8b 00             	mov    (%rax),%rax
  4033a7:	48 89 c7             	mov    %rax,%rdi
  4033aa:	e8 ab 02 00 00       	callq  40365a <_ZNSt8_Rb_treeIiSt4pairIKiN6xaxaxa9AsyncSock13SocketManager8taskInfoEESt10_Select1stIS6_ESt4lessIiESaIS6_EE6_S_keyEPKSt18_Rb_tree_node_base>
  4033af:	48 89 c3             	mov    %rax,%rbx
  4033b2:	48 8b 55 88          	mov    -0x78(%rbp),%rdx
  4033b6:	48 8d 45 eb          	lea    -0x15(%rbp),%rax
  4033ba:	48 89 d6             	mov    %rdx,%rsi
  4033bd:	48 89 c7             	mov    %rax,%rdi
  4033c0:	e8 c1 02 00 00       	callq  403686 <_ZNKSt10_Select1stISt4pairIKiN6xaxaxa9AsyncSock13SocketManager8taskInfoEEEclERKS6_>
  4033c5:	48 89 c1             	mov    %rax,%rcx
  4033c8:	48 8b 45 98          	mov    -0x68(%rbp),%rax
  4033cc:	48 89 da             	mov    %rbx,%rdx
  4033cf:	48 89 ce             	mov    %rcx,%rsi
  4033d2:	48 89 c7             	mov    %rax,%rdi
  4033d5:	e8 f8 f9 ff ff       	callq  402dd2 <_ZNKSt4lessIiEclERKiS2_>
  4033da:	84 c0                	test   %al,%al
  4033dc:	74 4e                	je     40342c <_ZNSt8_Rb_treeIiSt4pairIKiN6xaxaxa9AsyncSock13SocketManager8taskInfoEESt10_Select1stIS6_ESt4lessIiESaIS6_EE17_M_insert_unique_ESt23_Rb_tree_const_iteratorIS6_ERKS6_+0x3a6>
  4033de:	48 8b 45 90          	mov    -0x70(%rbp),%rax
  4033e2:	48 89 c7             	mov    %rax,%rdi
  4033e5:	e8 32 06 00 00       	callq  403a1c <_ZNSt8_Rb_treeIiSt4pairIKiN6xaxaxa9AsyncSock13SocketManager8taskInfoEESt10_Select1stIS6_ESt4lessIiESaIS6_EE8_S_rightEPKSt18_Rb_tree_node_base>
  4033ea:	48 85 c0             	test   %rax,%rax
  4033ed:	0f 94 c0             	sete   %al
  4033f0:	84 c0                	test   %al,%al
  4033f2:	74 1b                	je     40340f <_ZNSt8_Rb_treeIiSt4pairIKiN6xaxaxa9AsyncSock13SocketManager8taskInfoEESt10_Select1stIS6_ESt4lessIiESaIS6_EE17_M_insert_unique_ESt23_Rb_tree_const_iteratorIS6_ERKS6_+0x389>
  4033f4:	48 8b 55 90          	mov    -0x70(%rbp),%rdx
  4033f8:	48 8b 4d 88          	mov    -0x78(%rbp),%rcx
  4033fc:	48 8b 45 98          	mov    -0x68(%rbp),%rax
  403400:	be 00 00 00 00       	mov    $0x0,%esi
  403405:	48 89 c7             	mov    %rax,%rdi
  403408:	e8 9d 02 00 00       	callq  4036aa <_ZNSt8_Rb_treeIiSt4pairIKiN6xaxaxa9AsyncSock13SocketManager8taskInfoEESt10_Select1stIS6_ESt4lessIiESaIS6_EE10_M_insert_EPKSt18_Rb_tree_node_baseSF_RKS6_>
  40340d:	eb 77                	jmp    403486 <_ZNSt8_Rb_treeIiSt4pairIKiN6xaxaxa9AsyncSock13SocketManager8taskInfoEESt10_Select1stIS6_ESt4lessIiESaIS6_EE17_M_insert_unique_ESt23_Rb_tree_const_iteratorIS6_ERKS6_+0x400>
  40340f:	48 8b 55 e0          	mov    -0x20(%rbp),%rdx
  403413:	48 8b 5d e0          	mov    -0x20(%rbp),%rbx
  403417:	48 8b 4d 88          	mov    -0x78(%rbp),%rcx
  40341b:	48 8b 45 98          	mov    -0x68(%rbp),%rax
  40341f:	48 89 de             	mov    %rbx,%rsi
  403422:	48 89 c7             	mov    %rax,%rdi
  403425:	e8 80 02 00 00       	callq  4036aa <_ZNSt8_Rb_treeIiSt4pairIKiN6xaxaxa9AsyncSock13SocketManager8taskInfoEESt10_Select1stIS6_ESt4lessIiESaIS6_EE10_M_insert_EPKSt18_Rb_tree_node_baseSF_RKS6_>
  40342a:	eb 5a                	jmp    403486 <_ZNSt8_Rb_treeIiSt4pairIKiN6xaxaxa9AsyncSock13SocketManager8taskInfoEESt10_Select1stIS6_ESt4lessIiESaIS6_EE17_M_insert_unique_ESt23_Rb_tree_const_iteratorIS6_ERKS6_+0x400>
  40342c:	48 8b 55 88          	mov    -0x78(%rbp),%rdx
  403430:	48 8b 45 98          	mov    -0x68(%rbp),%rax
  403434:	48 89 d6             	mov    %rdx,%rsi
  403437:	48 89 c7             	mov    %rax,%rdi
  40343a:	e8 4f 03 00 00       	callq  40378e <_ZNSt8_Rb_treeIiSt4pairIKiN6xaxaxa9AsyncSock13SocketManager8taskInfoEESt10_Select1stIS6_ESt4lessIiESaIS6_EE16_M_insert_uniqueERKS6_>
  40343f:	48 89 c1             	mov    %rax,%rcx
  403442:	89 d0                	mov    %edx,%eax
  403444:	48 89 8d 70 ff ff ff 	mov    %rcx,-0x90(%rbp)
  40344b:	89 85 78 ff ff ff    	mov    %eax,-0x88(%rbp)
  403451:	48 8b 85 70 ff ff ff 	mov    -0x90(%rbp),%rax
  403458:	48 89 45 a0          	mov    %rax,-0x60(%rbp)
  40345c:	0f b6 85 78 ff ff ff 	movzbl -0x88(%rbp),%eax
  403463:	88 45 a8             	mov    %al,-0x58(%rbp)
  403466:	48 8b 45 a0          	mov    -0x60(%rbp),%rax
  40346a:	eb 1a                	jmp    403486 <_ZNSt8_Rb_treeIiSt4pairIKiN6xaxaxa9AsyncSock13SocketManager8taskInfoEESt10_Select1stIS6_ESt4lessIiESaIS6_EE17_M_insert_unique_ESt23_Rb_tree_const_iteratorIS6_ERKS6_+0x400>
  40346c:	48 8b 45 90          	mov    -0x70(%rbp),%rax
  403470:	48 89 c2             	mov    %rax,%rdx
  403473:	48 8d 45 d0          	lea    -0x30(%rbp),%rax
  403477:	48 89 d6             	mov    %rdx,%rsi
  40347a:	48 89 c7             	mov    %rax,%rdi
  40347d:	e8 ac 01 00 00       	callq  40362e <_ZNSt17_Rb_tree_iteratorISt4pairIKiN6xaxaxa9AsyncSock13SocketManager8taskInfoEEEC1EPSt13_Rb_tree_nodeIS6_E>
  403482:	48 8b 45 d0          	mov    -0x30(%rbp),%rax
  403486:	48 83 ec 80          	sub    $0xffffffffffffff80,%rsp
  40348a:	5b                   	pop    %rbx
  40348b:	41 5c                	pop    %r12
  40348d:	c9                   	leaveq 
  40348e:	c3                   	retq   
  40348f:	90                   	nop

0000000000403490 <_ZNSaISt13_Rb_tree_nodeISt4pairIKiN6xaxaxa9AsyncSock13SocketManager8taskInfoEEEEC2Ev>:
  403490:	55                   	push   %rbp
  403491:	48 89 e5             	mov    %rsp,%rbp
  403494:	48 83 ec 10          	sub    $0x10,%rsp
  403498:	48 89 7d f8          	mov    %rdi,-0x8(%rbp)
  40349c:	48 8b 45 f8          	mov    -0x8(%rbp),%rax
  4034a0:	48 89 c7             	mov    %rax,%rdi
  4034a3:	e8 ae 05 00 00       	callq  403a56 <_ZN9__gnu_cxx13new_allocatorISt13_Rb_tree_nodeISt4pairIKiN6xaxaxa9AsyncSock13SocketManager8taskInfoEEEEC2Ev>
  4034a8:	c9                   	leaveq 
  4034a9:	c3                   	retq   

00000000004034aa <_ZNSt8_Rb_treeIiSt4pairIKiN6xaxaxa9AsyncSock13SocketManager8taskInfoEESt10_Select1stIS6_ESt4lessIiESaIS6_EE13_Rb_tree_implISA_Lb0EE13_M_initializeEv>:
  4034aa:	55                   	push   %rbp
  4034ab:	48 89 e5             	mov    %rsp,%rbp
  4034ae:	48 89 7d f8          	mov    %rdi,-0x8(%rbp)
  4034b2:	48 8b 45 f8          	mov    -0x8(%rbp),%rax
  4034b6:	c7 40 08 00 00 00 00 	movl   $0x0,0x8(%rax)
  4034bd:	48 8b 45 f8          	mov    -0x8(%rbp),%rax
  4034c1:	48 c7 40 10 00 00 00 	movq   $0x0,0x10(%rax)
  4034c8:	00 
  4034c9:	48 8b 45 f8          	mov    -0x8(%rbp),%rax
  4034cd:	48 8d 50 08          	lea    0x8(%rax),%rdx
  4034d1:	48 8b 45 f8          	mov    -0x8(%rbp),%rax
  4034d5:	48 89 50 18          	mov    %rdx,0x18(%rax)
  4034d9:	48 8b 45 f8          	mov    -0x8(%rbp),%rax
  4034dd:	48 8d 50 08          	lea    0x8(%rax),%rdx
  4034e1:	48 8b 45 f8          	mov    -0x8(%rbp),%rax
  4034e5:	48 89 50 20          	mov    %rdx,0x20(%rax)
  4034e9:	c9                   	leaveq 
  4034ea:	c3                   	retq   
  4034eb:	90                   	nop

00000000004034ec <_ZNKSt8_Rb_treeIiSt4pairIKiN6xaxaxa9AsyncSock13SocketManager8taskInfoEESt10_Select1stIS6_ESt4lessIiESaIS6_EE13get_allocatorEv>:
  4034ec:	55                   	push   %rbp
  4034ed:	48 89 e5             	mov    %rsp,%rbp
  4034f0:	41 54                	push   %r12
  4034f2:	53                   	push   %rbx
  4034f3:	48 83 ec 10          	sub    $0x10,%rsp
  4034f7:	48 89 fb             	mov    %rdi,%rbx
  4034fa:	48 89 75 e8          	mov    %rsi,-0x18(%rbp)
  4034fe:	49 89 dc             	mov    %rbx,%r12
  403501:	48 8b 45 e8          	mov    -0x18(%rbp),%rax
  403505:	48 89 c7             	mov    %rax,%rdi
  403508:	e8 53 05 00 00       	callq  403a60 <_ZNKSt8_Rb_treeIiSt4pairIKiN6xaxaxa9AsyncSock13SocketManager8taskInfoEESt10_Select1stIS6_ESt4lessIiESaIS6_EE21_M_get_Node_allocatorEv>
  40350d:	48 89 c6             	mov    %rax,%rsi
  403510:	4c 89 e7             	mov    %r12,%rdi
  403513:	e8 56 05 00 00       	callq  403a6e <_ZNSaISt4pairIKiN6xaxaxa9AsyncSock13SocketManager8taskInfoEEEC1ISt13_Rb_tree_nodeIS5_EEERKSaIT_E>
  403518:	48 89 d8             	mov    %rbx,%rax
  40351b:	48 89 d8             	mov    %rbx,%rax
  40351e:	48 83 c4 10          	add    $0x10,%rsp
  403522:	5b                   	pop    %rbx
  403523:	41 5c                	pop    %r12
  403525:	c9                   	leaveq 
  403526:	c3                   	retq   
  403527:	90                   	nop

0000000000403528 <_ZNSaISt4pairIKiN6xaxaxa9AsyncSock13SocketManager8taskInfoEEED1Ev>:
  403528:	55                   	push   %rbp
  403529:	48 89 e5             	mov    %rsp,%rbp
  40352c:	48 83 ec 10          	sub    $0x10,%rsp
  403530:	48 89 7d f8          	mov    %rdi,-0x8(%rbp)
  403534:	48 8b 45 f8          	mov    -0x8(%rbp),%rax
  403538:	48 89 c7             	mov    %rax,%rdi
  40353b:	e8 4c 05 00 00       	callq  403a8c <_ZN9__gnu_cxx13new_allocatorISt4pairIKiN6xaxaxa9AsyncSock13SocketManager8taskInfoEEED2Ev>
  403540:	c9                   	leaveq 
  403541:	c3                   	retq   

0000000000403542 <_ZN9__gnu_cxx13new_allocatorISt4pairIKiN6xaxaxa9AsyncSock13SocketManager8taskInfoEEE7destroyEPS7_>:
  403542:	55                   	push   %rbp
  403543:	48 89 e5             	mov    %rsp,%rbp
  403546:	48 83 ec 10          	sub    $0x10,%rsp
  40354a:	48 89 7d f8          	mov    %rdi,-0x8(%rbp)
  40354e:	48 89 75 f0          	mov    %rsi,-0x10(%rbp)
  403552:	48 8b 45 f0          	mov    -0x10(%rbp),%rax
  403556:	48 89 c7             	mov    %rax,%rdi
  403559:	e8 b2 f5 ff ff       	callq  402b10 <_ZNSt4pairIKiN6xaxaxa9AsyncSock13SocketManager8taskInfoEED1Ev>
  40355e:	c9                   	leaveq 
  40355f:	c3                   	retq   

0000000000403560 <_ZNSt8_Rb_treeIiSt4pairIKiN6xaxaxa9AsyncSock13SocketManager8taskInfoEESt10_Select1stIS6_ESt4lessIiESaIS6_EE11_M_put_nodeEPSt13_Rb_tree_nodeIS6_E>:
  403560:	55                   	push   %rbp
  403561:	48 89 e5             	mov    %rsp,%rbp
  403564:	48 83 ec 10          	sub    $0x10,%rsp
  403568:	48 89 7d f8          	mov    %rdi,-0x8(%rbp)
  40356c:	48 89 75 f0          	mov    %rsi,-0x10(%rbp)
  403570:	48 8b 45 f8          	mov    -0x8(%rbp),%rax
  403574:	48 8b 4d f0          	mov    -0x10(%rbp),%rcx
  403578:	ba 01 00 00 00       	mov    $0x1,%edx
  40357d:	48 89 ce             	mov    %rcx,%rsi
  403580:	48 89 c7             	mov    %rax,%rdi
  403583:	e8 0e 05 00 00       	callq  403a96 <_ZN9__gnu_cxx13new_allocatorISt13_Rb_tree_nodeISt4pairIKiN6xaxaxa9AsyncSock13SocketManager8taskInfoEEEE10deallocateEPS9_m>
  403588:	c9                   	leaveq 
  403589:	c3                   	retq   

000000000040358a <_ZNSt8_Rb_treeIiSt4pairIKiN6xaxaxa9AsyncSock13SocketManager8taskInfoEESt10_Select1stIS6_ESt4lessIiESaIS6_EE6_M_endEv>:
  40358a:	55                   	push   %rbp
  40358b:	48 89 e5             	mov    %rsp,%rbp
  40358e:	48 89 7d f8          	mov    %rdi,-0x8(%rbp)
  403592:	48 8b 45 f8          	mov    -0x8(%rbp),%rax
  403596:	48 83 c0 08          	add    $0x8,%rax
  40359a:	c9                   	leaveq 
  40359b:	c3                   	retq   

000000000040359c <_ZNSt8_Rb_treeIiSt4pairIKiN6xaxaxa9AsyncSock13SocketManager8taskInfoEESt10_Select1stIS6_ESt4lessIiESaIS6_EE14_M_lower_boundEPSt13_Rb_tree_nodeIS6_ESF_RS1_>:
  40359c:	55                   	push   %rbp
  40359d:	48 89 e5             	mov    %rsp,%rbp
  4035a0:	48 83 ec 30          	sub    $0x30,%rsp
  4035a4:	48 89 7d e8          	mov    %rdi,-0x18(%rbp)
  4035a8:	48 89 75 e0          	mov    %rsi,-0x20(%rbp)
  4035ac:	48 89 55 d8          	mov    %rdx,-0x28(%rbp)
  4035b0:	48 89 4d d0          	mov    %rcx,-0x30(%rbp)
  4035b4:	eb 53                	jmp    403609 <_ZNSt8_Rb_treeIiSt4pairIKiN6xaxaxa9AsyncSock13SocketManager8taskInfoEESt10_Select1stIS6_ESt4lessIiESaIS6_EE14_M_lower_boundEPSt13_Rb_tree_nodeIS6_ESF_RS1_+0x6d>
  4035b6:	48 8b 45 e0          	mov    -0x20(%rbp),%rax
  4035ba:	48 89 c7             	mov    %rax,%rdi
  4035bd:	e8 f6 04 00 00       	callq  403ab8 <_ZNSt8_Rb_treeIiSt4pairIKiN6xaxaxa9AsyncSock13SocketManager8taskInfoEESt10_Select1stIS6_ESt4lessIiESaIS6_EE6_S_keyEPKSt13_Rb_tree_nodeIS6_E>
  4035c2:	48 89 c1             	mov    %rax,%rcx
  4035c5:	48 8b 45 e8          	mov    -0x18(%rbp),%rax
  4035c9:	48 8b 55 d0          	mov    -0x30(%rbp),%rdx
  4035cd:	48 89 ce             	mov    %rcx,%rsi
  4035d0:	48 89 c7             	mov    %rax,%rdi
  4035d3:	e8 fa f7 ff ff       	callq  402dd2 <_ZNKSt4lessIiEclERKiS2_>
  4035d8:	83 f0 01             	xor    $0x1,%eax
  4035db:	84 c0                	test   %al,%al
  4035dd:	74 1a                	je     4035f9 <_ZNSt8_Rb_treeIiSt4pairIKiN6xaxaxa9AsyncSock13SocketManager8taskInfoEESt10_Select1stIS6_ESt4lessIiESaIS6_EE14_M_lower_boundEPSt13_Rb_tree_nodeIS6_ESF_RS1_+0x5d>
  4035df:	48 8b 45 e0          	mov    -0x20(%rbp),%rax
  4035e3:	48 89 45 d8          	mov    %rax,-0x28(%rbp)
  4035e7:	48 8b 45 e0          	mov    -0x20(%rbp),%rax
  4035eb:	48 89 c7             	mov    %rax,%rdi
  4035ee:	e8 79 f9 ff ff       	callq  402f6c <_ZNSt8_Rb_treeIiSt4pairIKiN6xaxaxa9AsyncSock13SocketManager8taskInfoEESt10_Select1stIS6_ESt4lessIiESaIS6_EE7_S_leftEPSt18_Rb_tree_node_base>
  4035f3:	48 89 45 e0          	mov    %rax,-0x20(%rbp)
  4035f7:	eb 10                	jmp    403609 <_ZNSt8_Rb_treeIiSt4pairIKiN6xaxaxa9AsyncSock13SocketManager8taskInfoEESt10_Select1stIS6_ESt4lessIiESaIS6_EE14_M_lower_boundEPSt13_Rb_tree_nodeIS6_ESF_RS1_+0x6d>
  4035f9:	48 8b 45 e0          	mov    -0x20(%rbp),%rax
  4035fd:	48 89 c7             	mov    %rax,%rdi
  403600:	e8 55 f9 ff ff       	callq  402f5a <_ZNSt8_Rb_treeIiSt4pairIKiN6xaxaxa9AsyncSock13SocketManager8taskInfoEESt10_Select1stIS6_ESt4lessIiESaIS6_EE8_S_rightEPSt18_Rb_tree_node_base>
  403605:	48 89 45 e0          	mov    %rax,-0x20(%rbp)
  403609:	48 83 7d e0 00       	cmpq   $0x0,-0x20(%rbp)
  40360e:	0f 95 c0             	setne  %al
  403611:	84 c0                	test   %al,%al
  403613:	75 a1                	jne    4035b6 <_ZNSt8_Rb_treeIiSt4pairIKiN6xaxaxa9AsyncSock13SocketManager8taskInfoEESt10_Select1stIS6_ESt4lessIiESaIS6_EE14_M_lower_boundEPSt13_Rb_tree_nodeIS6_ESF_RS1_+0x1a>
  403615:	48 8b 55 d8          	mov    -0x28(%rbp),%rdx
  403619:	48 8d 45 f0          	lea    -0x10(%rbp),%rax
  40361d:	48 89 d6             	mov    %rdx,%rsi
  403620:	48 89 c7             	mov    %rax,%rdi
  403623:	e8 06 00 00 00       	callq  40362e <_ZNSt17_Rb_tree_iteratorISt4pairIKiN6xaxaxa9AsyncSock13SocketManager8taskInfoEEEC1EPSt13_Rb_tree_nodeIS6_E>
  403628:	48 8b 45 f0          	mov    -0x10(%rbp),%rax
  40362c:	c9                   	leaveq 
  40362d:	c3                   	retq   

000000000040362e <_ZNSt17_Rb_tree_iteratorISt4pairIKiN6xaxaxa9AsyncSock13SocketManager8taskInfoEEEC1EPSt13_Rb_tree_nodeIS6_E>:
  40362e:	55                   	push   %rbp
  40362f:	48 89 e5             	mov    %rsp,%rbp
  403632:	48 89 7d f8          	mov    %rdi,-0x8(%rbp)
  403636:	48 89 75 f0          	mov    %rsi,-0x10(%rbp)
  40363a:	48 8b 55 f0          	mov    -0x10(%rbp),%rdx
  40363e:	48 8b 45 f8          	mov    -0x8(%rbp),%rax
  403642:	48 89 10             	mov    %rdx,(%rax)
  403645:	c9                   	leaveq 
  403646:	c3                   	retq   
  403647:	90                   	nop

0000000000403648 <_ZNSt8_Rb_treeIiSt4pairIKiN6xaxaxa9AsyncSock13SocketManager8taskInfoEESt10_Select1stIS6_ESt4lessIiESaIS6_EE12_M_rightmostEv>:
  403648:	55                   	push   %rbp
  403649:	48 89 e5             	mov    %rsp,%rbp
  40364c:	48 89 7d f8          	mov    %rdi,-0x8(%rbp)
  403650:	48 8b 45 f8          	mov    -0x8(%rbp),%rax
  403654:	48 83 c0 20          	add    $0x20,%rax
  403658:	c9                   	leaveq 
  403659:	c3                   	retq   

000000000040365a <_ZNSt8_Rb_treeIiSt4pairIKiN6xaxaxa9AsyncSock13SocketManager8taskInfoEESt10_Select1stIS6_ESt4lessIiESaIS6_EE6_S_keyEPKSt18_Rb_tree_node_base>:
  40365a:	55                   	push   %rbp
  40365b:	48 89 e5             	mov    %rsp,%rbp
  40365e:	48 83 ec 20          	sub    $0x20,%rsp
  403662:	48 89 7d e8          	mov    %rdi,-0x18(%rbp)
  403666:	48 8b 45 e8          	mov    -0x18(%rbp),%rax
  40366a:	48 89 c7             	mov    %rax,%rdi
  40366d:	e8 72 04 00 00       	callq  403ae4 <_ZNSt8_Rb_treeIiSt4pairIKiN6xaxaxa9AsyncSock13SocketManager8taskInfoEESt10_Select1stIS6_ESt4lessIiESaIS6_EE8_S_valueEPKSt18_Rb_tree_node_base>
  403672:	48 89 c2             	mov    %rax,%rdx
  403675:	48 8d 45 ff          	lea    -0x1(%rbp),%rax
  403679:	48 89 d6             	mov    %rdx,%rsi
  40367c:	48 89 c7             	mov    %rax,%rdi
  40367f:	e8 02 00 00 00       	callq  403686 <_ZNKSt10_Select1stISt4pairIKiN6xaxaxa9AsyncSock13SocketManager8taskInfoEEEclERKS6_>
  403684:	c9                   	leaveq 
  403685:	c3                   	retq   

0000000000403686 <_ZNKSt10_Select1stISt4pairIKiN6xaxaxa9AsyncSock13SocketManager8taskInfoEEEclERKS6_>:
  403686:	55                   	push   %rbp
  403687:	48 89 e5             	mov    %rsp,%rbp
  40368a:	48 89 7d f8          	mov    %rdi,-0x8(%rbp)
  40368e:	48 89 75 f0          	mov    %rsi,-0x10(%rbp)
  403692:	48 8b 45 f0          	mov    -0x10(%rbp),%rax
  403696:	c9                   	leaveq 
  403697:	c3                   	retq   

0000000000403698 <_ZNKSt8_Rb_treeIiSt4pairIKiN6xaxaxa9AsyncSock13SocketManager8taskInfoEESt10_Select1stIS6_ESt4lessIiESaIS6_EE4sizeEv>:
  403698:	55                   	push   %rbp
  403699:	48 89 e5             	mov    %rsp,%rbp
  40369c:	48 89 7d f8          	mov    %rdi,-0x8(%rbp)
  4036a0:	48 8b 45 f8          	mov    -0x8(%rbp),%rax
  4036a4:	48 8b 40 28          	mov    0x28(%rax),%rax
  4036a8:	c9                   	leaveq 
  4036a9:	c3                   	retq   

00000000004036aa <_ZNSt8_Rb_treeIiSt4pairIKiN6xaxaxa9AsyncSock13SocketManager8taskInfoEESt10_Select1stIS6_ESt4lessIiESaIS6_EE10_M_insert_EPKSt18_Rb_tree_node_baseSF_RKS6_>:
  4036aa:	55                   	push   %rbp
  4036ab:	48 89 e5             	mov    %rsp,%rbp
  4036ae:	53                   	push   %rbx
  4036af:	48 83 ec 48          	sub    $0x48,%rsp
  4036b3:	48 89 7d c8          	mov    %rdi,-0x38(%rbp)
  4036b7:	48 89 75 c0          	mov    %rsi,-0x40(%rbp)
  4036bb:	48 89 55 b8          	mov    %rdx,-0x48(%rbp)
  4036bf:	48 89 4d b0          	mov    %rcx,-0x50(%rbp)
  4036c3:	48 83 7d c0 00       	cmpq   $0x0,-0x40(%rbp)
  4036c8:	75 4d                	jne    403717 <_ZNSt8_Rb_treeIiSt4pairIKiN6xaxaxa9AsyncSock13SocketManager8taskInfoEESt10_Select1stIS6_ESt4lessIiESaIS6_EE10_M_insert_EPKSt18_Rb_tree_node_baseSF_RKS6_+0x6d>
  4036ca:	48 8b 45 c8          	mov    -0x38(%rbp),%rax
  4036ce:	48 89 c7             	mov    %rax,%rdi
  4036d1:	e8 b4 fe ff ff       	callq  40358a <_ZNSt8_Rb_treeIiSt4pairIKiN6xaxaxa9AsyncSock13SocketManager8taskInfoEESt10_Select1stIS6_ESt4lessIiESaIS6_EE6_M_endEv>
  4036d6:	48 3b 45 b8          	cmp    -0x48(%rbp),%rax
  4036da:	74 3b                	je     403717 <_ZNSt8_Rb_treeIiSt4pairIKiN6xaxaxa9AsyncSock13SocketManager8taskInfoEESt10_Select1stIS6_ESt4lessIiESaIS6_EE10_M_insert_EPKSt18_Rb_tree_node_baseSF_RKS6_+0x6d>
  4036dc:	48 8b 45 b8          	mov    -0x48(%rbp),%rax
  4036e0:	48 89 c7             	mov    %rax,%rdi
  4036e3:	e8 72 ff ff ff       	callq  40365a <_ZNSt8_Rb_treeIiSt4pairIKiN6xaxaxa9AsyncSock13SocketManager8taskInfoEESt10_Select1stIS6_ESt4lessIiESaIS6_EE6_S_keyEPKSt18_Rb_tree_node_base>
  4036e8:	48 89 c3             	mov    %rax,%rbx
  4036eb:	48 8b 55 b0          	mov    -0x50(%rbp),%rdx
  4036ef:	48 8d 45 ee          	lea    -0x12(%rbp),%rax
  4036f3:	48 89 d6             	mov    %rdx,%rsi
  4036f6:	48 89 c7             	mov    %rax,%rdi
  4036f9:	e8 88 ff ff ff       	callq  403686 <_ZNKSt10_Select1stISt4pairIKiN6xaxaxa9AsyncSock13SocketManager8taskInfoEEEclERKS6_>
  4036fe:	48 89 c1             	mov    %rax,%rcx
  403701:	48 8b 45 c8          	mov    -0x38(%rbp),%rax
  403705:	48 89 da             	mov    %rbx,%rdx
  403708:	48 89 ce             	mov    %rcx,%rsi
  40370b:	48 89 c7             	mov    %rax,%rdi
  40370e:	e8 bf f6 ff ff       	callq  402dd2 <_ZNKSt4lessIiEclERKiS2_>
  403713:	84 c0                	test   %al,%al
  403715:	74 07                	je     40371e <_ZNSt8_Rb_treeIiSt4pairIKiN6xaxaxa9AsyncSock13SocketManager8taskInfoEESt10_Select1stIS6_ESt4lessIiESaIS6_EE10_M_insert_EPKSt18_Rb_tree_node_baseSF_RKS6_+0x74>
  403717:	b8 01 00 00 00       	mov    $0x1,%eax
  40371c:	eb 05                	jmp    403723 <_ZNSt8_Rb_treeIiSt4pairIKiN6xaxaxa9AsyncSock13SocketManager8taskInfoEESt10_Select1stIS6_ESt4lessIiESaIS6_EE10_M_insert_EPKSt18_Rb_tree_node_baseSF_RKS6_+0x79>
  40371e:	b8 00 00 00 00       	mov    $0x0,%eax
  403723:	88 45 ef             	mov    %al,-0x11(%rbp)
  403726:	48 8b 55 b0          	mov    -0x50(%rbp),%rdx
  40372a:	48 8b 45 c8          	mov    -0x38(%rbp),%rax
  40372e:	48 89 d6             	mov    %rdx,%rsi
  403731:	48 89 c7             	mov    %rax,%rdi
  403734:	e8 bd 03 00 00       	callq  403af6 <_ZNSt8_Rb_treeIiSt4pairIKiN6xaxaxa9AsyncSock13SocketManager8taskInfoEESt10_Select1stIS6_ESt4lessIiESaIS6_EE14_M_create_nodeERKS6_>
  403739:	48 89 45 e0          	mov    %rax,-0x20(%rbp)
  40373d:	48 8b 45 c8          	mov    -0x38(%rbp),%rax
  403741:	48 8d 48 08          	lea    0x8(%rax),%rcx
  403745:	48 8b 5d e0          	mov    -0x20(%rbp),%rbx
  403749:	0f b6 45 ef          	movzbl -0x11(%rbp),%eax
  40374d:	48 8b 55 b8          	mov    -0x48(%rbp),%rdx
  403751:	48 89 de             	mov    %rbx,%rsi
  403754:	89 c7                	mov    %eax,%edi
  403756:	e8 5d df ff ff       	callq  4016b8 <_ZSt29_Rb_tree_insert_and_rebalancebPSt18_Rb_tree_node_baseS0_RS_@plt>
  40375b:	48 8b 45 c8          	mov    -0x38(%rbp),%rax
  40375f:	48 8b 40 28          	mov    0x28(%rax),%rax
  403763:	48 8d 50 01          	lea    0x1(%rax),%rdx
  403767:	48 8b 45 c8          	mov    -0x38(%rbp),%rax
  40376b:	48 89 50 28          	mov    %rdx,0x28(%rax)
  40376f:	48 8b 55 e0          	mov    -0x20(%rbp),%rdx
  403773:	48 8d 45 d0          	lea    -0x30(%rbp),%rax
  403777:	48 89 d6             	mov    %rdx,%rsi
  40377a:	48 89 c7             	mov    %rax,%rdi
  40377d:	e8 ac fe ff ff       	callq  40362e <_ZNSt17_Rb_tree_iteratorISt4pairIKiN6xaxaxa9AsyncSock13SocketManager8taskInfoEEEC1EPSt13_Rb_tree_nodeIS6_E>
  403782:	48 8b 45 d0          	mov    -0x30(%rbp),%rax
  403786:	48 83 c4 48          	add    $0x48,%rsp
  40378a:	5b                   	pop    %rbx
  40378b:	c9                   	leaveq 
  40378c:	c3                   	retq   
  40378d:	90                   	nop

000000000040378e <_ZNSt8_Rb_treeIiSt4pairIKiN6xaxaxa9AsyncSock13SocketManager8taskInfoEESt10_Select1stIS6_ESt4lessIiESaIS6_EE16_M_insert_uniqueERKS6_>:
  40378e:	55                   	push   %rbp
  40378f:	48 89 e5             	mov    %rsp,%rbp
  403792:	53                   	push   %rbx
  403793:	48 81 ec b8 00 00 00 	sub    $0xb8,%rsp
  40379a:	48 89 bd 58 ff ff ff 	mov    %rdi,-0xa8(%rbp)
  4037a1:	48 89 b5 50 ff ff ff 	mov    %rsi,-0xb0(%rbp)
  4037a8:	48 8b 85 58 ff ff ff 	mov    -0xa8(%rbp),%rax
  4037af:	48 89 c7             	mov    %rax,%rdi
  4037b2:	e8 b3 f5 ff ff       	callq  402d6a <_ZNSt8_Rb_treeIiSt4pairIKiN6xaxaxa9AsyncSock13SocketManager8taskInfoEESt10_Select1stIS6_ESt4lessIiESaIS6_EE8_M_beginEv>
  4037b7:	48 89 45 e0          	mov    %rax,-0x20(%rbp)
  4037bb:	48 8b 85 58 ff ff ff 	mov    -0xa8(%rbp),%rax
  4037c2:	48 89 c7             	mov    %rax,%rdi
  4037c5:	e8 c0 fd ff ff       	callq  40358a <_ZNSt8_Rb_treeIiSt4pairIKiN6xaxaxa9AsyncSock13SocketManager8taskInfoEESt10_Select1stIS6_ESt4lessIiESaIS6_EE6_M_endEv>
  4037ca:	48 89 45 d8          	mov    %rax,-0x28(%rbp)
  4037ce:	c6 45 ef 01          	movb   $0x1,-0x11(%rbp)
  4037d2:	eb 6c                	jmp    403840 <_ZNSt8_Rb_treeIiSt4pairIKiN6xaxaxa9AsyncSock13SocketManager8taskInfoEESt10_Select1stIS6_ESt4lessIiESaIS6_EE16_M_insert_uniqueERKS6_+0xb2>
  4037d4:	48 8b 45 e0          	mov    -0x20(%rbp),%rax
  4037d8:	48 89 45 d8          	mov    %rax,-0x28(%rbp)
  4037dc:	48 8b 45 e0          	mov    -0x20(%rbp),%rax
  4037e0:	48 89 c7             	mov    %rax,%rdi
  4037e3:	e8 d0 02 00 00       	callq  403ab8 <_ZNSt8_Rb_treeIiSt4pairIKiN6xaxaxa9AsyncSock13SocketManager8taskInfoEESt10_Select1stIS6_ESt4lessIiESaIS6_EE6_S_keyEPKSt13_Rb_tree_nodeIS6_E>
  4037e8:	48 89 c3             	mov    %rax,%rbx
  4037eb:	48 8b 95 50 ff ff ff 	mov    -0xb0(%rbp),%rdx
  4037f2:	48 8d 45 ee          	lea    -0x12(%rbp),%rax
  4037f6:	48 89 d6             	mov    %rdx,%rsi
  4037f9:	48 89 c7             	mov    %rax,%rdi
  4037fc:	e8 85 fe ff ff       	callq  403686 <_ZNKSt10_Select1stISt4pairIKiN6xaxaxa9AsyncSock13SocketManager8taskInfoEEEclERKS6_>
  403801:	48 89 c1             	mov    %rax,%rcx
  403804:	48 8b 85 58 ff ff ff 	mov    -0xa8(%rbp),%rax
  40380b:	48 89 da             	mov    %rbx,%rdx
  40380e:	48 89 ce             	mov    %rcx,%rsi
  403811:	48 89 c7             	mov    %rax,%rdi
  403814:	e8 b9 f5 ff ff       	callq  402dd2 <_ZNKSt4lessIiEclERKiS2_>
  403819:	88 45 ef             	mov    %al,-0x11(%rbp)
  40381c:	80 7d ef 00          	cmpb   $0x0,-0x11(%rbp)
  403820:	74 0e                	je     403830 <_ZNSt8_Rb_treeIiSt4pairIKiN6xaxaxa9AsyncSock13SocketManager8taskInfoEESt10_Select1stIS6_ESt4lessIiESaIS6_EE16_M_insert_uniqueERKS6_+0xa2>
  403822:	48 8b 45 e0          	mov    -0x20(%rbp),%rax
  403826:	48 89 c7             	mov    %rax,%rdi
  403829:	e8 3e f7 ff ff       	callq  402f6c <_ZNSt8_Rb_treeIiSt4pairIKiN6xaxaxa9AsyncSock13SocketManager8taskInfoEESt10_Select1stIS6_ESt4lessIiESaIS6_EE7_S_leftEPSt18_Rb_tree_node_base>
  40382e:	eb 0c                	jmp    40383c <_ZNSt8_Rb_treeIiSt4pairIKiN6xaxaxa9AsyncSock13SocketManager8taskInfoEESt10_Select1stIS6_ESt4lessIiESaIS6_EE16_M_insert_uniqueERKS6_+0xae>
  403830:	48 8b 45 e0          	mov    -0x20(%rbp),%rax
  403834:	48 89 c7             	mov    %rax,%rdi
  403837:	e8 1e f7 ff ff       	callq  402f5a <_ZNSt8_Rb_treeIiSt4pairIKiN6xaxaxa9AsyncSock13SocketManager8taskInfoEESt10_Select1stIS6_ESt4lessIiESaIS6_EE8_S_rightEPSt18_Rb_tree_node_base>
  40383c:	48 89 45 e0          	mov    %rax,-0x20(%rbp)
  403840:	48 83 7d e0 00       	cmpq   $0x0,-0x20(%rbp)
  403845:	0f 95 c0             	setne  %al
  403848:	84 c0                	test   %al,%al
  40384a:	75 88                	jne    4037d4 <_ZNSt8_Rb_treeIiSt4pairIKiN6xaxaxa9AsyncSock13SocketManager8taskInfoEESt10_Select1stIS6_ESt4lessIiESaIS6_EE16_M_insert_uniqueERKS6_+0x46>
  40384c:	48 8b 55 d8          	mov    -0x28(%rbp),%rdx
  403850:	48 8d 45 d0          	lea    -0x30(%rbp),%rax
  403854:	48 89 d6             	mov    %rdx,%rsi
  403857:	48 89 c7             	mov    %rax,%rdi
  40385a:	e8 cf fd ff ff       	callq  40362e <_ZNSt17_Rb_tree_iteratorISt4pairIKiN6xaxaxa9AsyncSock13SocketManager8taskInfoEEEC1EPSt13_Rb_tree_nodeIS6_E>
  40385f:	80 7d ef 00          	cmpb   $0x0,-0x11(%rbp)
  403863:	0f 84 90 00 00 00    	je     4038f9 <_ZNSt8_Rb_treeIiSt4pairIKiN6xaxaxa9AsyncSock13SocketManager8taskInfoEESt10_Select1stIS6_ESt4lessIiESaIS6_EE16_M_insert_uniqueERKS6_+0x16b>
  403869:	48 8b 85 58 ff ff ff 	mov    -0xa8(%rbp),%rax
  403870:	48 89 c7             	mov    %rax,%rdi
  403873:	e8 e4 02 00 00       	callq  403b5c <_ZNSt8_Rb_treeIiSt4pairIKiN6xaxaxa9AsyncSock13SocketManager8taskInfoEESt10_Select1stIS6_ESt4lessIiESaIS6_EE5beginEv>
  403878:	48 89 45 c0          	mov    %rax,-0x40(%rbp)
  40387c:	48 8d 55 c0          	lea    -0x40(%rbp),%rdx
  403880:	48 8d 45 d0          	lea    -0x30(%rbp),%rax
  403884:	48 89 d6             	mov    %rdx,%rsi
  403887:	48 89 c7             	mov    %rax,%rdi
  40388a:	e8 81 f5 ff ff       	callq  402e10 <_ZNKSt17_Rb_tree_iteratorISt4pairIKiN6xaxaxa9AsyncSock13SocketManager8taskInfoEEEeqERKS7_>
  40388f:	84 c0                	test   %al,%al
  403891:	74 5a                	je     4038ed <_ZNSt8_Rb_treeIiSt4pairIKiN6xaxaxa9AsyncSock13SocketManager8taskInfoEESt10_Select1stIS6_ESt4lessIiESaIS6_EE16_M_insert_uniqueERKS6_+0x15f>
  403893:	c6 45 ed 01          	movb   $0x1,-0x13(%rbp)
  403897:	48 8b 55 d8          	mov    -0x28(%rbp),%rdx
  40389b:	48 8b 5d e0          	mov    -0x20(%rbp),%rbx
  40389f:	48 8b 8d 50 ff ff ff 	mov    -0xb0(%rbp),%rcx
  4038a6:	48 8b 85 58 ff ff ff 	mov    -0xa8(%rbp),%rax
  4038ad:	48 89 de             	mov    %rbx,%rsi
  4038b0:	48 89 c7             	mov    %rax,%rdi
  4038b3:	e8 f2 fd ff ff       	callq  4036aa <_ZNSt8_Rb_treeIiSt4pairIKiN6xaxaxa9AsyncSock13SocketManager8taskInfoEESt10_Select1stIS6_ESt4lessIiESaIS6_EE10_M_insert_EPKSt18_Rb_tree_node_baseSF_RKS6_>
  4038b8:	48 89 45 b0          	mov    %rax,-0x50(%rbp)
  4038bc:	48 8d 55 ed          	lea    -0x13(%rbp),%rdx
  4038c0:	48 8d 4d b0          	lea    -0x50(%rbp),%rcx
  4038c4:	48 8d 45 90          	lea    -0x70(%rbp),%rax
  4038c8:	48 89 ce             	mov    %rcx,%rsi
  4038cb:	48 89 c7             	mov    %rax,%rdi
  4038ce:	e8 b5 02 00 00       	callq  403b88 <_ZNSt4pairISt17_Rb_tree_iteratorIS_IKiN6xaxaxa9AsyncSock13SocketManager8taskInfoEEEbEC1ERKS7_RKb>
  4038d3:	48 8b 45 90          	mov    -0x70(%rbp),%rax
  4038d7:	48 89 85 60 ff ff ff 	mov    %rax,-0xa0(%rbp)
  4038de:	0f b6 45 98          	movzbl -0x68(%rbp),%eax
  4038e2:	88 85 68 ff ff ff    	mov    %al,-0x98(%rbp)
  4038e8:	e9 dd 00 00 00       	jmpq   4039ca <_ZNSt8_Rb_treeIiSt4pairIKiN6xaxaxa9AsyncSock13SocketManager8taskInfoEESt10_Select1stIS6_ESt4lessIiESaIS6_EE16_M_insert_uniqueERKS6_+0x23c>
  4038ed:	48 8d 45 d0          	lea    -0x30(%rbp),%rax
  4038f1:	48 89 c7             	mov    %rax,%rdi
  4038f4:	e8 bd 02 00 00       	callq  403bb6 <_ZNSt17_Rb_tree_iteratorISt4pairIKiN6xaxaxa9AsyncSock13SocketManager8taskInfoEEEmmEv>
  4038f9:	48 8b 95 50 ff ff ff 	mov    -0xb0(%rbp),%rdx
  403900:	48 8d 45 ec          	lea    -0x14(%rbp),%rax
  403904:	48 89 d6             	mov    %rdx,%rsi
  403907:	48 89 c7             	mov    %rax,%rdi
  40390a:	e8 77 fd ff ff       	callq  403686 <_ZNKSt10_Select1stISt4pairIKiN6xaxaxa9AsyncSock13SocketManager8taskInfoEEEclERKS6_>
  40390f:	48 89 c3             	mov    %rax,%rbx
  403912:	48 8b 45 d0          	mov    -0x30(%rbp),%rax
  403916:	48 89 c7             	mov    %rax,%rdi
  403919:	e8 3c fd ff ff       	callq  40365a <_ZNSt8_Rb_treeIiSt4pairIKiN6xaxaxa9AsyncSock13SocketManager8taskInfoEESt10_Select1stIS6_ESt4lessIiESaIS6_EE6_S_keyEPKSt18_Rb_tree_node_base>
  40391e:	48 89 c1             	mov    %rax,%rcx
  403921:	48 8b 85 58 ff ff ff 	mov    -0xa8(%rbp),%rax
  403928:	48 89 da             	mov    %rbx,%rdx
  40392b:	48 89 ce             	mov    %rcx,%rsi
  40392e:	48 89 c7             	mov    %rax,%rdi
  403931:	e8 9c f4 ff ff       	callq  402dd2 <_ZNKSt4lessIiEclERKiS2_>
  403936:	84 c0                	test   %al,%al
  403938:	74 57                	je     403991 <_ZNSt8_Rb_treeIiSt4pairIKiN6xaxaxa9AsyncSock13SocketManager8taskInfoEESt10_Select1stIS6_ESt4lessIiESaIS6_EE16_M_insert_uniqueERKS6_+0x203>
  40393a:	c6 45 eb 01          	movb   $0x1,-0x15(%rbp)
  40393e:	48 8b 55 d8          	mov    -0x28(%rbp),%rdx
  403942:	48 8b 5d e0          	mov    -0x20(%rbp),%rbx
  403946:	48 8b 8d 50 ff ff ff 	mov    -0xb0(%rbp),%rcx
  40394d:	48 8b 85 58 ff ff ff 	mov    -0xa8(%rbp),%rax
  403954:	48 89 de             	mov    %rbx,%rsi
  403957:	48 89 c7             	mov    %rax,%rdi
  40395a:	e8 4b fd ff ff       	callq  4036aa <_ZNSt8_Rb_treeIiSt4pairIKiN6xaxaxa9AsyncSock13SocketManager8taskInfoEESt10_Select1stIS6_ESt4lessIiESaIS6_EE10_M_insert_EPKSt18_Rb_tree_node_baseSF_RKS6_>
  40395f:	48 89 45 a0          	mov    %rax,-0x60(%rbp)
  403963:	48 8d 55 eb          	lea    -0x15(%rbp),%rdx
  403967:	48 8d 4d a0          	lea    -0x60(%rbp),%rcx
  40396b:	48 8d 45 80          	lea    -0x80(%rbp),%rax
  40396f:	48 89 ce             	mov    %rcx,%rsi
  403972:	48 89 c7             	mov    %rax,%rdi
  403975:	e8 0e 02 00 00       	callq  403b88 <_ZNSt4pairISt17_Rb_tree_iteratorIS_IKiN6xaxaxa9AsyncSock13SocketManager8taskInfoEEEbEC1ERKS7_RKb>
  40397a:	48 8b 45 80          	mov    -0x80(%rbp),%rax
  40397e:	48 89 85 60 ff ff ff 	mov    %rax,-0xa0(%rbp)
  403985:	0f b6 45 88          	movzbl -0x78(%rbp),%eax
  403989:	88 85 68 ff ff ff    	mov    %al,-0x98(%rbp)
  40398f:	eb 39                	jmp    4039ca <_ZNSt8_Rb_treeIiSt4pairIKiN6xaxaxa9AsyncSock13SocketManager8taskInfoEESt10_Select1stIS6_ESt4lessIiESaIS6_EE16_M_insert_uniqueERKS6_+0x23c>
  403991:	c6 45 ea 00          	movb   $0x0,-0x16(%rbp)
  403995:	48 8d 55 ea          	lea    -0x16(%rbp),%rdx
  403999:	48 8d 4d d0          	lea    -0x30(%rbp),%rcx
  40399d:	48 8d 85 70 ff ff ff 	lea    -0x90(%rbp),%rax
  4039a4:	48 89 ce             	mov    %rcx,%rsi
  4039a7:	48 89 c7             	mov    %rax,%rdi
  4039aa:	e8 d9 01 00 00       	callq  403b88 <_ZNSt4pairISt17_Rb_tree_iteratorIS_IKiN6xaxaxa9AsyncSock13SocketManager8taskInfoEEEbEC1ERKS7_RKb>
  4039af:	48 8b 85 70 ff ff ff 	mov    -0x90(%rbp),%rax
  4039b6:	48 89 85 60 ff ff ff 	mov    %rax,-0xa0(%rbp)
  4039bd:	0f b6 85 78 ff ff ff 	movzbl -0x88(%rbp),%eax
  4039c4:	88 85 68 ff ff ff    	mov    %al,-0x98(%rbp)
  4039ca:	48 8b 85 60 ff ff ff 	mov    -0xa0(%rbp),%rax
  4039d1:	8b 95 68 ff ff ff    	mov    -0x98(%rbp),%edx
  4039d7:	48 81 c4 b8 00 00 00 	add    $0xb8,%rsp
  4039de:	5b                   	pop    %rbx
  4039df:	c9                   	leaveq 
  4039e0:	c3                   	retq   
  4039e1:	90                   	nop

00000000004039e2 <_ZNSt8_Rb_treeIiSt4pairIKiN6xaxaxa9AsyncSock13SocketManager8taskInfoEESt10_Select1stIS6_ESt4lessIiESaIS6_EE11_M_leftmostEv>:
  4039e2:	55                   	push   %rbp
  4039e3:	48 89 e5             	mov    %rsp,%rbp
  4039e6:	48 89 7d f8          	mov    %rdi,-0x8(%rbp)
  4039ea:	48 8b 45 f8          	mov    -0x8(%rbp),%rax
  4039ee:	48 83 c0 18          	add    $0x18,%rax
  4039f2:	c9                   	leaveq 
  4039f3:	c3                   	retq   

00000000004039f4 <_ZNSt23_Rb_tree_const_iteratorISt4pairIKiN6xaxaxa9AsyncSock13SocketManager8taskInfoEEEmmEv>:
  4039f4:	55                   	push   %rbp
  4039f5:	48 89 e5             	mov    %rsp,%rbp
  4039f8:	48 83 ec 10          	sub    $0x10,%rsp
  4039fc:	48 89 7d f8          	mov    %rdi,-0x8(%rbp)
  403a00:	48 8b 45 f8          	mov    -0x8(%rbp),%rax
  403a04:	48 8b 00             	mov    (%rax),%rax
  403a07:	48 89 c7             	mov    %rax,%rdi
  403a0a:	e8 c9 da ff ff       	callq  4014d8 <_ZSt18_Rb_tree_decrementPKSt18_Rb_tree_node_base@plt>
  403a0f:	48 8b 55 f8          	mov    -0x8(%rbp),%rdx
  403a13:	48 89 02             	mov    %rax,(%rdx)
  403a16:	48 8b 45 f8          	mov    -0x8(%rbp),%rax
  403a1a:	c9                   	leaveq 
  403a1b:	c3                   	retq   

0000000000403a1c <_ZNSt8_Rb_treeIiSt4pairIKiN6xaxaxa9AsyncSock13SocketManager8taskInfoEESt10_Select1stIS6_ESt4lessIiESaIS6_EE8_S_rightEPKSt18_Rb_tree_node_base>:
  403a1c:	55                   	push   %rbp
  403a1d:	48 89 e5             	mov    %rsp,%rbp
  403a20:	48 89 7d f8          	mov    %rdi,-0x8(%rbp)
  403a24:	48 8b 45 f8          	mov    -0x8(%rbp),%rax
  403a28:	48 8b 40 18          	mov    0x18(%rax),%rax
  403a2c:	c9                   	leaveq 
  403a2d:	c3                   	retq   

0000000000403a2e <_ZNSt23_Rb_tree_const_iteratorISt4pairIKiN6xaxaxa9AsyncSock13SocketManager8taskInfoEEEppEv>:
  403a2e:	55                   	push   %rbp
  403a2f:	48 89 e5             	mov    %rsp,%rbp
  403a32:	48 83 ec 10          	sub    $0x10,%rsp
  403a36:	48 89 7d f8          	mov    %rdi,-0x8(%rbp)
  403a3a:	48 8b 45 f8          	mov    -0x8(%rbp),%rax
  403a3e:	48 8b 00             	mov    (%rax),%rax
  403a41:	48 89 c7             	mov    %rax,%rdi
  403a44:	e8 bf db ff ff       	callq  401608 <_ZSt18_Rb_tree_incrementPKSt18_Rb_tree_node_base@plt>
  403a49:	48 8b 55 f8          	mov    -0x8(%rbp),%rdx
  403a4d:	48 89 02             	mov    %rax,(%rdx)
  403a50:	48 8b 45 f8          	mov    -0x8(%rbp),%rax
  403a54:	c9                   	leaveq 
  403a55:	c3                   	retq   

0000000000403a56 <_ZN9__gnu_cxx13new_allocatorISt13_Rb_tree_nodeISt4pairIKiN6xaxaxa9AsyncSock13SocketManager8taskInfoEEEEC2Ev>:
  403a56:	55                   	push   %rbp
  403a57:	48 89 e5             	mov    %rsp,%rbp
  403a5a:	48 89 7d f8          	mov    %rdi,-0x8(%rbp)
  403a5e:	c9                   	leaveq 
  403a5f:	c3                   	retq   

0000000000403a60 <_ZNKSt8_Rb_treeIiSt4pairIKiN6xaxaxa9AsyncSock13SocketManager8taskInfoEESt10_Select1stIS6_ESt4lessIiESaIS6_EE21_M_get_Node_allocatorEv>:
  403a60:	55                   	push   %rbp
  403a61:	48 89 e5             	mov    %rsp,%rbp
  403a64:	48 89 7d f8          	mov    %rdi,-0x8(%rbp)
  403a68:	48 8b 45 f8          	mov    -0x8(%rbp),%rax
  403a6c:	c9                   	leaveq 
  403a6d:	c3                   	retq   

0000000000403a6e <_ZNSaISt4pairIKiN6xaxaxa9AsyncSock13SocketManager8taskInfoEEEC1ISt13_Rb_tree_nodeIS5_EEERKSaIT_E>:
  403a6e:	55                   	push   %rbp
  403a6f:	48 89 e5             	mov    %rsp,%rbp
  403a72:	48 83 ec 10          	sub    $0x10,%rsp
  403a76:	48 89 7d f8          	mov    %rdi,-0x8(%rbp)
  403a7a:	48 89 75 f0          	mov    %rsi,-0x10(%rbp)
  403a7e:	48 8b 45 f8          	mov    -0x8(%rbp),%rax
  403a82:	48 89 c7             	mov    %rax,%rdi
  403a85:	e8 54 01 00 00       	callq  403bde <_ZN9__gnu_cxx13new_allocatorISt4pairIKiN6xaxaxa9AsyncSock13SocketManager8taskInfoEEEC2Ev>
  403a8a:	c9                   	leaveq 
  403a8b:	c3                   	retq   

0000000000403a8c <_ZN9__gnu_cxx13new_allocatorISt4pairIKiN6xaxaxa9AsyncSock13SocketManager8taskInfoEEED2Ev>:
  403a8c:	55                   	push   %rbp
  403a8d:	48 89 e5             	mov    %rsp,%rbp
  403a90:	48 89 7d f8          	mov    %rdi,-0x8(%rbp)
  403a94:	c9                   	leaveq 
  403a95:	c3                   	retq   

0000000000403a96 <_ZN9__gnu_cxx13new_allocatorISt13_Rb_tree_nodeISt4pairIKiN6xaxaxa9AsyncSock13SocketManager8taskInfoEEEE10deallocateEPS9_m>:
  403a96:	55                   	push   %rbp
  403a97:	48 89 e5             	mov    %rsp,%rbp
  403a9a:	48 83 ec 20          	sub    $0x20,%rsp
  403a9e:	48 89 7d f8          	mov    %rdi,-0x8(%rbp)
  403aa2:	48 89 75 f0          	mov    %rsi,-0x10(%rbp)
  403aa6:	48 89 55 e8          	mov    %rdx,-0x18(%rbp)
  403aaa:	48 8b 45 f0          	mov    -0x10(%rbp),%rax
  403aae:	48 89 c7             	mov    %rax,%rdi
  403ab1:	e8 72 da ff ff       	callq  401528 <_ZdlPv@plt>
  403ab6:	c9                   	leaveq 
  403ab7:	c3                   	retq   

0000000000403ab8 <_ZNSt8_Rb_treeIiSt4pairIKiN6xaxaxa9AsyncSock13SocketManager8taskInfoEESt10_Select1stIS6_ESt4lessIiESaIS6_EE6_S_keyEPKSt13_Rb_tree_nodeIS6_E>:
  403ab8:	55                   	push   %rbp
  403ab9:	48 89 e5             	mov    %rsp,%rbp
  403abc:	48 83 ec 20          	sub    $0x20,%rsp
  403ac0:	48 89 7d e8          	mov    %rdi,-0x18(%rbp)
  403ac4:	48 8b 45 e8          	mov    -0x18(%rbp),%rax
  403ac8:	48 89 c7             	mov    %rax,%rdi
  403acb:	e8 18 01 00 00       	callq  403be8 <_ZNSt8_Rb_treeIiSt4pairIKiN6xaxaxa9AsyncSock13SocketManager8taskInfoEESt10_Select1stIS6_ESt4lessIiESaIS6_EE8_S_valueEPKSt13_Rb_tree_nodeIS6_E>
  403ad0:	48 89 c2             	mov    %rax,%rdx
  403ad3:	48 8d 45 ff          	lea    -0x1(%rbp),%rax
  403ad7:	48 89 d6             	mov    %rdx,%rsi
  403ada:	48 89 c7             	mov    %rax,%rdi
  403add:	e8 a4 fb ff ff       	callq  403686 <_ZNKSt10_Select1stISt4pairIKiN6xaxaxa9AsyncSock13SocketManager8taskInfoEEEclERKS6_>
  403ae2:	c9                   	leaveq 
  403ae3:	c3                   	retq   

0000000000403ae4 <_ZNSt8_Rb_treeIiSt4pairIKiN6xaxaxa9AsyncSock13SocketManager8taskInfoEESt10_Select1stIS6_ESt4lessIiESaIS6_EE8_S_valueEPKSt18_Rb_tree_node_base>:
  403ae4:	55                   	push   %rbp
  403ae5:	48 89 e5             	mov    %rsp,%rbp
  403ae8:	48 89 7d f8          	mov    %rdi,-0x8(%rbp)
  403aec:	48 8b 45 f8          	mov    -0x8(%rbp),%rax
  403af0:	48 83 c0 20          	add    $0x20,%rax
  403af4:	c9                   	leaveq 
  403af5:	c3                   	retq   

0000000000403af6 <_ZNSt8_Rb_treeIiSt4pairIKiN6xaxaxa9AsyncSock13SocketManager8taskInfoEESt10_Select1stIS6_ESt4lessIiESaIS6_EE14_M_create_nodeERKS6_>:
  403af6:	55                   	push   %rbp
  403af7:	48 89 e5             	mov    %rsp,%rbp
  403afa:	53                   	push   %rbx
  403afb:	48 83 ec 28          	sub    $0x28,%rsp
  403aff:	48 89 7d d8          	mov    %rdi,-0x28(%rbp)
  403b03:	48 89 75 d0          	mov    %rsi,-0x30(%rbp)
  403b07:	48 8b 45 d8          	mov    -0x28(%rbp),%rax
  403b0b:	48 89 c7             	mov    %rax,%rdi
  403b0e:	e8 e7 00 00 00       	callq  403bfa <_ZNSt8_Rb_treeIiSt4pairIKiN6xaxaxa9AsyncSock13SocketManager8taskInfoEESt10_Select1stIS6_ESt4lessIiESaIS6_EE11_M_get_nodeEv>
  403b13:	48 89 45 e0          	mov    %rax,-0x20(%rbp)
  403b17:	48 8b 45 e0          	mov    -0x20(%rbp),%rax
  403b1b:	48 8d 58 20          	lea    0x20(%rax),%rbx
  403b1f:	48 8d 45 ef          	lea    -0x11(%rbp),%rax
  403b23:	48 8b 55 d8          	mov    -0x28(%rbp),%rdx
  403b27:	48 89 d6             	mov    %rdx,%rsi
  403b2a:	48 89 c7             	mov    %rax,%rdi
  403b2d:	e8 ba f9 ff ff       	callq  4034ec <_ZNKSt8_Rb_treeIiSt4pairIKiN6xaxaxa9AsyncSock13SocketManager8taskInfoEESt10_Select1stIS6_ESt4lessIiESaIS6_EE13get_allocatorEv>
  403b32:	48 8d 45 ef          	lea    -0x11(%rbp),%rax
  403b36:	48 8b 55 d0          	mov    -0x30(%rbp),%rdx
  403b3a:	48 89 de             	mov    %rbx,%rsi
  403b3d:	48 89 c7             	mov    %rax,%rdi
  403b40:	e8 d9 00 00 00       	callq  403c1e <_ZN9__gnu_cxx13new_allocatorISt4pairIKiN6xaxaxa9AsyncSock13SocketManager8taskInfoEEE9constructEPS7_RKS7_>
  403b45:	48 8d 45 ef          	lea    -0x11(%rbp),%rax
  403b49:	48 89 c7             	mov    %rax,%rdi
  403b4c:	e8 d7 f9 ff ff       	callq  403528 <_ZNSaISt4pairIKiN6xaxaxa9AsyncSock13SocketManager8taskInfoEEED1Ev>
  403b51:	48 8b 45 e0          	mov    -0x20(%rbp),%rax
  403b55:	48 83 c4 28          	add    $0x28,%rsp
  403b59:	5b                   	pop    %rbx
  403b5a:	c9                   	leaveq 
  403b5b:	c3                   	retq   

0000000000403b5c <_ZNSt8_Rb_treeIiSt4pairIKiN6xaxaxa9AsyncSock13SocketManager8taskInfoEESt10_Select1stIS6_ESt4lessIiESaIS6_EE5beginEv>:
  403b5c:	55                   	push   %rbp
  403b5d:	48 89 e5             	mov    %rsp,%rbp
  403b60:	48 83 ec 20          	sub    $0x20,%rsp
  403b64:	48 89 7d e8          	mov    %rdi,-0x18(%rbp)
  403b68:	48 8b 45 e8          	mov    -0x18(%rbp),%rax
  403b6c:	48 8b 40 18          	mov    0x18(%rax),%rax
  403b70:	48 89 c2             	mov    %rax,%rdx
  403b73:	48 8d 45 f0          	lea    -0x10(%rbp),%rax
  403b77:	48 89 d6             	mov    %rdx,%rsi
  403b7a:	48 89 c7             	mov    %rax,%rdi
  403b7d:	e8 ac fa ff ff       	callq  40362e <_ZNSt17_Rb_tree_iteratorISt4pairIKiN6xaxaxa9AsyncSock13SocketManager8taskInfoEEEC1EPSt13_Rb_tree_nodeIS6_E>
  403b82:	48 8b 45 f0          	mov    -0x10(%rbp),%rax
  403b86:	c9                   	leaveq 
  403b87:	c3                   	retq   

0000000000403b88 <_ZNSt4pairISt17_Rb_tree_iteratorIS_IKiN6xaxaxa9AsyncSock13SocketManager8taskInfoEEEbEC1ERKS7_RKb>:
  403b88:	55                   	push   %rbp
  403b89:	48 89 e5             	mov    %rsp,%rbp
  403b8c:	48 89 7d f8          	mov    %rdi,-0x8(%rbp)
  403b90:	48 89 75 f0          	mov    %rsi,-0x10(%rbp)
  403b94:	48 89 55 e8          	mov    %rdx,-0x18(%rbp)
  403b98:	48 8b 45 f8          	mov    -0x8(%rbp),%rax
  403b9c:	48 8b 55 f0          	mov    -0x10(%rbp),%rdx
  403ba0:	48 8b 12             	mov    (%rdx),%rdx
  403ba3:	48 89 10             	mov    %rdx,(%rax)
  403ba6:	48 8b 45 e8          	mov    -0x18(%rbp),%rax
  403baa:	0f b6 10             	movzbl (%rax),%edx
  403bad:	48 8b 45 f8          	mov    -0x8(%rbp),%rax
  403bb1:	88 50 08             	mov    %dl,0x8(%rax)
  403bb4:	c9                   	leaveq 
  403bb5:	c3                   	retq   

0000000000403bb6 <_ZNSt17_Rb_tree_iteratorISt4pairIKiN6xaxaxa9AsyncSock13SocketManager8taskInfoEEEmmEv>:
  403bb6:	55                   	push   %rbp
  403bb7:	48 89 e5             	mov    %rsp,%rbp
  403bba:	48 83 ec 10          	sub    $0x10,%rsp
  403bbe:	48 89 7d f8          	mov    %rdi,-0x8(%rbp)
  403bc2:	48 8b 45 f8          	mov    -0x8(%rbp),%rax
  403bc6:	48 8b 00             	mov    (%rax),%rax
  403bc9:	48 89 c7             	mov    %rax,%rdi
  403bcc:	e8 b7 d9 ff ff       	callq  401588 <_ZSt18_Rb_tree_decrementPSt18_Rb_tree_node_base@plt>
  403bd1:	48 8b 55 f8          	mov    -0x8(%rbp),%rdx
  403bd5:	48 89 02             	mov    %rax,(%rdx)
  403bd8:	48 8b 45 f8          	mov    -0x8(%rbp),%rax
  403bdc:	c9                   	leaveq 
  403bdd:	c3                   	retq   

0000000000403bde <_ZN9__gnu_cxx13new_allocatorISt4pairIKiN6xaxaxa9AsyncSock13SocketManager8taskInfoEEEC2Ev>:
  403bde:	55                   	push   %rbp
  403bdf:	48 89 e5             	mov    %rsp,%rbp
  403be2:	48 89 7d f8          	mov    %rdi,-0x8(%rbp)
  403be6:	c9                   	leaveq 
  403be7:	c3                   	retq   

0000000000403be8 <_ZNSt8_Rb_treeIiSt4pairIKiN6xaxaxa9AsyncSock13SocketManager8taskInfoEESt10_Select1stIS6_ESt4lessIiESaIS6_EE8_S_valueEPKSt13_Rb_tree_nodeIS6_E>:
  403be8:	55                   	push   %rbp
  403be9:	48 89 e5             	mov    %rsp,%rbp
  403bec:	48 89 7d f8          	mov    %rdi,-0x8(%rbp)
  403bf0:	48 8b 45 f8          	mov    -0x8(%rbp),%rax
  403bf4:	48 83 c0 20          	add    $0x20,%rax
  403bf8:	c9                   	leaveq 
  403bf9:	c3                   	retq   

0000000000403bfa <_ZNSt8_Rb_treeIiSt4pairIKiN6xaxaxa9AsyncSock13SocketManager8taskInfoEESt10_Select1stIS6_ESt4lessIiESaIS6_EE11_M_get_nodeEv>:
  403bfa:	55                   	push   %rbp
  403bfb:	48 89 e5             	mov    %rsp,%rbp
  403bfe:	48 83 ec 10          	sub    $0x10,%rsp
  403c02:	48 89 7d f8          	mov    %rdi,-0x8(%rbp)
  403c06:	48 8b 45 f8          	mov    -0x8(%rbp),%rax
  403c0a:	ba 00 00 00 00       	mov    $0x0,%edx
  403c0f:	be 01 00 00 00       	mov    $0x1,%esi
  403c14:	48 89 c7             	mov    %rax,%rdi
  403c17:	e8 94 00 00 00       	callq  403cb0 <_ZN9__gnu_cxx13new_allocatorISt13_Rb_tree_nodeISt4pairIKiN6xaxaxa9AsyncSock13SocketManager8taskInfoEEEE8allocateEmPKv>
  403c1c:	c9                   	leaveq 
  403c1d:	c3                   	retq   

0000000000403c1e <_ZN9__gnu_cxx13new_allocatorISt4pairIKiN6xaxaxa9AsyncSock13SocketManager8taskInfoEEE9constructEPS7_RKS7_>:
  403c1e:	55                   	push   %rbp
  403c1f:	48 89 e5             	mov    %rsp,%rbp
  403c22:	48 83 ec 20          	sub    $0x20,%rsp
  403c26:	48 89 7d f8          	mov    %rdi,-0x8(%rbp)
  403c2a:	48 89 75 f0          	mov    %rsi,-0x10(%rbp)
  403c2e:	48 89 55 e8          	mov    %rdx,-0x18(%rbp)
  403c32:	48 8b 45 f0          	mov    -0x10(%rbp),%rax
  403c36:	48 89 c6             	mov    %rax,%rsi
  403c39:	bf 60 00 00 00       	mov    $0x60,%edi
  403c3e:	e8 65 ea ff ff       	callq  4026a8 <_ZnwmPv>
  403c43:	48 89 c2             	mov    %rax,%rdx
  403c46:	48 85 d2             	test   %rdx,%rdx
  403c49:	74 62                	je     403cad <_ZN9__gnu_cxx13new_allocatorISt4pairIKiN6xaxaxa9AsyncSock13SocketManager8taskInfoEEE9constructEPS7_RKS7_+0x8f>
  403c4b:	48 8b 55 e8          	mov    -0x18(%rbp),%rdx
  403c4f:	48 8b 0a             	mov    (%rdx),%rcx
  403c52:	48 89 08             	mov    %rcx,(%rax)
  403c55:	48 8b 4a 08          	mov    0x8(%rdx),%rcx
  403c59:	48 89 48 08          	mov    %rcx,0x8(%rax)
  403c5d:	48 8b 4a 10          	mov    0x10(%rdx),%rcx
  403c61:	48 89 48 10          	mov    %rcx,0x10(%rax)
  403c65:	48 8b 4a 18          	mov    0x18(%rdx),%rcx
  403c69:	48 89 48 18          	mov    %rcx,0x18(%rax)
  403c6d:	48 8b 4a 20          	mov    0x20(%rdx),%rcx
  403c71:	48 89 48 20          	mov    %rcx,0x20(%rax)
  403c75:	48 8b 4a 28          	mov    0x28(%rdx),%rcx
  403c79:	48 89 48 28          	mov    %rcx,0x28(%rax)
  403c7d:	48 8b 4a 30          	mov    0x30(%rdx),%rcx
  403c81:	48 89 48 30          	mov    %rcx,0x30(%rax)
  403c85:	48 8b 4a 38          	mov    0x38(%rdx),%rcx
  403c89:	48 89 48 38          	mov    %rcx,0x38(%rax)
  403c8d:	48 8b 4a 40          	mov    0x40(%rdx),%rcx
  403c91:	48 89 48 40          	mov    %rcx,0x40(%rax)
  403c95:	48 8b 4a 48          	mov    0x48(%rdx),%rcx
  403c99:	48 89 48 48          	mov    %rcx,0x48(%rax)
  403c9d:	48 8b 4a 50          	mov    0x50(%rdx),%rcx
  403ca1:	48 89 48 50          	mov    %rcx,0x50(%rax)
  403ca5:	48 8b 52 58          	mov    0x58(%rdx),%rdx
  403ca9:	48 89 50 58          	mov    %rdx,0x58(%rax)
  403cad:	c9                   	leaveq 
  403cae:	c3                   	retq   
  403caf:	90                   	nop

0000000000403cb0 <_ZN9__gnu_cxx13new_allocatorISt13_Rb_tree_nodeISt4pairIKiN6xaxaxa9AsyncSock13SocketManager8taskInfoEEEE8allocateEmPKv>:
  403cb0:	55                   	push   %rbp
  403cb1:	48 89 e5             	mov    %rsp,%rbp
  403cb4:	48 83 ec 20          	sub    $0x20,%rsp
  403cb8:	48 89 7d f8          	mov    %rdi,-0x8(%rbp)
  403cbc:	48 89 75 f0          	mov    %rsi,-0x10(%rbp)
  403cc0:	48 89 55 e8          	mov    %rdx,-0x18(%rbp)
  403cc4:	48 8b 45 f8          	mov    -0x8(%rbp),%rax
  403cc8:	48 89 c7             	mov    %rax,%rdi
  403ccb:	e8 2c 00 00 00       	callq  403cfc <_ZNK9__gnu_cxx13new_allocatorISt13_Rb_tree_nodeISt4pairIKiN6xaxaxa9AsyncSock13SocketManager8taskInfoEEEE8max_sizeEv>
  403cd0:	48 3b 45 f0          	cmp    -0x10(%rbp),%rax
  403cd4:	0f 92 c0             	setb   %al
  403cd7:	0f b6 c0             	movzbl %al,%eax
  403cda:	48 85 c0             	test   %rax,%rax
  403cdd:	0f 95 c0             	setne  %al
  403ce0:	84 c0                	test   %al,%al
  403ce2:	74 05                	je     403ce9 <_ZN9__gnu_cxx13new_allocatorISt13_Rb_tree_nodeISt4pairIKiN6xaxaxa9AsyncSock13SocketManager8taskInfoEEEE8allocateEmPKv+0x39>
  403ce4:	e8 7f da ff ff       	callq  401768 <_ZSt17__throw_bad_allocv@plt>
  403ce9:	48 8b 45 f0          	mov    -0x10(%rbp),%rax
  403ced:	48 c1 e0 07          	shl    $0x7,%rax
  403cf1:	48 89 c7             	mov    %rax,%rdi
  403cf4:	e8 ef da ff ff       	callq  4017e8 <_Znwm@plt>
  403cf9:	c9                   	leaveq 
  403cfa:	c3                   	retq   
  403cfb:	90                   	nop

0000000000403cfc <_ZNK9__gnu_cxx13new_allocatorISt13_Rb_tree_nodeISt4pairIKiN6xaxaxa9AsyncSock13SocketManager8taskInfoEEEE8max_sizeEv>:
  403cfc:	55                   	push   %rbp
  403cfd:	48 89 e5             	mov    %rsp,%rbp
  403d00:	48 89 7d f8          	mov    %rdi,-0x8(%rbp)
  403d04:	48 b8 ff ff ff ff ff 	movabs $0x1ffffffffffffff,%rax
  403d0b:	ff ff 01 
  403d0e:	c9                   	leaveq 
  403d0f:	c3                   	retq   

0000000000403d10 <_ZN6xaxaxa10FileStreamC2EP8_IO_FILE>:
  403d10:	55                   	push   %rbp
  403d11:	48 89 e5             	mov    %rsp,%rbp
  403d14:	48 83 ec 10          	sub    $0x10,%rsp
  403d18:	48 89 7d f8          	mov    %rdi,-0x8(%rbp)
  403d1c:	48 89 75 f0          	mov    %rsi,-0x10(%rbp)
  403d20:	48 8b 45 f8          	mov    -0x8(%rbp),%rax
  403d24:	48 89 c7             	mov    %rax,%rdi
  403d27:	e8 46 16 00 00       	callq  405372 <_ZN6xaxaxa6StreamC2Ev>
  403d2c:	48 8b 45 f8          	mov    -0x8(%rbp),%rax
  403d30:	48 c7 00 f0 5b 40 00 	movq   $0x405bf0,(%rax)
  403d37:	48 8b 45 f8          	mov    -0x8(%rbp),%rax
  403d3b:	48 8b 55 f0          	mov    -0x10(%rbp),%rdx
  403d3f:	48 89 50 08          	mov    %rdx,0x8(%rax)
  403d43:	c9                   	leaveq 
  403d44:	c3                   	retq   
  403d45:	90                   	nop

0000000000403d46 <_ZN6xaxaxa10FileStreamC1EP8_IO_FILE>:
  403d46:	55                   	push   %rbp
  403d47:	48 89 e5             	mov    %rsp,%rbp
  403d4a:	48 83 ec 10          	sub    $0x10,%rsp
  403d4e:	48 89 7d f8          	mov    %rdi,-0x8(%rbp)
  403d52:	48 89 75 f0          	mov    %rsi,-0x10(%rbp)
  403d56:	48 8b 45 f8          	mov    -0x8(%rbp),%rax
  403d5a:	48 89 c7             	mov    %rax,%rdi
  403d5d:	e8 10 16 00 00       	callq  405372 <_ZN6xaxaxa6StreamC2Ev>
  403d62:	48 8b 45 f8          	mov    -0x8(%rbp),%rax
  403d66:	48 c7 00 f0 5b 40 00 	movq   $0x405bf0,(%rax)
  403d6d:	48 8b 45 f8          	mov    -0x8(%rbp),%rax
  403d71:	48 8b 55 f0          	mov    -0x10(%rbp),%rdx
  403d75:	48 89 50 08          	mov    %rdx,0x8(%rax)
  403d79:	c9                   	leaveq 
  403d7a:	c3                   	retq   
  403d7b:	90                   	nop

0000000000403d7c <_ZN6xaxaxa10FileStreamD2Ev>:
  403d7c:	55                   	push   %rbp
  403d7d:	48 89 e5             	mov    %rsp,%rbp
  403d80:	48 83 ec 10          	sub    $0x10,%rsp
  403d84:	48 89 7d f8          	mov    %rdi,-0x8(%rbp)
  403d88:	48 8b 45 f8          	mov    -0x8(%rbp),%rax
  403d8c:	48 c7 00 f0 5b 40 00 	movq   $0x405bf0,(%rax)
  403d93:	48 8b 45 f8          	mov    -0x8(%rbp),%rax
  403d97:	48 89 c7             	mov    %rax,%rdi
  403d9a:	e8 b7 00 00 00       	callq  403e56 <_ZN6xaxaxa10FileStream5CloseEv>
  403d9f:	c9                   	leaveq 
  403da0:	c3                   	retq   
  403da1:	90                   	nop

0000000000403da2 <_ZN6xaxaxa10FileStreamD1Ev>:
  403da2:	55                   	push   %rbp
  403da3:	48 89 e5             	mov    %rsp,%rbp
  403da6:	48 83 ec 10          	sub    $0x10,%rsp
  403daa:	48 89 7d f8          	mov    %rdi,-0x8(%rbp)
  403dae:	48 8b 45 f8          	mov    -0x8(%rbp),%rax
  403db2:	48 c7 00 f0 5b 40 00 	movq   $0x405bf0,(%rax)
  403db9:	48 8b 45 f8          	mov    -0x8(%rbp),%rax
  403dbd:	48 89 c7             	mov    %rax,%rdi
  403dc0:	e8 91 00 00 00       	callq  403e56 <_ZN6xaxaxa10FileStream5CloseEv>
  403dc5:	c9                   	leaveq 
  403dc6:	c3                   	retq   
  403dc7:	90                   	nop

0000000000403dc8 <_ZN6xaxaxa10FileStream4ReadENS_6BufferE>:
  403dc8:	55                   	push   %rbp
  403dc9:	48 89 e5             	mov    %rsp,%rbp
  403dcc:	48 83 ec 10          	sub    $0x10,%rsp
  403dd0:	48 89 7d f8          	mov    %rdi,-0x8(%rbp)
  403dd4:	48 89 75 f0          	mov    %rsi,-0x10(%rbp)
  403dd8:	48 8b 45 f8          	mov    -0x8(%rbp),%rax
  403ddc:	48 8b 48 08          	mov    0x8(%rax),%rcx
  403de0:	48 8b 45 f0          	mov    -0x10(%rbp),%rax
  403de4:	8b 40 08             	mov    0x8(%rax),%eax
  403de7:	48 63 d0             	movslq %eax,%rdx
  403dea:	48 8b 45 f0          	mov    -0x10(%rbp),%rax
  403dee:	48 8b 00             	mov    (%rax),%rax
  403df1:	be 01 00 00 00       	mov    $0x1,%esi
  403df6:	48 89 c7             	mov    %rax,%rdi
  403df9:	e8 9a d8 ff ff       	callq  401698 <fread@plt>
  403dfe:	c9                   	leaveq 
  403dff:	c3                   	retq   

0000000000403e00 <_ZN6xaxaxa10FileStream5WriteENS_6BufferE>:
  403e00:	55                   	push   %rbp
  403e01:	48 89 e5             	mov    %rsp,%rbp
  403e04:	48 83 ec 10          	sub    $0x10,%rsp
  403e08:	48 89 7d f8          	mov    %rdi,-0x8(%rbp)
  403e0c:	48 89 75 f0          	mov    %rsi,-0x10(%rbp)
  403e10:	48 8b 45 f8          	mov    -0x8(%rbp),%rax
  403e14:	48 8b 48 08          	mov    0x8(%rax),%rcx
  403e18:	48 8b 45 f0          	mov    -0x10(%rbp),%rax
  403e1c:	8b 40 08             	mov    0x8(%rax),%eax
  403e1f:	48 63 d0             	movslq %eax,%rdx
  403e22:	48 8b 45 f0          	mov    -0x10(%rbp),%rax
  403e26:	48 8b 00             	mov    (%rax),%rax
  403e29:	be 01 00 00 00       	mov    $0x1,%esi
  403e2e:	48 89 c7             	mov    %rax,%rdi
  403e31:	e8 62 d9 ff ff       	callq  401798 <fwrite@plt>
  403e36:	c9                   	leaveq 
  403e37:	c3                   	retq   

0000000000403e38 <_ZN6xaxaxa10FileStream5FlushEv>:
  403e38:	55                   	push   %rbp
  403e39:	48 89 e5             	mov    %rsp,%rbp
  403e3c:	48 83 ec 10          	sub    $0x10,%rsp
  403e40:	48 89 7d f8          	mov    %rdi,-0x8(%rbp)
  403e44:	48 8b 45 f8          	mov    -0x8(%rbp),%rax
  403e48:	48 8b 40 08          	mov    0x8(%rax),%rax
  403e4c:	48 89 c7             	mov    %rax,%rdi
  403e4f:	e8 d4 d9 ff ff       	callq  401828 <fflush@plt>
  403e54:	c9                   	leaveq 
  403e55:	c3                   	retq   

0000000000403e56 <_ZN6xaxaxa10FileStream5CloseEv>:
  403e56:	55                   	push   %rbp
  403e57:	48 89 e5             	mov    %rsp,%rbp
  403e5a:	48 83 ec 10          	sub    $0x10,%rsp
  403e5e:	48 89 7d f8          	mov    %rdi,-0x8(%rbp)
  403e62:	48 8b 45 f8          	mov    -0x8(%rbp),%rax
  403e66:	48 8b 40 08          	mov    0x8(%rax),%rax
  403e6a:	48 89 c7             	mov    %rax,%rdi
  403e6d:	e8 e6 d8 ff ff       	callq  401758 <fclose@plt>
  403e72:	c9                   	leaveq 
  403e73:	c3                   	retq   

0000000000403e74 <_ZN6xaxaxa12StreamReaderC2EPNS_6StreamEi>:
  403e74:	55                   	push   %rbp
  403e75:	48 89 e5             	mov    %rsp,%rbp
  403e78:	48 83 ec 20          	sub    $0x20,%rsp
  403e7c:	48 89 7d f8          	mov    %rdi,-0x8(%rbp)
  403e80:	48 89 75 f0          	mov    %rsi,-0x10(%rbp)
  403e84:	89 55 ec             	mov    %edx,-0x14(%rbp)
  403e87:	48 8b 45 f8          	mov    -0x8(%rbp),%rax
  403e8b:	48 89 c7             	mov    %rax,%rdi
  403e8e:	e8 df 14 00 00       	callq  405372 <_ZN6xaxaxa6StreamC2Ev>
  403e93:	48 8b 45 f8          	mov    -0x8(%rbp),%rax
  403e97:	48 c7 00 90 5b 40 00 	movq   $0x405b90,(%rax)
  403e9e:	48 8b 45 f8          	mov    -0x8(%rbp),%rax
  403ea2:	48 8b 55 f0          	mov    -0x10(%rbp),%rdx
  403ea6:	48 89 50 08          	mov    %rdx,0x8(%rax)
  403eaa:	8b 45 ec             	mov    -0x14(%rbp),%eax
  403ead:	48 98                	cltq   
  403eaf:	48 89 c7             	mov    %rax,%rdi
  403eb2:	e8 a1 d6 ff ff       	callq  401558 <malloc@plt>
  403eb7:	48 89 c2             	mov    %rax,%rdx
  403eba:	48 8b 45 f8          	mov    -0x8(%rbp),%rax
  403ebe:	48 89 50 10          	mov    %rdx,0x10(%rax)
  403ec2:	48 8b 45 f8          	mov    -0x8(%rbp),%rax
  403ec6:	8b 55 ec             	mov    -0x14(%rbp),%edx
  403ec9:	89 50 18             	mov    %edx,0x18(%rax)
  403ecc:	48 8b 45 f8          	mov    -0x8(%rbp),%rax
  403ed0:	c7 40 1c 00 00 00 00 	movl   $0x0,0x1c(%rax)
  403ed7:	48 8b 45 f8          	mov    -0x8(%rbp),%rax
  403edb:	c7 40 20 00 00 00 00 	movl   $0x0,0x20(%rax)
  403ee2:	c9                   	leaveq 
  403ee3:	c3                   	retq   

0000000000403ee4 <_ZN6xaxaxa12StreamReaderC1EPNS_6StreamEi>:
  403ee4:	55                   	push   %rbp
  403ee5:	48 89 e5             	mov    %rsp,%rbp
  403ee8:	48 83 ec 20          	sub    $0x20,%rsp
  403eec:	48 89 7d f8          	mov    %rdi,-0x8(%rbp)
  403ef0:	48 89 75 f0          	mov    %rsi,-0x10(%rbp)
  403ef4:	89 55 ec             	mov    %edx,-0x14(%rbp)
  403ef7:	48 8b 45 f8          	mov    -0x8(%rbp),%rax
  403efb:	48 89 c7             	mov    %rax,%rdi
  403efe:	e8 6f 14 00 00       	callq  405372 <_ZN6xaxaxa6StreamC2Ev>
  403f03:	48 8b 45 f8          	mov    -0x8(%rbp),%rax
  403f07:	48 c7 00 90 5b 40 00 	movq   $0x405b90,(%rax)
  403f0e:	48 8b 45 f8          	mov    -0x8(%rbp),%rax
  403f12:	48 8b 55 f0          	mov    -0x10(%rbp),%rdx
  403f16:	48 89 50 08          	mov    %rdx,0x8(%rax)
  403f1a:	8b 45 ec             	mov    -0x14(%rbp),%eax
  403f1d:	48 98                	cltq   
  403f1f:	48 89 c7             	mov    %rax,%rdi
  403f22:	e8 31 d6 ff ff       	callq  401558 <malloc@plt>
  403f27:	48 89 c2             	mov    %rax,%rdx
  403f2a:	48 8b 45 f8          	mov    -0x8(%rbp),%rax
  403f2e:	48 89 50 10          	mov    %rdx,0x10(%rax)
  403f32:	48 8b 45 f8          	mov    -0x8(%rbp),%rax
  403f36:	8b 55 ec             	mov    -0x14(%rbp),%edx
  403f39:	89 50 18             	mov    %edx,0x18(%rax)
  403f3c:	48 8b 45 f8          	mov    -0x8(%rbp),%rax
  403f40:	c7 40 1c 00 00 00 00 	movl   $0x0,0x1c(%rax)
  403f47:	48 8b 45 f8          	mov    -0x8(%rbp),%rax
  403f4b:	c7 40 20 00 00 00 00 	movl   $0x0,0x20(%rax)
  403f52:	c9                   	leaveq 
  403f53:	c3                   	retq   

0000000000403f54 <_ZN6xaxaxa12StreamReaderD2Ev>:
  403f54:	55                   	push   %rbp
  403f55:	48 89 e5             	mov    %rsp,%rbp
  403f58:	48 83 ec 10          	sub    $0x10,%rsp
  403f5c:	48 89 7d f8          	mov    %rdi,-0x8(%rbp)
  403f60:	48 8b 45 f8          	mov    -0x8(%rbp),%rax
  403f64:	48 c7 00 90 5b 40 00 	movq   $0x405b90,(%rax)
  403f6b:	48 8b 45 f8          	mov    -0x8(%rbp),%rax
  403f6f:	48 8b 40 10          	mov    0x10(%rax),%rax
  403f73:	48 89 c7             	mov    %rax,%rdi
  403f76:	e8 6d d6 ff ff       	callq  4015e8 <free@plt>
  403f7b:	c9                   	leaveq 
  403f7c:	c3                   	retq   
  403f7d:	90                   	nop

0000000000403f7e <_ZN6xaxaxa12StreamReaderD1Ev>:
  403f7e:	55                   	push   %rbp
  403f7f:	48 89 e5             	mov    %rsp,%rbp
  403f82:	48 83 ec 10          	sub    $0x10,%rsp
  403f86:	48 89 7d f8          	mov    %rdi,-0x8(%rbp)
  403f8a:	48 8b 45 f8          	mov    -0x8(%rbp),%rax
  403f8e:	48 c7 00 90 5b 40 00 	movq   $0x405b90,(%rax)
  403f95:	48 8b 45 f8          	mov    -0x8(%rbp),%rax
  403f99:	48 8b 40 10          	mov    0x10(%rax),%rax
  403f9d:	48 89 c7             	mov    %rax,%rdi
  403fa0:	e8 43 d6 ff ff       	callq  4015e8 <free@plt>
  403fa5:	c9                   	leaveq 
  403fa6:	c3                   	retq   
  403fa7:	90                   	nop

0000000000403fa8 <_ZN6xaxaxa12StreamReader4ReadENS_6BufferE>:
  403fa8:	55                   	push   %rbp
  403fa9:	48 89 e5             	mov    %rsp,%rbp
  403fac:	41 54                	push   %r12
  403fae:	53                   	push   %rbx
  403faf:	48 83 ec 40          	sub    $0x40,%rsp
  403fb3:	48 89 7d b8          	mov    %rdi,-0x48(%rbp)
  403fb7:	48 89 75 b0          	mov    %rsi,-0x50(%rbp)
  403fbb:	c7 45 ec 00 00 00 00 	movl   $0x0,-0x14(%rbp)
  403fc2:	48 8b 45 b8          	mov    -0x48(%rbp),%rax
  403fc6:	8b 40 20             	mov    0x20(%rax),%eax
  403fc9:	85 c0                	test   %eax,%eax
  403fcb:	0f 8e a4 00 00 00    	jle    404075 <_ZN6xaxaxa12StreamReader4ReadENS_6BufferE+0xcd>
  403fd1:	48 8b 45 b8          	mov    -0x48(%rbp),%rax
  403fd5:	8b 40 20             	mov    0x20(%rax),%eax
  403fd8:	89 45 e8             	mov    %eax,-0x18(%rbp)
  403fdb:	48 8b 45 b0          	mov    -0x50(%rbp),%rax
  403fdf:	8b 40 08             	mov    0x8(%rax),%eax
  403fe2:	3b 45 e8             	cmp    -0x18(%rbp),%eax
  403fe5:	7d 0a                	jge    403ff1 <_ZN6xaxaxa12StreamReader4ReadENS_6BufferE+0x49>
  403fe7:	48 8b 45 b0          	mov    -0x50(%rbp),%rax
  403feb:	8b 40 08             	mov    0x8(%rax),%eax
  403fee:	89 45 e8             	mov    %eax,-0x18(%rbp)
  403ff1:	8b 45 e8             	mov    -0x18(%rbp),%eax
  403ff4:	48 63 d0             	movslq %eax,%rdx
  403ff7:	48 8b 45 b8          	mov    -0x48(%rbp),%rax
  403ffb:	48 8b 48 10          	mov    0x10(%rax),%rcx
  403fff:	48 8b 45 b8          	mov    -0x48(%rbp),%rax
  404003:	8b 40 1c             	mov    0x1c(%rax),%eax
  404006:	48 98                	cltq   
  404008:	48 01 c1             	add    %rax,%rcx
  40400b:	48 8b 45 b0          	mov    -0x50(%rbp),%rax
  40400f:	48 8b 00             	mov    (%rax),%rax
  404012:	48 89 ce             	mov    %rcx,%rsi
  404015:	48 89 c7             	mov    %rax,%rdi
  404018:	e8 4b d6 ff ff       	callq  401668 <memcpy@plt>
  40401d:	48 8b 45 b0          	mov    -0x50(%rbp),%rax
  404021:	48 8b 00             	mov    (%rax),%rax
  404024:	48 89 c2             	mov    %rax,%rdx
  404027:	8b 45 e8             	mov    -0x18(%rbp),%eax
  40402a:	48 98                	cltq   
  40402c:	48 01 c2             	add    %rax,%rdx
  40402f:	48 8b 45 b0          	mov    -0x50(%rbp),%rax
  404033:	48 89 10             	mov    %rdx,(%rax)
  404036:	48 8b 45 b0          	mov    -0x50(%rbp),%rax
  40403a:	8b 40 08             	mov    0x8(%rax),%eax
  40403d:	89 c2                	mov    %eax,%edx
  40403f:	2b 55 e8             	sub    -0x18(%rbp),%edx
  404042:	48 8b 45 b0          	mov    -0x50(%rbp),%rax
  404046:	89 50 08             	mov    %edx,0x8(%rax)
  404049:	48 8b 45 b8          	mov    -0x48(%rbp),%rax
  40404d:	8b 40 1c             	mov    0x1c(%rax),%eax
  404050:	89 c2                	mov    %eax,%edx
  404052:	03 55 e8             	add    -0x18(%rbp),%edx
  404055:	48 8b 45 b8          	mov    -0x48(%rbp),%rax
  404059:	89 50 1c             	mov    %edx,0x1c(%rax)
  40405c:	48 8b 45 b8          	mov    -0x48(%rbp),%rax
  404060:	8b 40 20             	mov    0x20(%rax),%eax
  404063:	89 c2                	mov    %eax,%edx
  404065:	2b 55 e8             	sub    -0x18(%rbp),%edx
  404068:	48 8b 45 b8          	mov    -0x48(%rbp),%rax
  40406c:	89 50 20             	mov    %edx,0x20(%rax)
  40406f:	8b 45 e8             	mov    -0x18(%rbp),%eax
  404072:	01 45 ec             	add    %eax,-0x14(%rbp)
  404075:	48 8b 45 b0          	mov    -0x50(%rbp),%rax
  404079:	8b 40 08             	mov    0x8(%rax),%eax
  40407c:	85 c0                	test   %eax,%eax
  40407e:	0f 8e ac 00 00 00    	jle    404130 <_ZN6xaxaxa12StreamReader4ReadENS_6BufferE+0x188>
  404084:	48 8b 45 b0          	mov    -0x50(%rbp),%rax
  404088:	8b 50 08             	mov    0x8(%rax),%edx
  40408b:	48 8b 45 b0          	mov    -0x50(%rbp),%rax
  40408f:	48 8b 18             	mov    (%rax),%rbx
  404092:	48 8d 45 d0          	lea    -0x30(%rbp),%rax
  404096:	b9 00 00 00 00       	mov    $0x0,%ecx
  40409b:	48 89 de             	mov    %rbx,%rsi
  40409e:	48 89 c7             	mov    %rax,%rdi
  4040a1:	e8 1e e6 ff ff       	callq  4026c4 <_ZN6xaxaxa6BufferC1EPvib>
  4040a6:	48 8b 45 b8          	mov    -0x48(%rbp),%rax
  4040aa:	48 8b 40 08          	mov    0x8(%rax),%rax
  4040ae:	48 8b 00             	mov    (%rax),%rax
  4040b1:	48 8b 08             	mov    (%rax),%rcx
  4040b4:	48 8b 45 d0          	mov    -0x30(%rbp),%rax
  4040b8:	48 89 45 c0          	mov    %rax,-0x40(%rbp)
  4040bc:	8b 45 d8             	mov    -0x28(%rbp),%eax
  4040bf:	89 45 c8             	mov    %eax,-0x38(%rbp)
  4040c2:	0f b6 45 dc          	movzbl -0x24(%rbp),%eax
  4040c6:	88 45 cc             	mov    %al,-0x34(%rbp)
  4040c9:	48 8b 45 b8          	mov    -0x48(%rbp),%rax
  4040cd:	48 8b 40 08          	mov    0x8(%rax),%rax
  4040d1:	48 8d 55 c0          	lea    -0x40(%rbp),%rdx
  4040d5:	48 89 d6             	mov    %rdx,%rsi
  4040d8:	48 89 c7             	mov    %rax,%rdi
  4040db:	ff d1                	callq  *%rcx
  4040dd:	01 45 ec             	add    %eax,-0x14(%rbp)
  4040e0:	48 8d 45 c0          	lea    -0x40(%rbp),%rax
  4040e4:	48 89 c7             	mov    %rax,%rdi
  4040e7:	e8 38 e6 ff ff       	callq  402724 <_ZN6xaxaxa6BufferD1Ev>
  4040ec:	48 8d 45 d0          	lea    -0x30(%rbp),%rax
  4040f0:	48 89 c7             	mov    %rax,%rdi
  4040f3:	e8 2c e6 ff ff       	callq  402724 <_ZN6xaxaxa6BufferD1Ev>
  4040f8:	eb 36                	jmp    404130 <_ZN6xaxaxa12StreamReader4ReadENS_6BufferE+0x188>
  4040fa:	89 d3                	mov    %edx,%ebx
  4040fc:	49 89 c4             	mov    %rax,%r12
  4040ff:	48 8d 45 c0          	lea    -0x40(%rbp),%rax
  404103:	48 89 c7             	mov    %rax,%rdi
  404106:	e8 19 e6 ff ff       	callq  402724 <_ZN6xaxaxa6BufferD1Ev>
  40410b:	4c 89 e0             	mov    %r12,%rax
  40410e:	48 63 d3             	movslq %ebx,%rdx
  404111:	89 d3                	mov    %edx,%ebx
  404113:	49 89 c4             	mov    %rax,%r12
  404116:	48 8d 45 d0          	lea    -0x30(%rbp),%rax
  40411a:	48 89 c7             	mov    %rax,%rdi
  40411d:	e8 02 e6 ff ff       	callq  402724 <_ZN6xaxaxa6BufferD1Ev>
  404122:	4c 89 e0             	mov    %r12,%rax
  404125:	48 63 d3             	movslq %ebx,%rdx
  404128:	48 89 c7             	mov    %rax,%rdi
  40412b:	e8 c8 d6 ff ff       	callq  4017f8 <_Unwind_Resume@plt>
  404130:	8b 45 ec             	mov    -0x14(%rbp),%eax
  404133:	48 83 c4 40          	add    $0x40,%rsp
  404137:	5b                   	pop    %rbx
  404138:	41 5c                	pop    %r12
  40413a:	c9                   	leaveq 
  40413b:	c3                   	retq   

000000000040413c <_ZN6xaxaxa12StreamReader4ReadEPNS_13StringBuilderEi>:
  40413c:	55                   	push   %rbp
  40413d:	48 89 e5             	mov    %rsp,%rbp
  404140:	41 54                	push   %r12
  404142:	53                   	push   %rbx
  404143:	48 83 ec 60          	sub    $0x60,%rsp
  404147:	48 89 7d a8          	mov    %rdi,-0x58(%rbp)
  40414b:	48 89 75 a0          	mov    %rsi,-0x60(%rbp)
  40414f:	89 55 9c             	mov    %edx,-0x64(%rbp)
  404152:	c7 45 ec 00 00 00 00 	movl   $0x0,-0x14(%rbp)
  404159:	48 8b 45 a8          	mov    -0x58(%rbp),%rax
  40415d:	8b 40 20             	mov    0x20(%rax),%eax
  404160:	85 c0                	test   %eax,%eax
  404162:	0f 8e f1 00 00 00    	jle    404259 <_ZN6xaxaxa12StreamReader4ReadEPNS_13StringBuilderEi+0x11d>
  404168:	48 8b 45 a8          	mov    -0x58(%rbp),%rax
  40416c:	8b 40 20             	mov    0x20(%rax),%eax
  40416f:	89 45 e8             	mov    %eax,-0x18(%rbp)
  404172:	8b 45 9c             	mov    -0x64(%rbp),%eax
  404175:	3b 45 e8             	cmp    -0x18(%rbp),%eax
  404178:	7d 06                	jge    404180 <_ZN6xaxaxa12StreamReader4ReadEPNS_13StringBuilderEi+0x44>
  40417a:	8b 45 9c             	mov    -0x64(%rbp),%eax
  40417d:	89 45 e8             	mov    %eax,-0x18(%rbp)
  404180:	48 8b 45 a8          	mov    -0x58(%rbp),%rax
  404184:	48 8b 40 10          	mov    0x10(%rax),%rax
  404188:	48 89 c2             	mov    %rax,%rdx
  40418b:	48 8b 45 a8          	mov    -0x58(%rbp),%rax
  40418f:	8b 40 1c             	mov    0x1c(%rax),%eax
  404192:	48 98                	cltq   
  404194:	48 8d 1c 02          	lea    (%rdx,%rax,1),%rbx
  404198:	8b 55 e8             	mov    -0x18(%rbp),%edx
  40419b:	48 8d 45 c0          	lea    -0x40(%rbp),%rax
  40419f:	b9 00 00 00 00       	mov    $0x0,%ecx
  4041a4:	48 89 de             	mov    %rbx,%rsi
  4041a7:	48 89 c7             	mov    %rax,%rdi
  4041aa:	e8 15 e5 ff ff       	callq  4026c4 <_ZN6xaxaxa6BufferC1EPvib>
  4041af:	48 8b 45 c0          	mov    -0x40(%rbp),%rax
  4041b3:	48 89 45 d0          	mov    %rax,-0x30(%rbp)
  4041b7:	8b 45 c8             	mov    -0x38(%rbp),%eax
  4041ba:	89 45 d8             	mov    %eax,-0x28(%rbp)
  4041bd:	0f b6 45 cc          	movzbl -0x34(%rbp),%eax
  4041c1:	88 45 dc             	mov    %al,-0x24(%rbp)
  4041c4:	48 8d 55 d0          	lea    -0x30(%rbp),%rdx
  4041c8:	48 8b 45 a0          	mov    -0x60(%rbp),%rax
  4041cc:	48 89 d6             	mov    %rdx,%rsi
  4041cf:	48 89 c7             	mov    %rax,%rdi
  4041d2:	e8 3f 0c 00 00       	callq  404e16 <_ZN6xaxaxa13StringBuilder6AppendENS_6BufferE>
  4041d7:	eb 36                	jmp    40420f <_ZN6xaxaxa12StreamReader4ReadEPNS_13StringBuilderEi+0xd3>
  4041d9:	89 d3                	mov    %edx,%ebx
  4041db:	49 89 c4             	mov    %rax,%r12
  4041de:	48 8d 45 d0          	lea    -0x30(%rbp),%rax
  4041e2:	48 89 c7             	mov    %rax,%rdi
  4041e5:	e8 3a e5 ff ff       	callq  402724 <_ZN6xaxaxa6BufferD1Ev>
  4041ea:	4c 89 e0             	mov    %r12,%rax
  4041ed:	48 63 d3             	movslq %ebx,%rdx
  4041f0:	89 d3                	mov    %edx,%ebx
  4041f2:	49 89 c4             	mov    %rax,%r12
  4041f5:	48 8d 45 c0          	lea    -0x40(%rbp),%rax
  4041f9:	48 89 c7             	mov    %rax,%rdi
  4041fc:	e8 23 e5 ff ff       	callq  402724 <_ZN6xaxaxa6BufferD1Ev>
  404201:	4c 89 e0             	mov    %r12,%rax
  404204:	48 63 d3             	movslq %ebx,%rdx
  404207:	48 89 c7             	mov    %rax,%rdi
  40420a:	e8 e9 d5 ff ff       	callq  4017f8 <_Unwind_Resume@plt>
  40420f:	48 8d 45 d0          	lea    -0x30(%rbp),%rax
  404213:	48 89 c7             	mov    %rax,%rdi
  404216:	e8 09 e5 ff ff       	callq  402724 <_ZN6xaxaxa6BufferD1Ev>
  40421b:	8b 45 e8             	mov    -0x18(%rbp),%eax
  40421e:	29 45 9c             	sub    %eax,-0x64(%rbp)
  404221:	48 8b 45 a8          	mov    -0x58(%rbp),%rax
  404225:	8b 40 1c             	mov    0x1c(%rax),%eax
  404228:	89 c2                	mov    %eax,%edx
  40422a:	03 55 e8             	add    -0x18(%rbp),%edx
  40422d:	48 8b 45 a8          	mov    -0x58(%rbp),%rax
  404231:	89 50 1c             	mov    %edx,0x1c(%rax)
  404234:	48 8b 45 a8          	mov    -0x58(%rbp),%rax
  404238:	8b 40 20             	mov    0x20(%rax),%eax
  40423b:	89 c2                	mov    %eax,%edx
  40423d:	2b 55 e8             	sub    -0x18(%rbp),%edx
  404240:	48 8b 45 a8          	mov    -0x58(%rbp),%rax
  404244:	89 50 20             	mov    %edx,0x20(%rax)
  404247:	8b 45 e8             	mov    -0x18(%rbp),%eax
  40424a:	01 45 ec             	add    %eax,-0x14(%rbp)
  40424d:	48 8d 45 c0          	lea    -0x40(%rbp),%rax
  404251:	48 89 c7             	mov    %rax,%rdi
  404254:	e8 cb e4 ff ff       	callq  402724 <_ZN6xaxaxa6BufferD1Ev>
  404259:	83 7d 9c 00          	cmpl   $0x0,-0x64(%rbp)
  40425d:	0f 8e ec 00 00 00    	jle    40434f <_ZN6xaxaxa12StreamReader4ReadEPNS_13StringBuilderEi+0x213>
  404263:	48 8b 45 a0          	mov    -0x60(%rbp),%rax
  404267:	8b 40 14             	mov    0x14(%rax),%eax
  40426a:	89 c2                	mov    %eax,%edx
  40426c:	03 55 9c             	add    -0x64(%rbp),%edx
  40426f:	48 8b 45 a0          	mov    -0x60(%rbp),%rax
  404273:	89 d6                	mov    %edx,%esi
  404275:	48 89 c7             	mov    %rax,%rdi
  404278:	e8 97 0c 00 00       	callq  404f14 <_ZN6xaxaxa13StringBuilder14EnsureCapacityEi>
  40427d:	48 8b 45 a0          	mov    -0x60(%rbp),%rax
  404281:	48 8b 40 08          	mov    0x8(%rax),%rax
  404285:	48 89 c2             	mov    %rax,%rdx
  404288:	48 8b 45 a0          	mov    -0x60(%rbp),%rax
  40428c:	8b 40 14             	mov    0x14(%rax),%eax
  40428f:	48 98                	cltq   
  404291:	48 8d 1c 02          	lea    (%rdx,%rax,1),%rbx
  404295:	8b 55 9c             	mov    -0x64(%rbp),%edx
  404298:	48 8d 45 c0          	lea    -0x40(%rbp),%rax
  40429c:	b9 00 00 00 00       	mov    $0x0,%ecx
  4042a1:	48 89 de             	mov    %rbx,%rsi
  4042a4:	48 89 c7             	mov    %rax,%rdi
  4042a7:	e8 18 e4 ff ff       	callq  4026c4 <_ZN6xaxaxa6BufferC1EPvib>
  4042ac:	48 8b 45 a8          	mov    -0x58(%rbp),%rax
  4042b0:	48 8b 40 08          	mov    0x8(%rax),%rax
  4042b4:	48 8b 00             	mov    (%rax),%rax
  4042b7:	48 8b 08             	mov    (%rax),%rcx
  4042ba:	48 8b 45 c0          	mov    -0x40(%rbp),%rax
  4042be:	48 89 45 b0          	mov    %rax,-0x50(%rbp)
  4042c2:	8b 45 c8             	mov    -0x38(%rbp),%eax
  4042c5:	89 45 b8             	mov    %eax,-0x48(%rbp)
  4042c8:	0f b6 45 cc          	movzbl -0x34(%rbp),%eax
  4042cc:	88 45 bc             	mov    %al,-0x44(%rbp)
  4042cf:	48 8b 45 a8          	mov    -0x58(%rbp),%rax
  4042d3:	48 8b 40 08          	mov    0x8(%rax),%rax
  4042d7:	48 8d 55 b0          	lea    -0x50(%rbp),%rdx
  4042db:	48 89 d6             	mov    %rdx,%rsi
  4042de:	48 89 c7             	mov    %rax,%rdi
  4042e1:	ff d1                	callq  *%rcx
  4042e3:	89 45 e4             	mov    %eax,-0x1c(%rbp)
  4042e6:	48 8d 45 b0          	lea    -0x50(%rbp),%rax
  4042ea:	48 89 c7             	mov    %rax,%rdi
  4042ed:	e8 32 e4 ff ff       	callq  402724 <_ZN6xaxaxa6BufferD1Ev>
  4042f2:	48 8b 45 a0          	mov    -0x60(%rbp),%rax
  4042f6:	8b 40 14             	mov    0x14(%rax),%eax
  4042f9:	89 c2                	mov    %eax,%edx
  4042fb:	03 55 e4             	add    -0x1c(%rbp),%edx
  4042fe:	48 8b 45 a0          	mov    -0x60(%rbp),%rax
  404302:	89 50 14             	mov    %edx,0x14(%rax)
  404305:	8b 45 e4             	mov    -0x1c(%rbp),%eax
  404308:	01 45 ec             	add    %eax,-0x14(%rbp)
  40430b:	48 8d 45 c0          	lea    -0x40(%rbp),%rax
  40430f:	48 89 c7             	mov    %rax,%rdi
  404312:	e8 0d e4 ff ff       	callq  402724 <_ZN6xaxaxa6BufferD1Ev>
  404317:	eb 36                	jmp    40434f <_ZN6xaxaxa12StreamReader4ReadEPNS_13StringBuilderEi+0x213>
  404319:	89 d3                	mov    %edx,%ebx
  40431b:	49 89 c4             	mov    %rax,%r12
  40431e:	48 8d 45 b0          	lea    -0x50(%rbp),%rax
  404322:	48 89 c7             	mov    %rax,%rdi
  404325:	e8 fa e3 ff ff       	callq  402724 <_ZN6xaxaxa6BufferD1Ev>
  40432a:	4c 89 e0             	mov    %r12,%rax
  40432d:	48 63 d3             	movslq %ebx,%rdx
  404330:	89 d3                	mov    %edx,%ebx
  404332:	49 89 c4             	mov    %rax,%r12
  404335:	48 8d 45 c0          	lea    -0x40(%rbp),%rax
  404339:	48 89 c7             	mov    %rax,%rdi
  40433c:	e8 e3 e3 ff ff       	callq  402724 <_ZN6xaxaxa6BufferD1Ev>
  404341:	4c 89 e0             	mov    %r12,%rax
  404344:	48 63 d3             	movslq %ebx,%rdx
  404347:	48 89 c7             	mov    %rax,%rdi
  40434a:	e8 a9 d4 ff ff       	callq  4017f8 <_Unwind_Resume@plt>
  40434f:	8b 45 ec             	mov    -0x14(%rbp),%eax
  404352:	48 83 c4 60          	add    $0x60,%rsp
  404356:	5b                   	pop    %rbx
  404357:	41 5c                	pop    %r12
  404359:	c9                   	leaveq 
  40435a:	c3                   	retq   
  40435b:	90                   	nop

000000000040435c <_ZN6xaxaxa12StreamReader4ReadEPNS_13StringBuilderEPKci>:
  40435c:	55                   	push   %rbp
  40435d:	48 89 e5             	mov    %rsp,%rbp
  404360:	41 54                	push   %r12
  404362:	53                   	push   %rbx
  404363:	48 81 ec 90 00 00 00 	sub    $0x90,%rsp
  40436a:	48 89 bd 78 ff ff ff 	mov    %rdi,-0x88(%rbp)
  404371:	48 89 b5 70 ff ff ff 	mov    %rsi,-0x90(%rbp)
  404378:	48 89 95 68 ff ff ff 	mov    %rdx,-0x98(%rbp)
  40437f:	89 8d 64 ff ff ff    	mov    %ecx,-0x9c(%rbp)
  404385:	c7 45 ec 00 00 00 00 	movl   $0x0,-0x14(%rbp)
  40438c:	48 8b 85 78 ff ff ff 	mov    -0x88(%rbp),%rax
  404393:	8b 40 20             	mov    0x20(%rax),%eax
  404396:	85 c0                	test   %eax,%eax
  404398:	0f 8f 01 01 00 00    	jg     40449f <_ZN6xaxaxa12StreamReader4ReadEPNS_13StringBuilderEPKci+0x143>
  40439e:	48 8b 85 78 ff ff ff 	mov    -0x88(%rbp),%rax
  4043a5:	8b 50 18             	mov    0x18(%rax),%edx
  4043a8:	48 8b 85 78 ff ff ff 	mov    -0x88(%rbp),%rax
  4043af:	48 8b 58 10          	mov    0x10(%rax),%rbx
  4043b3:	48 8d 45 b0          	lea    -0x50(%rbp),%rax
  4043b7:	b9 00 00 00 00       	mov    $0x0,%ecx
  4043bc:	48 89 de             	mov    %rbx,%rsi
  4043bf:	48 89 c7             	mov    %rax,%rdi
  4043c2:	e8 fd e2 ff ff       	callq  4026c4 <_ZN6xaxaxa6BufferC1EPvib>
  4043c7:	48 8b 85 78 ff ff ff 	mov    -0x88(%rbp),%rax
  4043ce:	48 8b 40 08          	mov    0x8(%rax),%rax
  4043d2:	48 8b 00             	mov    (%rax),%rax
  4043d5:	48 8b 08             	mov    (%rax),%rcx
  4043d8:	48 8b 45 b0          	mov    -0x50(%rbp),%rax
  4043dc:	48 89 45 c0          	mov    %rax,-0x40(%rbp)
  4043e0:	8b 45 b8             	mov    -0x48(%rbp),%eax
  4043e3:	89 45 c8             	mov    %eax,-0x38(%rbp)
  4043e6:	0f b6 45 bc          	movzbl -0x44(%rbp),%eax
  4043ea:	88 45 cc             	mov    %al,-0x34(%rbp)
  4043ed:	48 8b 85 78 ff ff ff 	mov    -0x88(%rbp),%rax
  4043f4:	48 8b 40 08          	mov    0x8(%rax),%rax
  4043f8:	48 8d 55 c0          	lea    -0x40(%rbp),%rdx
  4043fc:	48 89 d6             	mov    %rdx,%rsi
  4043ff:	48 89 c7             	mov    %rax,%rdi
  404402:	ff d1                	callq  *%rcx
  404404:	89 45 e8             	mov    %eax,-0x18(%rbp)
  404407:	48 8d 45 c0          	lea    -0x40(%rbp),%rax
  40440b:	48 89 c7             	mov    %rax,%rdi
  40440e:	e8 11 e3 ff ff       	callq  402724 <_ZN6xaxaxa6BufferD1Ev>
  404413:	83 7d e8 00          	cmpl   $0x0,-0x18(%rbp)
  404417:	7f 52                	jg     40446b <_ZN6xaxaxa12StreamReader4ReadEPNS_13StringBuilderEPKci+0x10f>
  404419:	eb 36                	jmp    404451 <_ZN6xaxaxa12StreamReader4ReadEPNS_13StringBuilderEPKci+0xf5>
  40441b:	89 d3                	mov    %edx,%ebx
  40441d:	49 89 c4             	mov    %rax,%r12
  404420:	48 8d 45 c0          	lea    -0x40(%rbp),%rax
  404424:	48 89 c7             	mov    %rax,%rdi
  404427:	e8 f8 e2 ff ff       	callq  402724 <_ZN6xaxaxa6BufferD1Ev>
  40442c:	4c 89 e0             	mov    %r12,%rax
  40442f:	48 63 d3             	movslq %ebx,%rdx
  404432:	89 d3                	mov    %edx,%ebx
  404434:	49 89 c4             	mov    %rax,%r12
  404437:	48 8d 45 b0          	lea    -0x50(%rbp),%rax
  40443b:	48 89 c7             	mov    %rax,%rdi
  40443e:	e8 e1 e2 ff ff       	callq  402724 <_ZN6xaxaxa6BufferD1Ev>
  404443:	4c 89 e0             	mov    %r12,%rax
  404446:	48 63 d3             	movslq %ebx,%rdx
  404449:	48 89 c7             	mov    %rax,%rdi
  40444c:	e8 a7 d3 ff ff       	callq  4017f8 <_Unwind_Resume@plt>
  404451:	83 7d ec 00          	cmpl   $0x0,-0x14(%rbp)
  404455:	74 05                	je     40445c <_ZN6xaxaxa12StreamReader4ReadEPNS_13StringBuilderEPKci+0x100>
  404457:	8b 45 ec             	mov    -0x14(%rbp),%eax
  40445a:	eb 05                	jmp    404461 <_ZN6xaxaxa12StreamReader4ReadEPNS_13StringBuilderEPKci+0x105>
  40445c:	b8 ff ff ff ff       	mov    $0xffffffff,%eax
  404461:	41 89 c4             	mov    %eax,%r12d
  404464:	bb 00 00 00 00       	mov    $0x0,%ebx
  404469:	eb 20                	jmp    40448b <_ZN6xaxaxa12StreamReader4ReadEPNS_13StringBuilderEPKci+0x12f>
  40446b:	48 8b 85 78 ff ff ff 	mov    -0x88(%rbp),%rax
  404472:	c7 40 1c 00 00 00 00 	movl   $0x0,0x1c(%rax)
  404479:	48 8b 85 78 ff ff ff 	mov    -0x88(%rbp),%rax
  404480:	8b 55 e8             	mov    -0x18(%rbp),%edx
  404483:	89 50 20             	mov    %edx,0x20(%rax)
  404486:	bb 01 00 00 00       	mov    $0x1,%ebx
  40448b:	48 8d 45 b0          	lea    -0x50(%rbp),%rax
  40448f:	48 89 c7             	mov    %rax,%rdi
  404492:	e8 8d e2 ff ff       	callq  402724 <_ZN6xaxaxa6BufferD1Ev>
  404497:	85 db                	test   %ebx,%ebx
  404499:	0f 84 e9 02 00 00    	je     404788 <_ZN6xaxaxa12StreamReader4ReadEPNS_13StringBuilderEPKci+0x42c>
  40449f:	48 8b 85 78 ff ff ff 	mov    -0x88(%rbp),%rax
  4044a6:	8b 50 20             	mov    0x20(%rax),%edx
  4044a9:	48 8b 85 78 ff ff ff 	mov    -0x88(%rbp),%rax
  4044b0:	8b 40 1c             	mov    0x1c(%rax),%eax
  4044b3:	8d 04 02             	lea    (%rdx,%rax,1),%eax
  4044b6:	89 45 e4             	mov    %eax,-0x1c(%rbp)
  4044b9:	48 8b 85 78 ff ff ff 	mov    -0x88(%rbp),%rax
  4044c0:	8b 40 1c             	mov    0x1c(%rax),%eax
  4044c3:	89 45 e0             	mov    %eax,-0x20(%rbp)
  4044c6:	e9 d5 01 00 00       	jmpq   4046a0 <_ZN6xaxaxa12StreamReader4ReadEPNS_13StringBuilderEPKci+0x344>
  4044cb:	c7 45 dc 00 00 00 00 	movl   $0x0,-0x24(%rbp)
  4044d2:	e9 b1 01 00 00       	jmpq   404688 <_ZN6xaxaxa12StreamReader4ReadEPNS_13StringBuilderEPKci+0x32c>
  4044d7:	48 8b 85 78 ff ff ff 	mov    -0x88(%rbp),%rax
  4044de:	48 8b 40 10          	mov    0x10(%rax),%rax
  4044e2:	48 89 c2             	mov    %rax,%rdx
  4044e5:	8b 45 e0             	mov    -0x20(%rbp),%eax
  4044e8:	48 98                	cltq   
  4044ea:	48 8d 04 02          	lea    (%rdx,%rax,1),%rax
  4044ee:	0f b6 10             	movzbl (%rax),%edx
  4044f1:	8b 45 dc             	mov    -0x24(%rbp),%eax
  4044f4:	48 98                	cltq   
  4044f6:	48 03 85 68 ff ff ff 	add    -0x98(%rbp),%rax
  4044fd:	0f b6 00             	movzbl (%rax),%eax
  404500:	38 c2                	cmp    %al,%dl
  404502:	0f 85 7c 01 00 00    	jne    404684 <_ZN6xaxaxa12StreamReader4ReadEPNS_13StringBuilderEPKci+0x328>
  404508:	48 8b 85 78 ff ff ff 	mov    -0x88(%rbp),%rax
  40450f:	8b 40 1c             	mov    0x1c(%rax),%eax
  404512:	8b 55 e0             	mov    -0x20(%rbp),%edx
  404515:	89 d1                	mov    %edx,%ecx
  404517:	29 c1                	sub    %eax,%ecx
  404519:	89 c8                	mov    %ecx,%eax
  40451b:	89 45 d8             	mov    %eax,-0x28(%rbp)
  40451e:	48 8b 85 78 ff ff ff 	mov    -0x88(%rbp),%rax
  404525:	48 8b 40 10          	mov    0x10(%rax),%rax
  404529:	48 89 c2             	mov    %rax,%rdx
  40452c:	48 8b 85 78 ff ff ff 	mov    -0x88(%rbp),%rax
  404533:	8b 40 1c             	mov    0x1c(%rax),%eax
  404536:	48 98                	cltq   
  404538:	48 8d 1c 02          	lea    (%rdx,%rax,1),%rbx
  40453c:	8b 55 d8             	mov    -0x28(%rbp),%edx
  40453f:	48 8d 45 b0          	lea    -0x50(%rbp),%rax
  404543:	b9 00 00 00 00       	mov    $0x0,%ecx
  404548:	48 89 de             	mov    %rbx,%rsi
  40454b:	48 89 c7             	mov    %rax,%rdi
  40454e:	e8 71 e1 ff ff       	callq  4026c4 <_ZN6xaxaxa6BufferC1EPvib>
  404553:	48 8b 45 b0          	mov    -0x50(%rbp),%rax
  404557:	48 89 45 a0          	mov    %rax,-0x60(%rbp)
  40455b:	8b 45 b8             	mov    -0x48(%rbp),%eax
  40455e:	89 45 a8             	mov    %eax,-0x58(%rbp)
  404561:	0f b6 45 bc          	movzbl -0x44(%rbp),%eax
  404565:	88 45 ac             	mov    %al,-0x54(%rbp)
  404568:	48 8d 55 a0          	lea    -0x60(%rbp),%rdx
  40456c:	48 8b 85 70 ff ff ff 	mov    -0x90(%rbp),%rax
  404573:	48 89 d6             	mov    %rdx,%rsi
  404576:	48 89 c7             	mov    %rax,%rdi
  404579:	e8 98 08 00 00       	callq  404e16 <_ZN6xaxaxa13StringBuilder6AppendENS_6BufferE>
  40457e:	eb 36                	jmp    4045b6 <_ZN6xaxaxa12StreamReader4ReadEPNS_13StringBuilderEPKci+0x25a>
  404580:	89 d3                	mov    %edx,%ebx
  404582:	49 89 c4             	mov    %rax,%r12
  404585:	48 8d 45 a0          	lea    -0x60(%rbp),%rax
  404589:	48 89 c7             	mov    %rax,%rdi
  40458c:	e8 93 e1 ff ff       	callq  402724 <_ZN6xaxaxa6BufferD1Ev>
  404591:	4c 89 e0             	mov    %r12,%rax
  404594:	48 63 d3             	movslq %ebx,%rdx
  404597:	89 d3                	mov    %edx,%ebx
  404599:	49 89 c4             	mov    %rax,%r12
  40459c:	48 8d 45 b0          	lea    -0x50(%rbp),%rax
  4045a0:	48 89 c7             	mov    %rax,%rdi
  4045a3:	e8 7c e1 ff ff       	callq  402724 <_ZN6xaxaxa6BufferD1Ev>
  4045a8:	4c 89 e0             	mov    %r12,%rax
  4045ab:	48 63 d3             	movslq %ebx,%rdx
  4045ae:	48 89 c7             	mov    %rax,%rdi
  4045b1:	e8 42 d2 ff ff       	callq  4017f8 <_Unwind_Resume@plt>
  4045b6:	48 8d 45 a0          	lea    -0x60(%rbp),%rax
  4045ba:	48 89 c7             	mov    %rax,%rdi
  4045bd:	e8 62 e1 ff ff       	callq  402724 <_ZN6xaxaxa6BufferD1Ev>
  4045c2:	8b 45 d8             	mov    -0x28(%rbp),%eax
  4045c5:	01 45 ec             	add    %eax,-0x14(%rbp)
  4045c8:	83 45 d8 01          	addl   $0x1,-0x28(%rbp)
  4045cc:	eb 5b                	jmp    404629 <_ZN6xaxaxa12StreamReader4ReadEPNS_13StringBuilderEPKci+0x2cd>
  4045ce:	c7 45 dc 00 00 00 00 	movl   $0x0,-0x24(%rbp)
  4045d5:	eb 3b                	jmp    404612 <_ZN6xaxaxa12StreamReader4ReadEPNS_13StringBuilderEPKci+0x2b6>
  4045d7:	48 8b 85 78 ff ff ff 	mov    -0x88(%rbp),%rax
  4045de:	48 8b 40 10          	mov    0x10(%rax),%rax
  4045e2:	48 89 c2             	mov    %rax,%rdx
  4045e5:	48 8b 85 78 ff ff ff 	mov    -0x88(%rbp),%rax
  4045ec:	8b 40 1c             	mov    0x1c(%rax),%eax
  4045ef:	03 45 d8             	add    -0x28(%rbp),%eax
  4045f2:	48 98                	cltq   
  4045f4:	48 8d 04 02          	lea    (%rdx,%rax,1),%rax
  4045f8:	0f b6 10             	movzbl (%rax),%edx
  4045fb:	8b 45 dc             	mov    -0x24(%rbp),%eax
  4045fe:	48 98                	cltq   
  404600:	48 03 85 68 ff ff ff 	add    -0x98(%rbp),%rax
  404607:	0f b6 00             	movzbl (%rax),%eax
  40460a:	38 c2                	cmp    %al,%dl
  40460c:	74 16                	je     404624 <_ZN6xaxaxa12StreamReader4ReadEPNS_13StringBuilderEPKci+0x2c8>
  40460e:	83 45 dc 01          	addl   $0x1,-0x24(%rbp)
  404612:	8b 45 dc             	mov    -0x24(%rbp),%eax
  404615:	3b 85 64 ff ff ff    	cmp    -0x9c(%rbp),%eax
  40461b:	0f 9c c0             	setl   %al
  40461e:	84 c0                	test   %al,%al
  404620:	75 b5                	jne    4045d7 <_ZN6xaxaxa12StreamReader4ReadEPNS_13StringBuilderEPKci+0x27b>
  404622:	eb 19                	jmp    40463d <_ZN6xaxaxa12StreamReader4ReadEPNS_13StringBuilderEPKci+0x2e1>
  404624:	90                   	nop
  404625:	83 45 d8 01          	addl   $0x1,-0x28(%rbp)
  404629:	48 8b 85 78 ff ff ff 	mov    -0x88(%rbp),%rax
  404630:	8b 40 20             	mov    0x20(%rax),%eax
  404633:	3b 45 d8             	cmp    -0x28(%rbp),%eax
  404636:	0f 9f c0             	setg   %al
  404639:	84 c0                	test   %al,%al
  40463b:	75 91                	jne    4045ce <_ZN6xaxaxa12StreamReader4ReadEPNS_13StringBuilderEPKci+0x272>
  40463d:	48 8b 85 78 ff ff ff 	mov    -0x88(%rbp),%rax
  404644:	8b 40 1c             	mov    0x1c(%rax),%eax
  404647:	89 c2                	mov    %eax,%edx
  404649:	03 55 d8             	add    -0x28(%rbp),%edx
  40464c:	48 8b 85 78 ff ff ff 	mov    -0x88(%rbp),%rax
  404653:	89 50 1c             	mov    %edx,0x1c(%rax)
  404656:	48 8b 85 78 ff ff ff 	mov    -0x88(%rbp),%rax
  40465d:	8b 40 20             	mov    0x20(%rax),%eax
  404660:	89 c2                	mov    %eax,%edx
  404662:	2b 55 d8             	sub    -0x28(%rbp),%edx
  404665:	48 8b 85 78 ff ff ff 	mov    -0x88(%rbp),%rax
  40466c:	89 50 20             	mov    %edx,0x20(%rax)
  40466f:	44 8b 65 ec          	mov    -0x14(%rbp),%r12d
  404673:	48 8d 45 b0          	lea    -0x50(%rbp),%rax
  404677:	48 89 c7             	mov    %rax,%rdi
  40467a:	e8 a5 e0 ff ff       	callq  402724 <_ZN6xaxaxa6BufferD1Ev>
  40467f:	e9 04 01 00 00       	jmpq   404788 <_ZN6xaxaxa12StreamReader4ReadEPNS_13StringBuilderEPKci+0x42c>
  404684:	83 45 dc 01          	addl   $0x1,-0x24(%rbp)
  404688:	8b 45 dc             	mov    -0x24(%rbp),%eax
  40468b:	3b 85 64 ff ff ff    	cmp    -0x9c(%rbp),%eax
  404691:	0f 9c c0             	setl   %al
  404694:	84 c0                	test   %al,%al
  404696:	0f 85 3b fe ff ff    	jne    4044d7 <_ZN6xaxaxa12StreamReader4ReadEPNS_13StringBuilderEPKci+0x17b>
  40469c:	83 45 e0 01          	addl   $0x1,-0x20(%rbp)
  4046a0:	8b 45 e0             	mov    -0x20(%rbp),%eax
  4046a3:	3b 45 e4             	cmp    -0x1c(%rbp),%eax
  4046a6:	0f 9c c0             	setl   %al
  4046a9:	84 c0                	test   %al,%al
  4046ab:	0f 85 1a fe ff ff    	jne    4044cb <_ZN6xaxaxa12StreamReader4ReadEPNS_13StringBuilderEPKci+0x16f>
  4046b1:	48 8b 85 78 ff ff ff 	mov    -0x88(%rbp),%rax
  4046b8:	8b 50 20             	mov    0x20(%rax),%edx
  4046bb:	48 8b 85 78 ff ff ff 	mov    -0x88(%rbp),%rax
  4046c2:	48 8b 40 10          	mov    0x10(%rax),%rax
  4046c6:	48 89 c1             	mov    %rax,%rcx
  4046c9:	48 8b 85 78 ff ff ff 	mov    -0x88(%rbp),%rax
  4046d0:	8b 40 1c             	mov    0x1c(%rax),%eax
  4046d3:	48 98                	cltq   
  4046d5:	48 8d 1c 01          	lea    (%rcx,%rax,1),%rbx
  4046d9:	48 8d 45 90          	lea    -0x70(%rbp),%rax
  4046dd:	b9 00 00 00 00       	mov    $0x0,%ecx
  4046e2:	48 89 de             	mov    %rbx,%rsi
  4046e5:	48 89 c7             	mov    %rax,%rdi
  4046e8:	e8 d7 df ff ff       	callq  4026c4 <_ZN6xaxaxa6BufferC1EPvib>
  4046ed:	48 8b 45 90          	mov    -0x70(%rbp),%rax
  4046f1:	48 89 45 80          	mov    %rax,-0x80(%rbp)
  4046f5:	8b 45 98             	mov    -0x68(%rbp),%eax
  4046f8:	89 45 88             	mov    %eax,-0x78(%rbp)
  4046fb:	0f b6 45 9c          	movzbl -0x64(%rbp),%eax
  4046ff:	88 45 8c             	mov    %al,-0x74(%rbp)
  404702:	48 8d 55 80          	lea    -0x80(%rbp),%rdx
  404706:	48 8b 85 70 ff ff ff 	mov    -0x90(%rbp),%rax
  40470d:	48 89 d6             	mov    %rdx,%rsi
  404710:	48 89 c7             	mov    %rax,%rdi
  404713:	e8 fe 06 00 00       	callq  404e16 <_ZN6xaxaxa13StringBuilder6AppendENS_6BufferE>
  404718:	eb 36                	jmp    404750 <_ZN6xaxaxa12StreamReader4ReadEPNS_13StringBuilderEPKci+0x3f4>
  40471a:	89 d3                	mov    %edx,%ebx
  40471c:	49 89 c4             	mov    %rax,%r12
  40471f:	48 8d 45 80          	lea    -0x80(%rbp),%rax
  404723:	48 89 c7             	mov    %rax,%rdi
  404726:	e8 f9 df ff ff       	callq  402724 <_ZN6xaxaxa6BufferD1Ev>
  40472b:	4c 89 e0             	mov    %r12,%rax
  40472e:	48 63 d3             	movslq %ebx,%rdx
  404731:	89 d3                	mov    %edx,%ebx
  404733:	49 89 c4             	mov    %rax,%r12
  404736:	48 8d 45 90          	lea    -0x70(%rbp),%rax
  40473a:	48 89 c7             	mov    %rax,%rdi
  40473d:	e8 e2 df ff ff       	callq  402724 <_ZN6xaxaxa6BufferD1Ev>
  404742:	4c 89 e0             	mov    %r12,%rax
  404745:	48 63 d3             	movslq %ebx,%rdx
  404748:	48 89 c7             	mov    %rax,%rdi
  40474b:	e8 a8 d0 ff ff       	callq  4017f8 <_Unwind_Resume@plt>
  404750:	48 8d 45 80          	lea    -0x80(%rbp),%rax
  404754:	48 89 c7             	mov    %rax,%rdi
  404757:	e8 c8 df ff ff       	callq  402724 <_ZN6xaxaxa6BufferD1Ev>
  40475c:	48 8b 85 78 ff ff ff 	mov    -0x88(%rbp),%rax
  404763:	8b 40 20             	mov    0x20(%rax),%eax
  404766:	01 45 ec             	add    %eax,-0x14(%rbp)
  404769:	48 8b 85 78 ff ff ff 	mov    -0x88(%rbp),%rax
  404770:	c7 40 20 00 00 00 00 	movl   $0x0,0x20(%rax)
  404777:	48 8d 45 90          	lea    -0x70(%rbp),%rax
  40477b:	48 89 c7             	mov    %rax,%rdi
  40477e:	e8 a1 df ff ff       	callq  402724 <_ZN6xaxaxa6BufferD1Ev>
  404783:	e9 04 fc ff ff       	jmpq   40438c <_ZN6xaxaxa12StreamReader4ReadEPNS_13StringBuilderEPKci+0x30>
  404788:	44 89 e0             	mov    %r12d,%eax
  40478b:	48 81 c4 90 00 00 00 	add    $0x90,%rsp
  404792:	5b                   	pop    %rbx
  404793:	41 5c                	pop    %r12
  404795:	c9                   	leaveq 
  404796:	c3                   	retq   
  404797:	90                   	nop

0000000000404798 <_ZN6xaxaxa12StreamReader4ReadEPNS_6StreamEPKci>:
  404798:	55                   	push   %rbp
  404799:	48 89 e5             	mov    %rsp,%rbp
  40479c:	41 54                	push   %r12
  40479e:	53                   	push   %rbx
  40479f:	48 81 ec 90 00 00 00 	sub    $0x90,%rsp
  4047a6:	48 89 bd 78 ff ff ff 	mov    %rdi,-0x88(%rbp)
  4047ad:	48 89 b5 70 ff ff ff 	mov    %rsi,-0x90(%rbp)
  4047b4:	48 89 95 68 ff ff ff 	mov    %rdx,-0x98(%rbp)
  4047bb:	89 8d 64 ff ff ff    	mov    %ecx,-0x9c(%rbp)
  4047c1:	c7 45 ec 00 00 00 00 	movl   $0x0,-0x14(%rbp)
  4047c8:	48 8b 85 78 ff ff ff 	mov    -0x88(%rbp),%rax
  4047cf:	8b 40 20             	mov    0x20(%rax),%eax
  4047d2:	85 c0                	test   %eax,%eax
  4047d4:	0f 8f 01 01 00 00    	jg     4048db <_ZN6xaxaxa12StreamReader4ReadEPNS_6StreamEPKci+0x143>
  4047da:	48 8b 85 78 ff ff ff 	mov    -0x88(%rbp),%rax
  4047e1:	8b 50 18             	mov    0x18(%rax),%edx
  4047e4:	48 8b 85 78 ff ff ff 	mov    -0x88(%rbp),%rax
  4047eb:	48 8b 58 10          	mov    0x10(%rax),%rbx
  4047ef:	48 8d 45 b0          	lea    -0x50(%rbp),%rax
  4047f3:	b9 00 00 00 00       	mov    $0x0,%ecx
  4047f8:	48 89 de             	mov    %rbx,%rsi
  4047fb:	48 89 c7             	mov    %rax,%rdi
  4047fe:	e8 c1 de ff ff       	callq  4026c4 <_ZN6xaxaxa6BufferC1EPvib>
  404803:	48 8b 85 78 ff ff ff 	mov    -0x88(%rbp),%rax
  40480a:	48 8b 40 08          	mov    0x8(%rax),%rax
  40480e:	48 8b 00             	mov    (%rax),%rax
  404811:	48 8b 08             	mov    (%rax),%rcx
  404814:	48 8b 45 b0          	mov    -0x50(%rbp),%rax
  404818:	48 89 45 c0          	mov    %rax,-0x40(%rbp)
  40481c:	8b 45 b8             	mov    -0x48(%rbp),%eax
  40481f:	89 45 c8             	mov    %eax,-0x38(%rbp)
  404822:	0f b6 45 bc          	movzbl -0x44(%rbp),%eax
  404826:	88 45 cc             	mov    %al,-0x34(%rbp)
  404829:	48 8b 85 78 ff ff ff 	mov    -0x88(%rbp),%rax
  404830:	48 8b 40 08          	mov    0x8(%rax),%rax
  404834:	48 8d 55 c0          	lea    -0x40(%rbp),%rdx
  404838:	48 89 d6             	mov    %rdx,%rsi
  40483b:	48 89 c7             	mov    %rax,%rdi
  40483e:	ff d1                	callq  *%rcx
  404840:	89 45 e8             	mov    %eax,-0x18(%rbp)
  404843:	48 8d 45 c0          	lea    -0x40(%rbp),%rax
  404847:	48 89 c7             	mov    %rax,%rdi
  40484a:	e8 d5 de ff ff       	callq  402724 <_ZN6xaxaxa6BufferD1Ev>
  40484f:	83 7d e8 00          	cmpl   $0x0,-0x18(%rbp)
  404853:	7f 52                	jg     4048a7 <_ZN6xaxaxa12StreamReader4ReadEPNS_6StreamEPKci+0x10f>
  404855:	eb 36                	jmp    40488d <_ZN6xaxaxa12StreamReader4ReadEPNS_6StreamEPKci+0xf5>
  404857:	89 d3                	mov    %edx,%ebx
  404859:	49 89 c4             	mov    %rax,%r12
  40485c:	48 8d 45 c0          	lea    -0x40(%rbp),%rax
  404860:	48 89 c7             	mov    %rax,%rdi
  404863:	e8 bc de ff ff       	callq  402724 <_ZN6xaxaxa6BufferD1Ev>
  404868:	4c 89 e0             	mov    %r12,%rax
  40486b:	48 63 d3             	movslq %ebx,%rdx
  40486e:	89 d3                	mov    %edx,%ebx
  404870:	49 89 c4             	mov    %rax,%r12
  404873:	48 8d 45 b0          	lea    -0x50(%rbp),%rax
  404877:	48 89 c7             	mov    %rax,%rdi
  40487a:	e8 a5 de ff ff       	callq  402724 <_ZN6xaxaxa6BufferD1Ev>
  40487f:	4c 89 e0             	mov    %r12,%rax
  404882:	48 63 d3             	movslq %ebx,%rdx
  404885:	48 89 c7             	mov    %rax,%rdi
  404888:	e8 6b cf ff ff       	callq  4017f8 <_Unwind_Resume@plt>
  40488d:	83 7d ec 00          	cmpl   $0x0,-0x14(%rbp)
  404891:	74 05                	je     404898 <_ZN6xaxaxa12StreamReader4ReadEPNS_6StreamEPKci+0x100>
  404893:	8b 45 ec             	mov    -0x14(%rbp),%eax
  404896:	eb 05                	jmp    40489d <_ZN6xaxaxa12StreamReader4ReadEPNS_6StreamEPKci+0x105>
  404898:	b8 ff ff ff ff       	mov    $0xffffffff,%eax
  40489d:	41 89 c4             	mov    %eax,%r12d
  4048a0:	bb 00 00 00 00       	mov    $0x0,%ebx
  4048a5:	eb 20                	jmp    4048c7 <_ZN6xaxaxa12StreamReader4ReadEPNS_6StreamEPKci+0x12f>
  4048a7:	48 8b 85 78 ff ff ff 	mov    -0x88(%rbp),%rax
  4048ae:	c7 40 1c 00 00 00 00 	movl   $0x0,0x1c(%rax)
  4048b5:	48 8b 85 78 ff ff ff 	mov    -0x88(%rbp),%rax
  4048bc:	8b 55 e8             	mov    -0x18(%rbp),%edx
  4048bf:	89 50 20             	mov    %edx,0x20(%rax)
  4048c2:	bb 01 00 00 00       	mov    $0x1,%ebx
  4048c7:	48 8d 45 b0          	lea    -0x50(%rbp),%rax
  4048cb:	48 89 c7             	mov    %rax,%rdi
  4048ce:	e8 51 de ff ff       	callq  402724 <_ZN6xaxaxa6BufferD1Ev>
  4048d3:	85 db                	test   %ebx,%ebx
  4048d5:	0f 84 05 03 00 00    	je     404be0 <_ZN6xaxaxa12StreamReader4ReadEPNS_6StreamEPKci+0x448>
  4048db:	48 8b 85 78 ff ff ff 	mov    -0x88(%rbp),%rax
  4048e2:	8b 50 20             	mov    0x20(%rax),%edx
  4048e5:	48 8b 85 78 ff ff ff 	mov    -0x88(%rbp),%rax
  4048ec:	8b 40 1c             	mov    0x1c(%rax),%eax
  4048ef:	8d 04 02             	lea    (%rdx,%rax,1),%eax
  4048f2:	89 45 e4             	mov    %eax,-0x1c(%rbp)
  4048f5:	48 8b 85 78 ff ff ff 	mov    -0x88(%rbp),%rax
  4048fc:	8b 40 1c             	mov    0x1c(%rax),%eax
  4048ff:	89 45 e0             	mov    %eax,-0x20(%rbp)
  404902:	e9 e3 01 00 00       	jmpq   404aea <_ZN6xaxaxa12StreamReader4ReadEPNS_6StreamEPKci+0x352>
  404907:	c7 45 dc 00 00 00 00 	movl   $0x0,-0x24(%rbp)
  40490e:	e9 bf 01 00 00       	jmpq   404ad2 <_ZN6xaxaxa12StreamReader4ReadEPNS_6StreamEPKci+0x33a>
  404913:	48 8b 85 78 ff ff ff 	mov    -0x88(%rbp),%rax
  40491a:	48 8b 40 10          	mov    0x10(%rax),%rax
  40491e:	48 89 c2             	mov    %rax,%rdx
  404921:	8b 45 e0             	mov    -0x20(%rbp),%eax
  404924:	48 98                	cltq   
  404926:	48 8d 04 02          	lea    (%rdx,%rax,1),%rax
  40492a:	0f b6 10             	movzbl (%rax),%edx
  40492d:	8b 45 dc             	mov    -0x24(%rbp),%eax
  404930:	48 98                	cltq   
  404932:	48 03 85 68 ff ff ff 	add    -0x98(%rbp),%rax
  404939:	0f b6 00             	movzbl (%rax),%eax
  40493c:	38 c2                	cmp    %al,%dl
  40493e:	0f 85 8a 01 00 00    	jne    404ace <_ZN6xaxaxa12StreamReader4ReadEPNS_6StreamEPKci+0x336>
  404944:	48 8b 85 78 ff ff ff 	mov    -0x88(%rbp),%rax
  40494b:	8b 40 1c             	mov    0x1c(%rax),%eax
  40494e:	8b 55 e0             	mov    -0x20(%rbp),%edx
  404951:	89 d1                	mov    %edx,%ecx
  404953:	29 c1                	sub    %eax,%ecx
  404955:	89 c8                	mov    %ecx,%eax
  404957:	89 45 d8             	mov    %eax,-0x28(%rbp)
  40495a:	48 8b 85 78 ff ff ff 	mov    -0x88(%rbp),%rax
  404961:	48 8b 40 10          	mov    0x10(%rax),%rax
  404965:	48 89 c2             	mov    %rax,%rdx
  404968:	48 8b 85 78 ff ff ff 	mov    -0x88(%rbp),%rax
  40496f:	8b 40 1c             	mov    0x1c(%rax),%eax
  404972:	48 98                	cltq   
  404974:	48 8d 1c 02          	lea    (%rdx,%rax,1),%rbx
  404978:	8b 55 d8             	mov    -0x28(%rbp),%edx
  40497b:	48 8d 45 b0          	lea    -0x50(%rbp),%rax
  40497f:	b9 00 00 00 00       	mov    $0x0,%ecx
  404984:	48 89 de             	mov    %rbx,%rsi
  404987:	48 89 c7             	mov    %rax,%rdi
  40498a:	e8 35 dd ff ff       	callq  4026c4 <_ZN6xaxaxa6BufferC1EPvib>
  40498f:	48 8b 85 70 ff ff ff 	mov    -0x90(%rbp),%rax
  404996:	48 8b 00             	mov    (%rax),%rax
  404999:	48 83 c0 08          	add    $0x8,%rax
  40499d:	48 8b 08             	mov    (%rax),%rcx
  4049a0:	48 8b 45 b0          	mov    -0x50(%rbp),%rax
  4049a4:	48 89 45 a0          	mov    %rax,-0x60(%rbp)
  4049a8:	8b 45 b8             	mov    -0x48(%rbp),%eax
  4049ab:	89 45 a8             	mov    %eax,-0x58(%rbp)
  4049ae:	0f b6 45 bc          	movzbl -0x44(%rbp),%eax
  4049b2:	88 45 ac             	mov    %al,-0x54(%rbp)
  4049b5:	48 8d 55 a0          	lea    -0x60(%rbp),%rdx
  4049b9:	48 8b 85 70 ff ff ff 	mov    -0x90(%rbp),%rax
  4049c0:	48 89 d6             	mov    %rdx,%rsi
  4049c3:	48 89 c7             	mov    %rax,%rdi
  4049c6:	ff d1                	callq  *%rcx
  4049c8:	eb 36                	jmp    404a00 <_ZN6xaxaxa12StreamReader4ReadEPNS_6StreamEPKci+0x268>
  4049ca:	89 d3                	mov    %edx,%ebx
  4049cc:	49 89 c4             	mov    %rax,%r12
  4049cf:	48 8d 45 a0          	lea    -0x60(%rbp),%rax
  4049d3:	48 89 c7             	mov    %rax,%rdi
  4049d6:	e8 49 dd ff ff       	callq  402724 <_ZN6xaxaxa6BufferD1Ev>
  4049db:	4c 89 e0             	mov    %r12,%rax
  4049de:	48 63 d3             	movslq %ebx,%rdx
  4049e1:	89 d3                	mov    %edx,%ebx
  4049e3:	49 89 c4             	mov    %rax,%r12
  4049e6:	48 8d 45 b0          	lea    -0x50(%rbp),%rax
  4049ea:	48 89 c7             	mov    %rax,%rdi
  4049ed:	e8 32 dd ff ff       	callq  402724 <_ZN6xaxaxa6BufferD1Ev>
  4049f2:	4c 89 e0             	mov    %r12,%rax
  4049f5:	48 63 d3             	movslq %ebx,%rdx
  4049f8:	48 89 c7             	mov    %rax,%rdi
  4049fb:	e8 f8 cd ff ff       	callq  4017f8 <_Unwind_Resume@plt>
  404a00:	48 8d 45 a0          	lea    -0x60(%rbp),%rax
  404a04:	48 89 c7             	mov    %rax,%rdi
  404a07:	e8 18 dd ff ff       	callq  402724 <_ZN6xaxaxa6BufferD1Ev>
  404a0c:	8b 45 d8             	mov    -0x28(%rbp),%eax
  404a0f:	01 45 ec             	add    %eax,-0x14(%rbp)
  404a12:	83 45 d8 01          	addl   $0x1,-0x28(%rbp)
  404a16:	eb 5b                	jmp    404a73 <_ZN6xaxaxa12StreamReader4ReadEPNS_6StreamEPKci+0x2db>
  404a18:	c7 45 dc 00 00 00 00 	movl   $0x0,-0x24(%rbp)
  404a1f:	eb 3b                	jmp    404a5c <_ZN6xaxaxa12StreamReader4ReadEPNS_6StreamEPKci+0x2c4>
  404a21:	48 8b 85 78 ff ff ff 	mov    -0x88(%rbp),%rax
  404a28:	48 8b 40 10          	mov    0x10(%rax),%rax
  404a2c:	48 89 c2             	mov    %rax,%rdx
  404a2f:	48 8b 85 78 ff ff ff 	mov    -0x88(%rbp),%rax
  404a36:	8b 40 1c             	mov    0x1c(%rax),%eax
  404a39:	03 45 d8             	add    -0x28(%rbp),%eax
  404a3c:	48 98                	cltq   
  404a3e:	48 8d 04 02          	lea    (%rdx,%rax,1),%rax
  404a42:	0f b6 10             	movzbl (%rax),%edx
  404a45:	8b 45 dc             	mov    -0x24(%rbp),%eax
  404a48:	48 98                	cltq   
  404a4a:	48 03 85 68 ff ff ff 	add    -0x98(%rbp),%rax
  404a51:	0f b6 00             	movzbl (%rax),%eax
  404a54:	38 c2                	cmp    %al,%dl
  404a56:	74 16                	je     404a6e <_ZN6xaxaxa12StreamReader4ReadEPNS_6StreamEPKci+0x2d6>
  404a58:	83 45 dc 01          	addl   $0x1,-0x24(%rbp)
  404a5c:	8b 45 dc             	mov    -0x24(%rbp),%eax
  404a5f:	3b 85 64 ff ff ff    	cmp    -0x9c(%rbp),%eax
  404a65:	0f 9c c0             	setl   %al
  404a68:	84 c0                	test   %al,%al
  404a6a:	75 b5                	jne    404a21 <_ZN6xaxaxa12StreamReader4ReadEPNS_6StreamEPKci+0x289>
  404a6c:	eb 19                	jmp    404a87 <_ZN6xaxaxa12StreamReader4ReadEPNS_6StreamEPKci+0x2ef>
  404a6e:	90                   	nop
  404a6f:	83 45 d8 01          	addl   $0x1,-0x28(%rbp)
  404a73:	48 8b 85 78 ff ff ff 	mov    -0x88(%rbp),%rax
  404a7a:	8b 40 20             	mov    0x20(%rax),%eax
  404a7d:	3b 45 d8             	cmp    -0x28(%rbp),%eax
  404a80:	0f 9f c0             	setg   %al
  404a83:	84 c0                	test   %al,%al
  404a85:	75 91                	jne    404a18 <_ZN6xaxaxa12StreamReader4ReadEPNS_6StreamEPKci+0x280>
  404a87:	48 8b 85 78 ff ff ff 	mov    -0x88(%rbp),%rax
  404a8e:	8b 40 1c             	mov    0x1c(%rax),%eax
  404a91:	89 c2                	mov    %eax,%edx
  404a93:	03 55 d8             	add    -0x28(%rbp),%edx
  404a96:	48 8b 85 78 ff ff ff 	mov    -0x88(%rbp),%rax
  404a9d:	89 50 1c             	mov    %edx,0x1c(%rax)
  404aa0:	48 8b 85 78 ff ff ff 	mov    -0x88(%rbp),%rax
  404aa7:	8b 40 20             	mov    0x20(%rax),%eax
  404aaa:	89 c2                	mov    %eax,%edx
  404aac:	2b 55 d8             	sub    -0x28(%rbp),%edx
  404aaf:	48 8b 85 78 ff ff ff 	mov    -0x88(%rbp),%rax
  404ab6:	89 50 20             	mov    %edx,0x20(%rax)
  404ab9:	44 8b 65 ec          	mov    -0x14(%rbp),%r12d
  404abd:	48 8d 45 b0          	lea    -0x50(%rbp),%rax
  404ac1:	48 89 c7             	mov    %rax,%rdi
  404ac4:	e8 5b dc ff ff       	callq  402724 <_ZN6xaxaxa6BufferD1Ev>
  404ac9:	e9 12 01 00 00       	jmpq   404be0 <_ZN6xaxaxa12StreamReader4ReadEPNS_6StreamEPKci+0x448>
  404ace:	83 45 dc 01          	addl   $0x1,-0x24(%rbp)
  404ad2:	8b 45 dc             	mov    -0x24(%rbp),%eax
  404ad5:	3b 85 64 ff ff ff    	cmp    -0x9c(%rbp),%eax
  404adb:	0f 9c c0             	setl   %al
  404ade:	84 c0                	test   %al,%al
  404ae0:	0f 85 2d fe ff ff    	jne    404913 <_ZN6xaxaxa12StreamReader4ReadEPNS_6StreamEPKci+0x17b>
  404ae6:	83 45 e0 01          	addl   $0x1,-0x20(%rbp)
  404aea:	8b 45 e0             	mov    -0x20(%rbp),%eax
  404aed:	3b 45 e4             	cmp    -0x1c(%rbp),%eax
  404af0:	0f 9c c0             	setl   %al
  404af3:	84 c0                	test   %al,%al
  404af5:	0f 85 0c fe ff ff    	jne    404907 <_ZN6xaxaxa12StreamReader4ReadEPNS_6StreamEPKci+0x16f>
  404afb:	48 8b 85 78 ff ff ff 	mov    -0x88(%rbp),%rax
  404b02:	8b 50 20             	mov    0x20(%rax),%edx
  404b05:	48 8b 85 78 ff ff ff 	mov    -0x88(%rbp),%rax
  404b0c:	48 8b 40 10          	mov    0x10(%rax),%rax
  404b10:	48 89 c1             	mov    %rax,%rcx
  404b13:	48 8b 85 78 ff ff ff 	mov    -0x88(%rbp),%rax
  404b1a:	8b 40 1c             	mov    0x1c(%rax),%eax
  404b1d:	48 98                	cltq   
  404b1f:	48 8d 1c 01          	lea    (%rcx,%rax,1),%rbx
  404b23:	48 8d 45 90          	lea    -0x70(%rbp),%rax
  404b27:	b9 00 00 00 00       	mov    $0x0,%ecx
  404b2c:	48 89 de             	mov    %rbx,%rsi
  404b2f:	48 89 c7             	mov    %rax,%rdi
  404b32:	e8 8d db ff ff       	callq  4026c4 <_ZN6xaxaxa6BufferC1EPvib>
  404b37:	48 8b 85 70 ff ff ff 	mov    -0x90(%rbp),%rax
  404b3e:	48 8b 00             	mov    (%rax),%rax
  404b41:	48 83 c0 08          	add    $0x8,%rax
  404b45:	48 8b 08             	mov    (%rax),%rcx
  404b48:	48 8b 45 90          	mov    -0x70(%rbp),%rax
  404b4c:	48 89 45 80          	mov    %rax,-0x80(%rbp)
  404b50:	8b 45 98             	mov    -0x68(%rbp),%eax
  404b53:	89 45 88             	mov    %eax,-0x78(%rbp)
  404b56:	0f b6 45 9c          	movzbl -0x64(%rbp),%eax
  404b5a:	88 45 8c             	mov    %al,-0x74(%rbp)
  404b5d:	48 8d 55 80          	lea    -0x80(%rbp),%rdx
  404b61:	48 8b 85 70 ff ff ff 	mov    -0x90(%rbp),%rax
  404b68:	48 89 d6             	mov    %rdx,%rsi
  404b6b:	48 89 c7             	mov    %rax,%rdi
  404b6e:	ff d1                	callq  *%rcx
  404b70:	eb 36                	jmp    404ba8 <_ZN6xaxaxa12StreamReader4ReadEPNS_6StreamEPKci+0x410>
  404b72:	89 d3                	mov    %edx,%ebx
  404b74:	49 89 c4             	mov    %rax,%r12
  404b77:	48 8d 45 80          	lea    -0x80(%rbp),%rax
  404b7b:	48 89 c7             	mov    %rax,%rdi
  404b7e:	e8 a1 db ff ff       	callq  402724 <_ZN6xaxaxa6BufferD1Ev>
  404b83:	4c 89 e0             	mov    %r12,%rax
  404b86:	48 63 d3             	movslq %ebx,%rdx
  404b89:	89 d3                	mov    %edx,%ebx
  404b8b:	49 89 c4             	mov    %rax,%r12
  404b8e:	48 8d 45 90          	lea    -0x70(%rbp),%rax
  404b92:	48 89 c7             	mov    %rax,%rdi
  404b95:	e8 8a db ff ff       	callq  402724 <_ZN6xaxaxa6BufferD1Ev>
  404b9a:	4c 89 e0             	mov    %r12,%rax
  404b9d:	48 63 d3             	movslq %ebx,%rdx
  404ba0:	48 89 c7             	mov    %rax,%rdi
  404ba3:	e8 50 cc ff ff       	callq  4017f8 <_Unwind_Resume@plt>
  404ba8:	48 8d 45 80          	lea    -0x80(%rbp),%rax
  404bac:	48 89 c7             	mov    %rax,%rdi
  404baf:	e8 70 db ff ff       	callq  402724 <_ZN6xaxaxa6BufferD1Ev>
  404bb4:	48 8b 85 78 ff ff ff 	mov    -0x88(%rbp),%rax
  404bbb:	8b 40 20             	mov    0x20(%rax),%eax
  404bbe:	01 45 ec             	add    %eax,-0x14(%rbp)
  404bc1:	48 8b 85 78 ff ff ff 	mov    -0x88(%rbp),%rax
  404bc8:	c7 40 20 00 00 00 00 	movl   $0x0,0x20(%rax)
  404bcf:	48 8d 45 90          	lea    -0x70(%rbp),%rax
  404bd3:	48 89 c7             	mov    %rax,%rdi
  404bd6:	e8 49 db ff ff       	callq  402724 <_ZN6xaxaxa6BufferD1Ev>
  404bdb:	e9 e8 fb ff ff       	jmpq   4047c8 <_ZN6xaxaxa12StreamReader4ReadEPNS_6StreamEPKci+0x30>
  404be0:	44 89 e0             	mov    %r12d,%eax
  404be3:	48 81 c4 90 00 00 00 	add    $0x90,%rsp
  404bea:	5b                   	pop    %rbx
  404beb:	41 5c                	pop    %r12
  404bed:	c9                   	leaveq 
  404bee:	c3                   	retq   
  404bef:	90                   	nop

0000000000404bf0 <_ZN6xaxaxa12StreamReader8ReadLineEPNS_13StringBuilderE>:
  404bf0:	55                   	push   %rbp
  404bf1:	48 89 e5             	mov    %rsp,%rbp
  404bf4:	53                   	push   %rbx
  404bf5:	48 83 ec 18          	sub    $0x18,%rsp
  404bf9:	48 89 7d e8          	mov    %rdi,-0x18(%rbp)
  404bfd:	48 89 75 e0          	mov    %rsi,-0x20(%rbp)
  404c01:	48 8b 45 e8          	mov    -0x18(%rbp),%rax
  404c05:	48 8b 00             	mov    (%rax),%rax
  404c08:	48 83 c0 28          	add    $0x28,%rax
  404c0c:	4c 8b 00             	mov    (%rax),%r8
  404c0f:	48 8b 5d e0          	mov    -0x20(%rbp),%rbx
  404c13:	48 8b 45 e8          	mov    -0x18(%rbp),%rax
  404c17:	b9 02 00 00 00       	mov    $0x2,%ecx
  404c1c:	ba 24 5b 40 00       	mov    $0x405b24,%edx
  404c21:	48 89 de             	mov    %rbx,%rsi
  404c24:	48 89 c7             	mov    %rax,%rdi
  404c27:	41 ff d0             	callq  *%r8
  404c2a:	48 83 c4 18          	add    $0x18,%rsp
  404c2e:	5b                   	pop    %rbx
  404c2f:	c9                   	leaveq 
  404c30:	c3                   	retq   
  404c31:	90                   	nop

0000000000404c32 <_ZN6xaxaxa12StreamReader5WriteENS_6BufferE>:
  404c32:	55                   	push   %rbp
  404c33:	48 89 e5             	mov    %rsp,%rbp
  404c36:	41 54                	push   %r12
  404c38:	53                   	push   %rbx
  404c39:	48 83 ec 20          	sub    $0x20,%rsp
  404c3d:	48 89 7d d8          	mov    %rdi,-0x28(%rbp)
  404c41:	48 89 75 d0          	mov    %rsi,-0x30(%rbp)
  404c45:	48 8b 45 d8          	mov    -0x28(%rbp),%rax
  404c49:	48 8b 40 08          	mov    0x8(%rax),%rax
  404c4d:	48 8b 00             	mov    (%rax),%rax
  404c50:	48 83 c0 08          	add    $0x8,%rax
  404c54:	48 8b 08             	mov    (%rax),%rcx
  404c57:	48 8b 45 d0          	mov    -0x30(%rbp),%rax
  404c5b:	48 8b 10             	mov    (%rax),%rdx
  404c5e:	48 89 55 e0          	mov    %rdx,-0x20(%rbp)
  404c62:	8b 50 08             	mov    0x8(%rax),%edx
  404c65:	89 55 e8             	mov    %edx,-0x18(%rbp)
  404c68:	0f b6 40 0c          	movzbl 0xc(%rax),%eax
  404c6c:	88 45 ec             	mov    %al,-0x14(%rbp)
  404c6f:	48 8b 45 d8          	mov    -0x28(%rbp),%rax
  404c73:	48 8b 40 08          	mov    0x8(%rax),%rax
  404c77:	48 8d 55 e0          	lea    -0x20(%rbp),%rdx
  404c7b:	48 89 d6             	mov    %rdx,%rsi
  404c7e:	48 89 c7             	mov    %rax,%rdi
  404c81:	ff d1                	callq  *%rcx
  404c83:	eb 1f                	jmp    404ca4 <_ZN6xaxaxa12StreamReader5WriteENS_6BufferE+0x72>
  404c85:	89 d3                	mov    %edx,%ebx
  404c87:	49 89 c4             	mov    %rax,%r12
  404c8a:	48 8d 45 e0          	lea    -0x20(%rbp),%rax
  404c8e:	48 89 c7             	mov    %rax,%rdi
  404c91:	e8 8e da ff ff       	callq  402724 <_ZN6xaxaxa6BufferD1Ev>
  404c96:	4c 89 e0             	mov    %r12,%rax
  404c99:	48 63 d3             	movslq %ebx,%rdx
  404c9c:	48 89 c7             	mov    %rax,%rdi
  404c9f:	e8 54 cb ff ff       	callq  4017f8 <_Unwind_Resume@plt>
  404ca4:	48 8d 45 e0          	lea    -0x20(%rbp),%rax
  404ca8:	48 89 c7             	mov    %rax,%rdi
  404cab:	e8 74 da ff ff       	callq  402724 <_ZN6xaxaxa6BufferD1Ev>
  404cb0:	48 83 c4 20          	add    $0x20,%rsp
  404cb4:	5b                   	pop    %rbx
  404cb5:	41 5c                	pop    %r12
  404cb7:	c9                   	leaveq 
  404cb8:	c3                   	retq   
  404cb9:	90                   	nop

0000000000404cba <_ZN6xaxaxa12StreamReader5FlushEv>:
  404cba:	55                   	push   %rbp
  404cbb:	48 89 e5             	mov    %rsp,%rbp
  404cbe:	48 83 ec 10          	sub    $0x10,%rsp
  404cc2:	48 89 7d f8          	mov    %rdi,-0x8(%rbp)
  404cc6:	48 8b 45 f8          	mov    -0x8(%rbp),%rax
  404cca:	48 8b 40 08          	mov    0x8(%rax),%rax
  404cce:	48 8b 00             	mov    (%rax),%rax
  404cd1:	48 83 c0 10          	add    $0x10,%rax
  404cd5:	48 8b 10             	mov    (%rax),%rdx
  404cd8:	48 8b 45 f8          	mov    -0x8(%rbp),%rax
  404cdc:	48 8b 40 08          	mov    0x8(%rax),%rax
  404ce0:	48 89 c7             	mov    %rax,%rdi
  404ce3:	ff d2                	callq  *%rdx
  404ce5:	c9                   	leaveq 
  404ce6:	c3                   	retq   
  404ce7:	90                   	nop

0000000000404ce8 <_ZN6xaxaxa12StreamReader5CloseEv>:
  404ce8:	55                   	push   %rbp
  404ce9:	48 89 e5             	mov    %rsp,%rbp
  404cec:	48 83 ec 10          	sub    $0x10,%rsp
  404cf0:	48 89 7d f8          	mov    %rdi,-0x8(%rbp)
  404cf4:	48 8b 45 f8          	mov    -0x8(%rbp),%rax
  404cf8:	48 8b 40 08          	mov    0x8(%rax),%rax
  404cfc:	48 8b 00             	mov    (%rax),%rax
  404cff:	48 83 c0 18          	add    $0x18,%rax
  404d03:	48 8b 10             	mov    (%rax),%rdx
  404d06:	48 8b 45 f8          	mov    -0x8(%rbp),%rax
  404d0a:	48 8b 40 08          	mov    0x8(%rax),%rax
  404d0e:	48 89 c7             	mov    %rax,%rdi
  404d11:	ff d2                	callq  *%rdx
  404d13:	c9                   	leaveq 
  404d14:	c3                   	retq   
  404d15:	90                   	nop

0000000000404d16 <_ZN6xaxaxa13StringBuilderC2Ei>:
  404d16:	55                   	push   %rbp
  404d17:	48 89 e5             	mov    %rsp,%rbp
  404d1a:	48 83 ec 10          	sub    $0x10,%rsp
  404d1e:	48 89 7d f8          	mov    %rdi,-0x8(%rbp)
  404d22:	89 75 f4             	mov    %esi,-0xc(%rbp)
  404d25:	48 8b 45 f8          	mov    -0x8(%rbp),%rax
  404d29:	48 89 c7             	mov    %rax,%rdi
  404d2c:	e8 41 06 00 00       	callq  405372 <_ZN6xaxaxa6StreamC2Ev>
  404d31:	48 8b 45 f8          	mov    -0x8(%rbp),%rax
  404d35:	48 c7 00 50 5b 40 00 	movq   $0x405b50,(%rax)
  404d3c:	8b 45 f4             	mov    -0xc(%rbp),%eax
  404d3f:	48 98                	cltq   
  404d41:	48 89 c7             	mov    %rax,%rdi
  404d44:	e8 0f c8 ff ff       	callq  401558 <malloc@plt>
  404d49:	48 89 c2             	mov    %rax,%rdx
  404d4c:	48 8b 45 f8          	mov    -0x8(%rbp),%rax
  404d50:	48 89 50 08          	mov    %rdx,0x8(%rax)
  404d54:	48 8b 45 f8          	mov    -0x8(%rbp),%rax
  404d58:	8b 55 f4             	mov    -0xc(%rbp),%edx
  404d5b:	89 50 10             	mov    %edx,0x10(%rax)
  404d5e:	48 8b 45 f8          	mov    -0x8(%rbp),%rax
  404d62:	c7 40 14 00 00 00 00 	movl   $0x0,0x14(%rax)
  404d69:	c9                   	leaveq 
  404d6a:	c3                   	retq   
  404d6b:	90                   	nop

0000000000404d6c <_ZN6xaxaxa13StringBuilderC1Ei>:
  404d6c:	55                   	push   %rbp
  404d6d:	48 89 e5             	mov    %rsp,%rbp
  404d70:	48 83 ec 10          	sub    $0x10,%rsp
  404d74:	48 89 7d f8          	mov    %rdi,-0x8(%rbp)
  404d78:	89 75 f4             	mov    %esi,-0xc(%rbp)
  404d7b:	48 8b 45 f8          	mov    -0x8(%rbp),%rax
  404d7f:	48 89 c7             	mov    %rax,%rdi
  404d82:	e8 eb 05 00 00       	callq  405372 <_ZN6xaxaxa6StreamC2Ev>
  404d87:	48 8b 45 f8          	mov    -0x8(%rbp),%rax
  404d8b:	48 c7 00 50 5b 40 00 	movq   $0x405b50,(%rax)
  404d92:	8b 45 f4             	mov    -0xc(%rbp),%eax
  404d95:	48 98                	cltq   
  404d97:	48 89 c7             	mov    %rax,%rdi
  404d9a:	e8 b9 c7 ff ff       	callq  401558 <malloc@plt>
  404d9f:	48 89 c2             	mov    %rax,%rdx
  404da2:	48 8b 45 f8          	mov    -0x8(%rbp),%rax
  404da6:	48 89 50 08          	mov    %rdx,0x8(%rax)
  404daa:	48 8b 45 f8          	mov    -0x8(%rbp),%rax
  404dae:	8b 55 f4             	mov    -0xc(%rbp),%edx
  404db1:	89 50 10             	mov    %edx,0x10(%rax)
  404db4:	48 8b 45 f8          	mov    -0x8(%rbp),%rax
  404db8:	c7 40 14 00 00 00 00 	movl   $0x0,0x14(%rax)
  404dbf:	c9                   	leaveq 
  404dc0:	c3                   	retq   
  404dc1:	90                   	nop

0000000000404dc2 <_ZN6xaxaxa13StringBuilderD2Ev>:
  404dc2:	55                   	push   %rbp
  404dc3:	48 89 e5             	mov    %rsp,%rbp
  404dc6:	48 83 ec 10          	sub    $0x10,%rsp
  404dca:	48 89 7d f8          	mov    %rdi,-0x8(%rbp)
  404dce:	48 8b 45 f8          	mov    -0x8(%rbp),%rax
  404dd2:	48 c7 00 50 5b 40 00 	movq   $0x405b50,(%rax)
  404dd9:	48 8b 45 f8          	mov    -0x8(%rbp),%rax
  404ddd:	48 8b 40 08          	mov    0x8(%rax),%rax
  404de1:	48 89 c7             	mov    %rax,%rdi
  404de4:	e8 ff c7 ff ff       	callq  4015e8 <free@plt>
  404de9:	c9                   	leaveq 
  404dea:	c3                   	retq   
  404deb:	90                   	nop

0000000000404dec <_ZN6xaxaxa13StringBuilderD1Ev>:
  404dec:	55                   	push   %rbp
  404ded:	48 89 e5             	mov    %rsp,%rbp
  404df0:	48 83 ec 10          	sub    $0x10,%rsp
  404df4:	48 89 7d f8          	mov    %rdi,-0x8(%rbp)
  404df8:	48 8b 45 f8          	mov    -0x8(%rbp),%rax
  404dfc:	48 c7 00 50 5b 40 00 	movq   $0x405b50,(%rax)
  404e03:	48 8b 45 f8          	mov    -0x8(%rbp),%rax
  404e07:	48 8b 40 08          	mov    0x8(%rax),%rax
  404e0b:	48 89 c7             	mov    %rax,%rdi
  404e0e:	e8 d5 c7 ff ff       	callq  4015e8 <free@plt>
  404e13:	c9                   	leaveq 
  404e14:	c3                   	retq   
  404e15:	90                   	nop

0000000000404e16 <_ZN6xaxaxa13StringBuilder6AppendENS_6BufferE>:
  404e16:	55                   	push   %rbp
  404e17:	48 89 e5             	mov    %rsp,%rbp
  404e1a:	53                   	push   %rbx
  404e1b:	48 83 ec 18          	sub    $0x18,%rsp
  404e1f:	48 89 7d e8          	mov    %rdi,-0x18(%rbp)
  404e23:	48 89 75 e0          	mov    %rsi,-0x20(%rbp)
  404e27:	48 8b 45 e8          	mov    -0x18(%rbp),%rax
  404e2b:	8b 50 14             	mov    0x14(%rax),%edx
  404e2e:	48 8b 45 e0          	mov    -0x20(%rbp),%rax
  404e32:	8b 40 08             	mov    0x8(%rax),%eax
  404e35:	01 c2                	add    %eax,%edx
  404e37:	48 8b 45 e8          	mov    -0x18(%rbp),%rax
  404e3b:	89 d6                	mov    %edx,%esi
  404e3d:	48 89 c7             	mov    %rax,%rdi
  404e40:	e8 cf 00 00 00       	callq  404f14 <_ZN6xaxaxa13StringBuilder14EnsureCapacityEi>
  404e45:	48 8b 45 e0          	mov    -0x20(%rbp),%rax
  404e49:	8b 40 08             	mov    0x8(%rax),%eax
  404e4c:	48 63 d0             	movslq %eax,%rdx
  404e4f:	48 8b 45 e0          	mov    -0x20(%rbp),%rax
  404e53:	48 8b 00             	mov    (%rax),%rax
  404e56:	48 8b 4d e8          	mov    -0x18(%rbp),%rcx
  404e5a:	48 8b 49 08          	mov    0x8(%rcx),%rcx
  404e5e:	48 89 cb             	mov    %rcx,%rbx
  404e61:	48 8b 4d e8          	mov    -0x18(%rbp),%rcx
  404e65:	8b 49 14             	mov    0x14(%rcx),%ecx
  404e68:	48 63 c9             	movslq %ecx,%rcx
  404e6b:	48 8d 0c 0b          	lea    (%rbx,%rcx,1),%rcx
  404e6f:	48 89 c6             	mov    %rax,%rsi
  404e72:	48 89 cf             	mov    %rcx,%rdi
  404e75:	e8 ee c7 ff ff       	callq  401668 <memcpy@plt>
  404e7a:	48 8b 45 e8          	mov    -0x18(%rbp),%rax
  404e7e:	8b 50 14             	mov    0x14(%rax),%edx
  404e81:	48 8b 45 e0          	mov    -0x20(%rbp),%rax
  404e85:	8b 40 08             	mov    0x8(%rax),%eax
  404e88:	01 c2                	add    %eax,%edx
  404e8a:	48 8b 45 e8          	mov    -0x18(%rbp),%rax
  404e8e:	89 50 14             	mov    %edx,0x14(%rax)
  404e91:	48 83 c4 18          	add    $0x18,%rsp
  404e95:	5b                   	pop    %rbx
  404e96:	c9                   	leaveq 
  404e97:	c3                   	retq   

0000000000404e98 <_ZN6xaxaxa13StringBuilder6AppendEPKS0_>:
  404e98:	55                   	push   %rbp
  404e99:	48 89 e5             	mov    %rsp,%rbp
  404e9c:	53                   	push   %rbx
  404e9d:	48 83 ec 38          	sub    $0x38,%rsp
  404ea1:	48 89 7d c8          	mov    %rdi,-0x38(%rbp)
  404ea5:	48 89 75 c0          	mov    %rsi,-0x40(%rbp)
  404ea9:	48 8b 45 c0          	mov    -0x40(%rbp),%rax
  404ead:	8b 50 14             	mov    0x14(%rax),%edx
  404eb0:	48 8b 45 c0          	mov    -0x40(%rbp),%rax
  404eb4:	48 8b 58 08          	mov    0x8(%rax),%rbx
  404eb8:	48 8d 45 e0          	lea    -0x20(%rbp),%rax
  404ebc:	b9 00 00 00 00       	mov    $0x0,%ecx
  404ec1:	48 89 de             	mov    %rbx,%rsi
  404ec4:	48 89 c7             	mov    %rax,%rdi
  404ec7:	e8 f8 d7 ff ff       	callq  4026c4 <_ZN6xaxaxa6BufferC1EPvib>
  404ecc:	48 8b 45 e0          	mov    -0x20(%rbp),%rax
  404ed0:	48 89 45 d0          	mov    %rax,-0x30(%rbp)
  404ed4:	8b 45 e8             	mov    -0x18(%rbp),%eax
  404ed7:	89 45 d8             	mov    %eax,-0x28(%rbp)
  404eda:	0f b6 45 ec          	movzbl -0x14(%rbp),%eax
  404ede:	88 45 dc             	mov    %al,-0x24(%rbp)
  404ee1:	48 8d 55 d0          	lea    -0x30(%rbp),%rdx
  404ee5:	48 8b 45 c8          	mov    -0x38(%rbp),%rax
  404ee9:	48 89 d6             	mov    %rdx,%rsi
  404eec:	48 89 c7             	mov    %rax,%rdi
  404eef:	e8 22 ff ff ff       	callq  404e16 <_ZN6xaxaxa13StringBuilder6AppendENS_6BufferE>
  404ef4:	48 8d 45 d0          	lea    -0x30(%rbp),%rax
  404ef8:	48 89 c7             	mov    %rax,%rdi
  404efb:	e8 24 d8 ff ff       	callq  402724 <_ZN6xaxaxa6BufferD1Ev>
  404f00:	48 8d 45 e0          	lea    -0x20(%rbp),%rax
  404f04:	48 89 c7             	mov    %rax,%rdi
  404f07:	e8 18 d8 ff ff       	callq  402724 <_ZN6xaxaxa6BufferD1Ev>
  404f0c:	48 83 c4 38          	add    $0x38,%rsp
  404f10:	5b                   	pop    %rbx
  404f11:	c9                   	leaveq 
  404f12:	c3                   	retq   
  404f13:	90                   	nop

0000000000404f14 <_ZN6xaxaxa13StringBuilder14EnsureCapacityEi>:
  404f14:	55                   	push   %rbp
  404f15:	48 89 e5             	mov    %rsp,%rbp
  404f18:	48 83 ec 20          	sub    $0x20,%rsp
  404f1c:	48 89 7d e8          	mov    %rdi,-0x18(%rbp)
  404f20:	89 75 e4             	mov    %esi,-0x1c(%rbp)
  404f23:	48 8b 45 e8          	mov    -0x18(%rbp),%rax
  404f27:	8b 40 10             	mov    0x10(%rax),%eax
  404f2a:	3b 45 e4             	cmp    -0x1c(%rbp),%eax
  404f2d:	7d 49                	jge    404f78 <_ZN6xaxaxa13StringBuilder14EnsureCapacityEi+0x64>
  404f2f:	48 8b 45 e8          	mov    -0x18(%rbp),%rax
  404f33:	8b 40 10             	mov    0x10(%rax),%eax
  404f36:	89 45 fc             	mov    %eax,-0x4(%rbp)
  404f39:	eb 03                	jmp    404f3e <_ZN6xaxaxa13StringBuilder14EnsureCapacityEi+0x2a>
  404f3b:	d1 65 fc             	shll   -0x4(%rbp)
  404f3e:	8b 45 fc             	mov    -0x4(%rbp),%eax
  404f41:	3b 45 e4             	cmp    -0x1c(%rbp),%eax
  404f44:	0f 9c c0             	setl   %al
  404f47:	84 c0                	test   %al,%al
  404f49:	75 f0                	jne    404f3b <_ZN6xaxaxa13StringBuilder14EnsureCapacityEi+0x27>
  404f4b:	8b 45 fc             	mov    -0x4(%rbp),%eax
  404f4e:	48 63 d0             	movslq %eax,%rdx
  404f51:	48 8b 45 e8          	mov    -0x18(%rbp),%rax
  404f55:	48 8b 40 08          	mov    0x8(%rax),%rax
  404f59:	48 89 d6             	mov    %rdx,%rsi
  404f5c:	48 89 c7             	mov    %rax,%rdi
  404f5f:	e8 44 c8 ff ff       	callq  4017a8 <realloc@plt>
  404f64:	48 8b 55 e8          	mov    -0x18(%rbp),%rdx
  404f68:	48 89 42 08          	mov    %rax,0x8(%rdx)
  404f6c:	48 8b 45 e8          	mov    -0x18(%rbp),%rax
  404f70:	8b 55 fc             	mov    -0x4(%rbp),%edx
  404f73:	89 50 10             	mov    %edx,0x10(%rax)
  404f76:	eb 01                	jmp    404f79 <_ZN6xaxaxa13StringBuilder14EnsureCapacityEi+0x65>
  404f78:	90                   	nop
  404f79:	c9                   	leaveq 
  404f7a:	c3                   	retq   
  404f7b:	90                   	nop

0000000000404f7c <_ZN6xaxaxa13StringBuilder9CompareToENS_6BufferE>:
  404f7c:	55                   	push   %rbp
  404f7d:	48 89 e5             	mov    %rsp,%rbp
  404f80:	48 83 ec 10          	sub    $0x10,%rsp
  404f84:	48 89 7d f8          	mov    %rdi,-0x8(%rbp)
  404f88:	48 89 75 f0          	mov    %rsi,-0x10(%rbp)
  404f8c:	48 8b 45 f0          	mov    -0x10(%rbp),%rax
  404f90:	8b 40 08             	mov    0x8(%rax),%eax
  404f93:	85 c0                	test   %eax,%eax
  404f95:	7e 0b                	jle    404fa2 <_ZN6xaxaxa13StringBuilder9CompareToENS_6BufferE+0x26>
  404f97:	48 8b 45 f8          	mov    -0x8(%rbp),%rax
  404f9b:	8b 40 14             	mov    0x14(%rax),%eax
  404f9e:	85 c0                	test   %eax,%eax
  404fa0:	7f 07                	jg     404fa9 <_ZN6xaxaxa13StringBuilder9CompareToENS_6BufferE+0x2d>
  404fa2:	b8 ff ff ff ff       	mov    $0xffffffff,%eax
  404fa7:	eb 30                	jmp    404fd9 <_ZN6xaxaxa13StringBuilder9CompareToENS_6BufferE+0x5d>
  404fa9:	48 8b 45 f8          	mov    -0x8(%rbp),%rax
  404fad:	8b 50 14             	mov    0x14(%rax),%edx
  404fb0:	48 8b 45 f0          	mov    -0x10(%rbp),%rax
  404fb4:	8b 40 08             	mov    0x8(%rax),%eax
  404fb7:	39 c2                	cmp    %eax,%edx
  404fb9:	0f 4e c2             	cmovle %edx,%eax
  404fbc:	48 63 d0             	movslq %eax,%rdx
  404fbf:	48 8b 45 f0          	mov    -0x10(%rbp),%rax
  404fc3:	48 8b 08             	mov    (%rax),%rcx
  404fc6:	48 8b 45 f8          	mov    -0x8(%rbp),%rax
  404fca:	48 8b 40 08          	mov    0x8(%rax),%rax
  404fce:	48 89 ce             	mov    %rcx,%rsi
  404fd1:	48 89 c7             	mov    %rax,%rdi
  404fd4:	e8 4f c7 ff ff       	callq  401728 <memcmp@plt>
  404fd9:	c9                   	leaveq 
  404fda:	c3                   	retq   
  404fdb:	90                   	nop

0000000000404fdc <_ZN6xaxaxa13StringBuilder9CompareToEPKS0_>:
  404fdc:	55                   	push   %rbp
  404fdd:	48 89 e5             	mov    %rsp,%rbp
  404fe0:	48 83 ec 10          	sub    $0x10,%rsp
  404fe4:	48 89 7d f8          	mov    %rdi,-0x8(%rbp)
  404fe8:	48 89 75 f0          	mov    %rsi,-0x10(%rbp)
  404fec:	48 8b 45 f0          	mov    -0x10(%rbp),%rax
  404ff0:	8b 40 14             	mov    0x14(%rax),%eax
  404ff3:	85 c0                	test   %eax,%eax
  404ff5:	7e 0b                	jle    405002 <_ZN6xaxaxa13StringBuilder9CompareToEPKS0_+0x26>
  404ff7:	48 8b 45 f8          	mov    -0x8(%rbp),%rax
  404ffb:	8b 40 14             	mov    0x14(%rax),%eax
  404ffe:	85 c0                	test   %eax,%eax
  405000:	7f 07                	jg     405009 <_ZN6xaxaxa13StringBuilder9CompareToEPKS0_+0x2d>
  405002:	b8 ff ff ff ff       	mov    $0xffffffff,%eax
  405007:	eb 31                	jmp    40503a <_ZN6xaxaxa13StringBuilder9CompareToEPKS0_+0x5e>
  405009:	48 8b 45 f8          	mov    -0x8(%rbp),%rax
  40500d:	8b 50 14             	mov    0x14(%rax),%edx
  405010:	48 8b 45 f0          	mov    -0x10(%rbp),%rax
  405014:	8b 40 14             	mov    0x14(%rax),%eax
  405017:	39 c2                	cmp    %eax,%edx
  405019:	0f 4e c2             	cmovle %edx,%eax
  40501c:	48 63 d0             	movslq %eax,%rdx
  40501f:	48 8b 45 f0          	mov    -0x10(%rbp),%rax
  405023:	48 8b 48 08          	mov    0x8(%rax),%rcx
  405027:	48 8b 45 f8          	mov    -0x8(%rbp),%rax
  40502b:	48 8b 40 08          	mov    0x8(%rax),%rax
  40502f:	48 89 ce             	mov    %rcx,%rsi
  405032:	48 89 c7             	mov    %rax,%rdi
  405035:	e8 ee c6 ff ff       	callq  401728 <memcmp@plt>
  40503a:	c9                   	leaveq 
  40503b:	c3                   	retq   

000000000040503c <_ZN6xaxaxa13StringBuilder8ToStringEv>:
  40503c:	55                   	push   %rbp
  40503d:	48 89 e5             	mov    %rsp,%rbp
  405040:	48 83 ec 40          	sub    $0x40,%rsp
  405044:	48 89 7d d8          	mov    %rdi,-0x28(%rbp)
  405048:	48 8b 45 d8          	mov    -0x28(%rbp),%rax
  40504c:	8b 40 14             	mov    0x14(%rax),%eax
  40504f:	48 98                	cltq   
  405051:	48 89 c7             	mov    %rax,%rdi
  405054:	e8 ff c4 ff ff       	callq  401558 <malloc@plt>
  405059:	48 89 45 f0          	mov    %rax,-0x10(%rbp)
  40505d:	48 8b 45 d8          	mov    -0x28(%rbp),%rax
  405061:	8b 40 14             	mov    0x14(%rax),%eax
  405064:	48 63 d0             	movslq %eax,%rdx
  405067:	48 8b 45 d8          	mov    -0x28(%rbp),%rax
  40506b:	48 8b 48 08          	mov    0x8(%rax),%rcx
  40506f:	48 8b 45 f0          	mov    -0x10(%rbp),%rax
  405073:	48 89 ce             	mov    %rcx,%rsi
  405076:	48 89 c7             	mov    %rax,%rdi
  405079:	e8 ea c5 ff ff       	callq  401668 <memcpy@plt>
  40507e:	48 8b 45 d8          	mov    -0x28(%rbp),%rax
  405082:	8b 40 14             	mov    0x14(%rax),%eax
  405085:	89 45 f8             	mov    %eax,-0x8(%rbp)
  405088:	48 8b 45 f0          	mov    -0x10(%rbp),%rax
  40508c:	48 89 45 e0          	mov    %rax,-0x20(%rbp)
  405090:	48 8b 45 f8          	mov    -0x8(%rbp),%rax
  405094:	48 89 45 e8          	mov    %rax,-0x18(%rbp)
  405098:	48 8b 45 e0          	mov    -0x20(%rbp),%rax
  40509c:	8b 55 e8             	mov    -0x18(%rbp),%edx
  40509f:	c9                   	leaveq 
  4050a0:	c3                   	retq   
  4050a1:	90                   	nop

00000000004050a2 <_ZN6xaxaxa13StringBuilder4ReadENS_6BufferE>:
  4050a2:	55                   	push   %rbp
  4050a3:	48 89 e5             	mov    %rsp,%rbp
  4050a6:	48 89 7d f8          	mov    %rdi,-0x8(%rbp)
  4050aa:	48 89 75 f0          	mov    %rsi,-0x10(%rbp)
  4050ae:	b8 00 00 00 00       	mov    $0x0,%eax
  4050b3:	c9                   	leaveq 
  4050b4:	c3                   	retq   
  4050b5:	90                   	nop

00000000004050b6 <_ZN6xaxaxa13StringBuilder5WriteENS_6BufferE>:
  4050b6:	55                   	push   %rbp
  4050b7:	48 89 e5             	mov    %rsp,%rbp
  4050ba:	48 83 ec 20          	sub    $0x20,%rsp
  4050be:	48 89 7d e8          	mov    %rdi,-0x18(%rbp)
  4050c2:	48 89 75 e0          	mov    %rsi,-0x20(%rbp)
  4050c6:	48 8b 45 e0          	mov    -0x20(%rbp),%rax
  4050ca:	48 8b 10             	mov    (%rax),%rdx
  4050cd:	48 89 55 f0          	mov    %rdx,-0x10(%rbp)
  4050d1:	8b 50 08             	mov    0x8(%rax),%edx
  4050d4:	89 55 f8             	mov    %edx,-0x8(%rbp)
  4050d7:	0f b6 40 0c          	movzbl 0xc(%rax),%eax
  4050db:	88 45 fc             	mov    %al,-0x4(%rbp)
  4050de:	48 8d 55 f0          	lea    -0x10(%rbp),%rdx
  4050e2:	48 8b 45 e8          	mov    -0x18(%rbp),%rax
  4050e6:	48 89 d6             	mov    %rdx,%rsi
  4050e9:	48 89 c7             	mov    %rax,%rdi
  4050ec:	e8 25 fd ff ff       	callq  404e16 <_ZN6xaxaxa13StringBuilder6AppendENS_6BufferE>
  4050f1:	48 8d 45 f0          	lea    -0x10(%rbp),%rax
  4050f5:	48 89 c7             	mov    %rax,%rdi
  4050f8:	e8 27 d6 ff ff       	callq  402724 <_ZN6xaxaxa6BufferD1Ev>
  4050fd:	c9                   	leaveq 
  4050fe:	c3                   	retq   
  4050ff:	90                   	nop

0000000000405100 <_ZN6xaxaxa13StringBuilder5FlushEv>:
  405100:	55                   	push   %rbp
  405101:	48 89 e5             	mov    %rsp,%rbp
  405104:	48 89 7d f8          	mov    %rdi,-0x8(%rbp)
  405108:	c9                   	leaveq 
  405109:	c3                   	retq   

000000000040510a <_ZN6xaxaxa13StringBuilder5CloseEv>:
  40510a:	55                   	push   %rbp
  40510b:	48 89 e5             	mov    %rsp,%rbp
  40510e:	48 89 7d f8          	mov    %rdi,-0x8(%rbp)
  405112:	c9                   	leaveq 
  405113:	c3                   	retq   

0000000000405114 <_ZN6xaxaxaL10handle_sigEi>:
  405114:	55                   	push   %rbp
  405115:	48 89 e5             	mov    %rsp,%rbp
  405118:	41 55                	push   %r13
  40511a:	41 54                	push   %r12
  40511c:	53                   	push   %rbx
  40511d:	48 83 ec 38          	sub    $0x38,%rsp
  405121:	89 7d bc             	mov    %edi,-0x44(%rbp)
  405124:	8b 45 bc             	mov    -0x44(%rbp),%eax
  405127:	83 f8 0b             	cmp    $0xb,%eax
  40512a:	75 50                	jne    40517c <_ZN6xaxaxaL10handle_sigEi+0x68>
  40512c:	bf 10 00 00 00       	mov    $0x10,%edi
  405131:	e8 b2 c6 ff ff       	callq  4017e8 <_Znwm@plt>
  405136:	48 89 c3             	mov    %rax,%rbx
  405139:	48 89 d8             	mov    %rbx,%rax
  40513c:	c7 00 00 00 00 00    	movl   $0x0,(%rax)
  405142:	48 c7 40 08 00 00 00 	movq   $0x0,0x8(%rax)
  405149:	00 
  40514a:	48 89 c7             	mov    %rax,%rdi
  40514d:	e8 46 02 00 00       	callq  405398 <_ZN6xaxaxa16PointerExceptionC1Ev>
  405152:	eb 1c                	jmp    405170 <_ZN6xaxaxaL10handle_sigEi+0x5c>
  405154:	41 89 d4             	mov    %edx,%r12d
  405157:	49 89 c5             	mov    %rax,%r13
  40515a:	48 89 df             	mov    %rbx,%rdi
  40515d:	e8 c6 c3 ff ff       	callq  401528 <_ZdlPv@plt>
  405162:	4c 89 e8             	mov    %r13,%rax
  405165:	49 63 d4             	movslq %r12d,%rdx
  405168:	48 89 c7             	mov    %rax,%rdi
  40516b:	e8 88 c6 ff ff       	callq  4017f8 <_Unwind_Resume@plt>
  405170:	48 89 d8             	mov    %rbx,%rax
  405173:	48 89 45 d0          	mov    %rax,-0x30(%rbp)
  405177:	e9 ae 00 00 00       	jmpq   40522a <_ZN6xaxaxaL10handle_sigEi+0x116>
  40517c:	48 8d 45 df          	lea    -0x21(%rbp),%rax
  405180:	48 89 c7             	mov    %rax,%rdi
  405183:	e8 40 c6 ff ff       	callq  4017c8 <_ZNSaIcEC1Ev@plt>
  405188:	48 8d 55 df          	lea    -0x21(%rbp),%rdx
  40518c:	48 8d 45 c0          	lea    -0x40(%rbp),%rax
  405190:	be 00 00 00 00       	mov    $0x0,%esi
  405195:	48 89 c7             	mov    %rax,%rdi
  405198:	e8 7b c4 ff ff       	callq  401618 <_ZNSsC1EPKcRKSaIcE@plt>
  40519d:	4c 8d 65 c0          	lea    -0x40(%rbp),%r12
  4051a1:	bf 10 00 00 00       	mov    $0x10,%edi
  4051a6:	e8 3d c6 ff ff       	callq  4017e8 <_Znwm@plt>
  4051ab:	48 89 c3             	mov    %rax,%rbx
  4051ae:	48 89 d8             	mov    %rbx,%rax
  4051b1:	4c 89 e6             	mov    %r12,%rsi
  4051b4:	48 89 c7             	mov    %rax,%rdi
  4051b7:	e8 64 d7 ff ff       	callq  402920 <_ZN6xaxaxa9ExceptionC1ESs>
  4051bc:	eb 16                	jmp    4051d4 <_ZN6xaxaxaL10handle_sigEi+0xc0>
  4051be:	41 89 d4             	mov    %edx,%r12d
  4051c1:	49 89 c5             	mov    %rax,%r13
  4051c4:	48 89 df             	mov    %rbx,%rdi
  4051c7:	e8 5c c3 ff ff       	callq  401528 <_ZdlPv@plt>
  4051cc:	4c 89 e8             	mov    %r13,%rax
  4051cf:	49 63 d4             	movslq %r12d,%rdx
  4051d2:	eb 12                	jmp    4051e6 <_ZN6xaxaxaL10handle_sigEi+0xd2>
  4051d4:	48 89 5d d0          	mov    %rbx,-0x30(%rbp)
  4051d8:	48 8d 45 c0          	lea    -0x40(%rbp),%rax
  4051dc:	48 89 c7             	mov    %rax,%rdi
  4051df:	e8 f4 c3 ff ff       	callq  4015d8 <_ZNSsD1Ev@plt>
  4051e4:	eb 38                	jmp    40521e <_ZN6xaxaxaL10handle_sigEi+0x10a>
  4051e6:	89 d3                	mov    %edx,%ebx
  4051e8:	49 89 c4             	mov    %rax,%r12
  4051eb:	48 8d 45 c0          	lea    -0x40(%rbp),%rax
  4051ef:	48 89 c7             	mov    %rax,%rdi
  4051f2:	e8 e1 c3 ff ff       	callq  4015d8 <_ZNSsD1Ev@plt>
  4051f7:	4c 89 e0             	mov    %r12,%rax
  4051fa:	48 63 d3             	movslq %ebx,%rdx
  4051fd:	eb 00                	jmp    4051ff <_ZN6xaxaxaL10handle_sigEi+0xeb>
  4051ff:	89 d3                	mov    %edx,%ebx
  405201:	49 89 c4             	mov    %rax,%r12
  405204:	48 8d 45 df          	lea    -0x21(%rbp),%rax
  405208:	48 89 c7             	mov    %rax,%rdi
  40520b:	e8 e8 c4 ff ff       	callq  4016f8 <_ZNSaIcED1Ev@plt>
  405210:	4c 89 e0             	mov    %r12,%rax
  405213:	48 63 d3             	movslq %ebx,%rdx
  405216:	48 89 c7             	mov    %rax,%rdi
  405219:	e8 da c5 ff ff       	callq  4017f8 <_Unwind_Resume@plt>
  40521e:	48 8d 45 df          	lea    -0x21(%rbp),%rax
  405222:	48 89 c7             	mov    %rax,%rdi
  405225:	e8 ce c4 ff ff       	callq  4016f8 <_ZNSaIcED1Ev@plt>
  40522a:	bf 08 00 00 00       	mov    $0x8,%edi
  40522f:	e8 b4 c4 ff ff       	callq  4016e8 <__cxa_allocate_exception@plt>
  405234:	48 89 c2             	mov    %rax,%rdx
  405237:	48 8b 4d d0          	mov    -0x30(%rbp),%rcx
  40523b:	48 89 0a             	mov    %rcx,(%rdx)
  40523e:	ba 00 00 00 00       	mov    $0x0,%edx
  405243:	be 80 5a 40 00       	mov    $0x405a80,%esi
  405248:	48 89 c7             	mov    %rax,%rdi
  40524b:	e8 e8 c4 ff ff       	callq  401738 <__cxa_throw@plt>

0000000000405250 <_ZN6xaxaxa18RegisterExceptionsEv>:
  405250:	55                   	push   %rbp
  405251:	48 89 e5             	mov    %rsp,%rbp
  405254:	be 14 51 40 00       	mov    $0x405114,%esi
  405259:	bf 0b 00 00 00       	mov    $0xb,%edi
  40525e:	e8 15 c4 ff ff       	callq  401678 <signal@plt>
  405263:	c9                   	leaveq 
  405264:	c3                   	retq   

0000000000405265 <_Z41__static_initialization_and_destruction_0ii>:
  405265:	55                   	push   %rbp
  405266:	48 89 e5             	mov    %rsp,%rbp
  405269:	48 83 ec 10          	sub    $0x10,%rsp
  40526d:	89 7d fc             	mov    %edi,-0x4(%rbp)
  405270:	89 75 f8             	mov    %esi,-0x8(%rbp)
  405273:	83 7d fc 01          	cmpl   $0x1,-0x4(%rbp)
  405277:	75 2a                	jne    4052a3 <_Z41__static_initialization_and_destruction_0ii+0x3e>
  405279:	81 7d f8 ff ff 00 00 	cmpl   $0xffff,-0x8(%rbp)
  405280:	75 21                	jne    4052a3 <_Z41__static_initialization_and_destruction_0ii+0x3e>
  405282:	bf 1c 84 60 00       	mov    $0x60841c,%edi
  405287:	e8 bc c2 ff ff       	callq  401548 <_ZNSt8ios_base4InitC1Ev@plt>
  40528c:	b8 b8 15 40 00       	mov    $0x4015b8,%eax
  405291:	ba c8 81 60 00       	mov    $0x6081c8,%edx
  405296:	be 1c 84 60 00       	mov    $0x60841c,%esi
  40529b:	48 89 c7             	mov    %rax,%rdi
  40529e:	e8 05 c3 ff ff       	callq  4015a8 <__cxa_atexit@plt>
  4052a3:	c9                   	leaveq 
  4052a4:	c3                   	retq   

00000000004052a5 <_GLOBAL__I__ZN6xaxaxa10FileStreamC2EP8_IO_FILE>:
  4052a5:	55                   	push   %rbp
  4052a6:	48 89 e5             	mov    %rsp,%rbp
  4052a9:	be ff ff 00 00       	mov    $0xffff,%esi
  4052ae:	bf 01 00 00 00       	mov    $0x1,%edi
  4052b3:	e8 ad ff ff ff       	callq  405265 <_Z41__static_initialization_and_destruction_0ii>
  4052b8:	c9                   	leaveq 
  4052b9:	c3                   	retq   

00000000004052ba <_ZN6xaxaxa9ExceptionC2ESs>:
  4052ba:	55                   	push   %rbp
  4052bb:	48 89 e5             	mov    %rsp,%rbp
  4052be:	41 54                	push   %r12
  4052c0:	53                   	push   %rbx
  4052c1:	48 83 ec 30          	sub    $0x30,%rsp
  4052c5:	48 89 7d c8          	mov    %rdi,-0x38(%rbp)
  4052c9:	48 89 75 c0          	mov    %rsi,-0x40(%rbp)
  4052cd:	48 8b 45 c8          	mov    -0x38(%rbp),%rax
  4052d1:	48 89 c7             	mov    %rax,%rdi
  4052d4:	e8 71 d4 ff ff       	callq  40274a <_ZN6xaxaxa6ObjectC2Ev>
  4052d9:	48 8b 45 c8          	mov    -0x38(%rbp),%rax
  4052dd:	48 83 c0 08          	add    $0x8,%rax
  4052e1:	48 89 c7             	mov    %rax,%rdi
  4052e4:	e8 cf c1 ff ff       	callq  4014b8 <_ZNSsC1Ev@plt>
  4052e9:	48 8b 55 c0          	mov    -0x40(%rbp),%rdx
  4052ed:	48 8d 45 e0          	lea    -0x20(%rbp),%rax
  4052f1:	48 89 d6             	mov    %rdx,%rsi
  4052f4:	48 89 c7             	mov    %rax,%rdi
  4052f7:	e8 9c c2 ff ff       	callq  401598 <_ZNSsC1ERKSs@plt>
  4052fc:	48 8d 55 e0          	lea    -0x20(%rbp),%rdx
  405300:	48 8d 45 d0          	lea    -0x30(%rbp),%rax
  405304:	be 00 00 00 00       	mov    $0x0,%esi
  405309:	48 89 c7             	mov    %rax,%rdi
  40530c:	e8 43 d4 ff ff       	callq  402754 <_ZN6xaxaxa9ExceptionC1EiSs>
  405311:	48 8d 45 d0          	lea    -0x30(%rbp),%rax
  405315:	48 89 c7             	mov    %rax,%rdi
  405318:	e8 fd d4 ff ff       	callq  40281a <_ZN6xaxaxa9ExceptionD1Ev>
  40531d:	eb 19                	jmp    405338 <_ZN6xaxaxa9ExceptionC2ESs+0x7e>
  40531f:	89 d3                	mov    %edx,%ebx
  405321:	49 89 c4             	mov    %rax,%r12
  405324:	48 8d 45 e0          	lea    -0x20(%rbp),%rax
  405328:	48 89 c7             	mov    %rax,%rdi
  40532b:	e8 a8 c2 ff ff       	callq  4015d8 <_ZNSsD1Ev@plt>
  405330:	4c 89 e0             	mov    %r12,%rax
  405333:	48 63 d3             	movslq %ebx,%rdx
  405336:	eb 0e                	jmp    405346 <_ZN6xaxaxa9ExceptionC2ESs+0x8c>
  405338:	48 8d 45 e0          	lea    -0x20(%rbp),%rax
  40533c:	48 89 c7             	mov    %rax,%rdi
  40533f:	e8 94 c2 ff ff       	callq  4015d8 <_ZNSsD1Ev@plt>
  405344:	eb 23                	jmp    405369 <_ZN6xaxaxa9ExceptionC2ESs+0xaf>
  405346:	89 d3                	mov    %edx,%ebx
  405348:	49 89 c4             	mov    %rax,%r12
  40534b:	48 8b 45 c8          	mov    -0x38(%rbp),%rax
  40534f:	48 83 c0 08          	add    $0x8,%rax
  405353:	48 89 c7             	mov    %rax,%rdi
  405356:	e8 7d c2 ff ff       	callq  4015d8 <_ZNSsD1Ev@plt>
  40535b:	4c 89 e0             	mov    %r12,%rax
  40535e:	48 63 d3             	movslq %ebx,%rdx
  405361:	48 89 c7             	mov    %rax,%rdi
  405364:	e8 8f c4 ff ff       	callq  4017f8 <_Unwind_Resume@plt>
  405369:	48 83 c4 30          	add    $0x30,%rsp
  40536d:	5b                   	pop    %rbx
  40536e:	41 5c                	pop    %r12
  405370:	c9                   	leaveq 
  405371:	c3                   	retq   

0000000000405372 <_ZN6xaxaxa6StreamC2Ev>:
  405372:	55                   	push   %rbp
  405373:	48 89 e5             	mov    %rsp,%rbp
  405376:	48 83 ec 10          	sub    $0x10,%rsp
  40537a:	48 89 7d f8          	mov    %rdi,-0x8(%rbp)
  40537e:	48 8b 45 f8          	mov    -0x8(%rbp),%rax
  405382:	48 89 c7             	mov    %rax,%rdi
  405385:	e8 c0 d3 ff ff       	callq  40274a <_ZN6xaxaxa6ObjectC2Ev>
  40538a:	48 8b 45 f8          	mov    -0x8(%rbp),%rax
  40538e:	48 c7 00 30 5c 40 00 	movq   $0x405c30,(%rax)
  405395:	c9                   	leaveq 
  405396:	c3                   	retq   
  405397:	90                   	nop

0000000000405398 <_ZN6xaxaxa16PointerExceptionC1Ev>:
  405398:	55                   	push   %rbp
  405399:	48 89 e5             	mov    %rsp,%rbp
  40539c:	41 54                	push   %r12
  40539e:	53                   	push   %rbx
  40539f:	48 83 ec 20          	sub    $0x20,%rsp
  4053a3:	48 89 7d d8          	mov    %rdi,-0x28(%rbp)
  4053a7:	48 8d 45 ef          	lea    -0x11(%rbp),%rax
  4053ab:	48 89 c7             	mov    %rax,%rdi
  4053ae:	e8 15 c4 ff ff       	callq  4017c8 <_ZNSaIcEC1Ev@plt>
  4053b3:	48 8d 55 ef          	lea    -0x11(%rbp),%rdx
  4053b7:	48 8d 45 e0          	lea    -0x20(%rbp),%rax
  4053bb:	be 00 00 00 00       	mov    $0x0,%esi
  4053c0:	48 89 c7             	mov    %rax,%rdi
  4053c3:	e8 50 c2 ff ff       	callq  401618 <_ZNSsC1EPKcRKSaIcE@plt>
  4053c8:	48 8b 45 d8          	mov    -0x28(%rbp),%rax
  4053cc:	48 8d 55 e0          	lea    -0x20(%rbp),%rdx
  4053d0:	48 89 d6             	mov    %rdx,%rsi
  4053d3:	48 89 c7             	mov    %rax,%rdi
  4053d6:	e8 df fe ff ff       	callq  4052ba <_ZN6xaxaxa9ExceptionC2ESs>
  4053db:	eb 19                	jmp    4053f6 <_ZN6xaxaxa16PointerExceptionC1Ev+0x5e>
  4053dd:	89 d3                	mov    %edx,%ebx
  4053df:	49 89 c4             	mov    %rax,%r12
  4053e2:	48 8d 45 e0          	lea    -0x20(%rbp),%rax
  4053e6:	48 89 c7             	mov    %rax,%rdi
  4053e9:	e8 ea c1 ff ff       	callq  4015d8 <_ZNSsD1Ev@plt>
  4053ee:	4c 89 e0             	mov    %r12,%rax
  4053f1:	48 63 d3             	movslq %ebx,%rdx
  4053f4:	eb 0e                	jmp    405404 <_ZN6xaxaxa16PointerExceptionC1Ev+0x6c>
  4053f6:	48 8d 45 e0          	lea    -0x20(%rbp),%rax
  4053fa:	48 89 c7             	mov    %rax,%rdi
  4053fd:	e8 d6 c1 ff ff       	callq  4015d8 <_ZNSsD1Ev@plt>
  405402:	eb 1f                	jmp    405423 <_ZN6xaxaxa16PointerExceptionC1Ev+0x8b>
  405404:	89 d3                	mov    %edx,%ebx
  405406:	49 89 c4             	mov    %rax,%r12
  405409:	48 8d 45 ef          	lea    -0x11(%rbp),%rax
  40540d:	48 89 c7             	mov    %rax,%rdi
  405410:	e8 e3 c2 ff ff       	callq  4016f8 <_ZNSaIcED1Ev@plt>
  405415:	4c 89 e0             	mov    %r12,%rax
  405418:	48 63 d3             	movslq %ebx,%rdx
  40541b:	48 89 c7             	mov    %rax,%rdi
  40541e:	e8 d5 c3 ff ff       	callq  4017f8 <_Unwind_Resume@plt>
  405423:	48 8d 45 ef          	lea    -0x11(%rbp),%rax
  405427:	48 89 c7             	mov    %rax,%rdi
  40542a:	e8 c9 c2 ff ff       	callq  4016f8 <_ZNSaIcED1Ev@plt>
  40542f:	48 83 c4 20          	add    $0x20,%rsp
  405433:	5b                   	pop    %rbx
  405434:	41 5c                	pop    %r12
  405436:	c9                   	leaveq 
  405437:	c3                   	retq   

0000000000405438 <_Z9call_funcN4asdf9function1E>:
  405438:	55                   	push   %rbp
  405439:	48 89 e5             	mov    %rsp,%rbp
  40543c:	48 83 ec 10          	sub    $0x10,%rsp
  405440:	48 89 fa             	mov    %rdi,%rdx
  405443:	48 89 f0             	mov    %rsi,%rax
  405446:	48 89 55 f0          	mov    %rdx,-0x10(%rbp)
  40544a:	48 89 45 f8          	mov    %rax,-0x8(%rbp)
  40544e:	48 8b 55 f0          	mov    -0x10(%rbp),%rdx
  405452:	48 8b 45 f8          	mov    -0x8(%rbp),%rax
  405456:	be 1f 02 00 00       	mov    $0x21f,%esi
  40545b:	48 89 c7             	mov    %rax,%rdi
  40545e:	ff d2                	callq  *%rdx
  405460:	c9                   	leaveq 
  405461:	c3                   	retq   

0000000000405462 <_ZL3cb1Pvi>:
  405462:	55                   	push   %rbp
  405463:	48 89 e5             	mov    %rsp,%rbp
  405466:	48 83 ec 10          	sub    $0x10,%rsp
  40546a:	48 89 7d f8          	mov    %rdi,-0x8(%rbp)
  40546e:	89 75 f4             	mov    %esi,-0xc(%rbp)
  405471:	be 5c 5d 40 00       	mov    $0x405d5c,%esi
  405476:	bf 40 82 60 00       	mov    $0x608240,%edi
  40547b:	e8 48 c1 ff ff       	callq  4015c8 <_ZStlsISt11char_traitsIcEERSt13basic_ostreamIcT_ES5_PKc@plt>
  405480:	c9                   	leaveq 
  405481:	c3                   	retq   

0000000000405482 <_Z11fgdhjsgfjsdi>:
  405482:	55                   	push   %rbp
  405483:	48 89 e5             	mov    %rsp,%rbp
  405486:	48 83 ec 20          	sub    $0x20,%rsp
  40548a:	89 7d ec             	mov    %edi,-0x14(%rbp)
  40548d:	8b 45 ec             	mov    -0x14(%rbp),%eax
  405490:	48 98                	cltq   
  405492:	48 c1 e0 02          	shl    $0x2,%rax
  405496:	48 89 c7             	mov    %rax,%rdi
  405499:	e8 7a c0 ff ff       	callq  401518 <_Znam@plt>
  40549e:	48 89 45 f8          	mov    %rax,-0x8(%rbp)
  4054a2:	48 8b 45 f8          	mov    -0x8(%rbp),%rax
  4054a6:	8b 00                	mov    (%rax),%eax
  4054a8:	c9                   	leaveq 
  4054a9:	c3                   	retq   

00000000004054aa <main>:
  4054aa:	55                   	push   %rbp
  4054ab:	48 89 e5             	mov    %rsp,%rbp
  4054ae:	41 54                	push   %r12
  4054b0:	53                   	push   %rbx
  4054b1:	48 81 ec 90 00 00 00 	sub    $0x90,%rsp
  4054b8:	89 bd 6c ff ff ff    	mov    %edi,-0x94(%rbp)
  4054be:	48 89 b5 60 ff ff ff 	mov    %rsi,-0xa0(%rbp)
  4054c5:	64 48 8b 04 25 28 00 	mov    %fs:0x28,%rax
  4054cc:	00 00 
  4054ce:	48 89 45 e8          	mov    %rax,-0x18(%rbp)
  4054d2:	31 c0                	xor    %eax,%eax
  4054d4:	48 8d 85 70 ff ff ff 	lea    -0x90(%rbp),%rax
  4054db:	48 89 c7             	mov    %rax,%rdi
  4054de:	e8 7f c5 ff ff       	callq  401a62 <_ZN6xaxaxa9AsyncSock13SocketManagerC1Ev>
  4054e3:	48 8d 45 c0          	lea    -0x40(%rbp),%rax
  4054e7:	41 b8 01 00 00 00    	mov    $0x1,%r8d
  4054ed:	b9 00 00 00 00       	mov    $0x0,%ecx
  4054f2:	ba 01 00 00 00       	mov    $0x1,%edx
  4054f7:	be 02 00 00 00       	mov    $0x2,%esi
  4054fc:	48 89 c7             	mov    %rax,%rdi
  4054ff:	e8 66 01 00 00       	callq  40566a <_ZN6xaxaxa9AsyncSock6SocketC1Eiiib>
  405504:	66 c7 45 d0 02 00    	movw   $0x2,-0x30(%rbp)
  40550a:	bf d2 04 00 00       	mov    $0x4d2,%edi
  40550f:	e8 24 c0 ff ff       	callq  401538 <htons@plt>
  405514:	66 89 45 d2          	mov    %ax,-0x2e(%rbp)
  405518:	48 8d 45 d0          	lea    -0x30(%rbp),%rax
  40551c:	48 83 c0 04          	add    $0x4,%rax
  405520:	48 89 c2             	mov    %rax,%rdx
  405523:	be 65 5d 40 00       	mov    $0x405d65,%esi
  405528:	bf 02 00 00 00       	mov    $0x2,%edi
  40552d:	e8 b6 bf ff ff       	callq  4014e8 <inet_pton@plt>
  405532:	48 8d 4d d0          	lea    -0x30(%rbp),%rcx
  405536:	48 8d 45 c0          	lea    -0x40(%rbp),%rax
  40553a:	ba 10 00 00 00       	mov    $0x10,%edx
  40553f:	48 89 ce             	mov    %rcx,%rsi
  405542:	48 89 c7             	mov    %rax,%rdi
  405545:	e8 90 01 00 00       	callq  4056da <_ZN6xaxaxa9AsyncSock6Socket4BindEP8sockaddri>
  40554a:	48 8d 45 b0          	lea    -0x50(%rbp),%rax
  40554e:	ba 00 00 00 00       	mov    $0x0,%edx
  405553:	be 62 54 40 00       	mov    $0x405462,%esi
  405558:	48 89 c7             	mov    %rax,%rdi
  40555b:	e8 54 02 00 00       	callq  4057b4 <_ZN6xaxaxa9AsyncSock13SocketManager8CallbackC1EPFvPviES3_>
  405560:	8b 5d c0             	mov    -0x40(%rbp),%ebx
  405563:	48 8b 55 b0          	mov    -0x50(%rbp),%rdx
  405567:	48 8b 4d b8          	mov    -0x48(%rbp),%rcx
  40556b:	48 8d 85 70 ff ff ff 	lea    -0x90(%rbp),%rax
  405572:	89 de                	mov    %ebx,%esi
  405574:	48 89 c7             	mov    %rax,%rdi
  405577:	e8 ec cf ff ff       	callq  402568 <_ZN6xaxaxa9AsyncSock13SocketManager11BeginAcceptEiNS1_8CallbackE>
  40557c:	48 8d 85 70 ff ff ff 	lea    -0x90(%rbp),%rax
  405583:	48 89 c7             	mov    %rax,%rdi
  405586:	e8 21 c6 ff ff       	callq  401bac <_ZN6xaxaxa9AsyncSock13SocketManager9EventLoopEv>
  40558b:	bf 0a 00 00 00       	mov    $0xa,%edi
  405590:	e8 ed fe ff ff       	callq  405482 <_Z11fgdhjsgfjsdi>
  405595:	bb 00 00 00 00       	mov    $0x0,%ebx
  40559a:	48 8d 45 c0          	lea    -0x40(%rbp),%rax
  40559e:	48 89 c7             	mov    %rax,%rdi
  4055a1:	e8 e8 01 00 00       	callq  40578e <_ZN6xaxaxa9AsyncSock6SocketD1Ev>
  4055a6:	eb 3b                	jmp    4055e3 <main+0x139>
  4055a8:	89 d3                	mov    %edx,%ebx
  4055aa:	49 89 c4             	mov    %rax,%r12
  4055ad:	48 8d 45 c0          	lea    -0x40(%rbp),%rax
  4055b1:	48 89 c7             	mov    %rax,%rdi
  4055b4:	e8 d5 01 00 00       	callq  40578e <_ZN6xaxaxa9AsyncSock6SocketD1Ev>
  4055b9:	4c 89 e0             	mov    %r12,%rax
  4055bc:	48 63 d3             	movslq %ebx,%rdx
  4055bf:	eb 00                	jmp    4055c1 <main+0x117>
  4055c1:	89 d3                	mov    %edx,%ebx
  4055c3:	49 89 c4             	mov    %rax,%r12
  4055c6:	48 8d 85 70 ff ff ff 	lea    -0x90(%rbp),%rax
  4055cd:	48 89 c7             	mov    %rax,%rdi
  4055d0:	e8 71 c5 ff ff       	callq  401b46 <_ZN6xaxaxa9AsyncSock13SocketManagerD1Ev>
  4055d5:	4c 89 e0             	mov    %r12,%rax
  4055d8:	48 63 d3             	movslq %ebx,%rdx
  4055db:	48 89 c7             	mov    %rax,%rdi
  4055de:	e8 15 c2 ff ff       	callq  4017f8 <_Unwind_Resume@plt>
  4055e3:	48 8d 85 70 ff ff ff 	lea    -0x90(%rbp),%rax
  4055ea:	48 89 c7             	mov    %rax,%rdi
  4055ed:	e8 54 c5 ff ff       	callq  401b46 <_ZN6xaxaxa9AsyncSock13SocketManagerD1Ev>
  4055f2:	89 d8                	mov    %ebx,%eax
  4055f4:	48 8b 55 e8          	mov    -0x18(%rbp),%rdx
  4055f8:	64 48 33 14 25 28 00 	xor    %fs:0x28,%rdx
  4055ff:	00 00 
  405601:	74 05                	je     405608 <main+0x15e>
  405603:	e8 d0 c0 ff ff       	callq  4016d8 <__stack_chk_fail@plt>
  405608:	48 81 c4 90 00 00 00 	add    $0x90,%rsp
  40560f:	5b                   	pop    %rbx
  405610:	41 5c                	pop    %r12
  405612:	c9                   	leaveq 
  405613:	c3                   	retq   

0000000000405614 <_Z41__static_initialization_and_destruction_0ii>:
  405614:	55                   	push   %rbp
  405615:	48 89 e5             	mov    %rsp,%rbp
  405618:	48 83 ec 10          	sub    $0x10,%rsp
  40561c:	89 7d fc             	mov    %edi,-0x4(%rbp)
  40561f:	89 75 f8             	mov    %esi,-0x8(%rbp)
  405622:	83 7d fc 01          	cmpl   $0x1,-0x4(%rbp)
  405626:	75 2a                	jne    405652 <_Z41__static_initialization_and_destruction_0ii+0x3e>
  405628:	81 7d f8 ff ff 00 00 	cmpl   $0xffff,-0x8(%rbp)
  40562f:	75 21                	jne    405652 <_Z41__static_initialization_and_destruction_0ii+0x3e>
  405631:	bf 20 84 60 00       	mov    $0x608420,%edi
  405636:	e8 0d bf ff ff       	callq  401548 <_ZNSt8ios_base4InitC1Ev@plt>
  40563b:	b8 b8 15 40 00       	mov    $0x4015b8,%eax
  405640:	ba c8 81 60 00       	mov    $0x6081c8,%edx
  405645:	be 20 84 60 00       	mov    $0x608420,%esi
  40564a:	48 89 c7             	mov    %rax,%rdi
  40564d:	e8 56 bf ff ff       	callq  4015a8 <__cxa_atexit@plt>
  405652:	c9                   	leaveq 
  405653:	c3                   	retq   

0000000000405654 <_GLOBAL__I__Z9call_funcN4asdf9function1E>:
  405654:	55                   	push   %rbp
  405655:	48 89 e5             	mov    %rsp,%rbp
  405658:	be ff ff 00 00       	mov    $0xffff,%esi
  40565d:	bf 01 00 00 00       	mov    $0x1,%edi
  405662:	e8 ad ff ff ff       	callq  405614 <_Z41__static_initialization_and_destruction_0ii>
  405667:	c9                   	leaveq 
  405668:	c3                   	retq   
  405669:	90                   	nop

000000000040566a <_ZN6xaxaxa9AsyncSock6SocketC1Eiiib>:
  40566a:	55                   	push   %rbp
  40566b:	48 89 e5             	mov    %rsp,%rbp
  40566e:	48 83 ec 20          	sub    $0x20,%rsp
  405672:	48 89 7d f8          	mov    %rdi,-0x8(%rbp)
  405676:	89 75 f4             	mov    %esi,-0xc(%rbp)
  405679:	89 55 f0             	mov    %edx,-0x10(%rbp)
  40567c:	89 4d ec             	mov    %ecx,-0x14(%rbp)
  40567f:	44 89 c0             	mov    %r8d,%eax
  405682:	88 45 e8             	mov    %al,-0x18(%rbp)
  405685:	8b 55 ec             	mov    -0x14(%rbp),%edx
  405688:	8b 4d f0             	mov    -0x10(%rbp),%ecx
  40568b:	8b 45 f4             	mov    -0xc(%rbp),%eax
  40568e:	89 ce                	mov    %ecx,%esi
  405690:	89 c7                	mov    %eax,%edi
  405692:	e8 f1 bf ff ff       	callq  401688 <socket@plt>
  405697:	48 8b 55 f8          	mov    -0x8(%rbp),%rdx
  40569b:	89 02                	mov    %eax,(%rdx)
  40569d:	48 8b 45 f8          	mov    -0x8(%rbp),%rax
  4056a1:	0f b6 55 e8          	movzbl -0x18(%rbp),%edx
  4056a5:	88 50 04             	mov    %dl,0x4(%rax)
  4056a8:	c9                   	leaveq 
  4056a9:	c3                   	retq   

00000000004056aa <_ZN6xaxaxa9AsyncSock6Socket5CloseEv>:
  4056aa:	55                   	push   %rbp
  4056ab:	48 89 e5             	mov    %rsp,%rbp
  4056ae:	48 83 ec 10          	sub    $0x10,%rsp
  4056b2:	48 89 7d f8          	mov    %rdi,-0x8(%rbp)
  4056b6:	48 8b 45 f8          	mov    -0x8(%rbp),%rax
  4056ba:	8b 00                	mov    (%rax),%eax
  4056bc:	83 f8 ff             	cmp    $0xffffffffffffffff,%eax
  4056bf:	74 0d                	je     4056ce <_ZN6xaxaxa9AsyncSock6Socket5CloseEv+0x24>
  4056c1:	48 8b 45 f8          	mov    -0x8(%rbp),%rax
  4056c5:	8b 00                	mov    (%rax),%eax
  4056c7:	89 c7                	mov    %eax,%edi
  4056c9:	e8 2a be ff ff       	callq  4014f8 <close@plt>
  4056ce:	48 8b 45 f8          	mov    -0x8(%rbp),%rax
  4056d2:	c7 00 ff ff ff ff    	movl   $0xffffffff,(%rax)
  4056d8:	c9                   	leaveq 
  4056d9:	c3                   	retq   

00000000004056da <_ZN6xaxaxa9AsyncSock6Socket4BindEP8sockaddri>:
  4056da:	55                   	push   %rbp
  4056db:	48 89 e5             	mov    %rsp,%rbp
  4056de:	41 55                	push   %r13
  4056e0:	41 54                	push   %r12
  4056e2:	53                   	push   %rbx
  4056e3:	48 83 ec 28          	sub    $0x28,%rsp
  4056e7:	48 89 7d d8          	mov    %rdi,-0x28(%rbp)
  4056eb:	48 89 75 d0          	mov    %rsi,-0x30(%rbp)
  4056ef:	89 55 cc             	mov    %edx,-0x34(%rbp)
  4056f2:	83 7d cc 00          	cmpl   $0x0,-0x34(%rbp)
  4056f6:	74 05                	je     4056fd <_ZN6xaxaxa9AsyncSock6Socket4BindEP8sockaddri+0x23>
  4056f8:	8b 45 cc             	mov    -0x34(%rbp),%eax
  4056fb:	eb 05                	jmp    405702 <_ZN6xaxaxa9AsyncSock6Socket4BindEP8sockaddri+0x28>
  4056fd:	b8 10 00 00 00       	mov    $0x10,%eax
  405702:	48 8b 55 d8          	mov    -0x28(%rbp),%rdx
  405706:	8b 0a                	mov    (%rdx),%ecx
  405708:	48 8b 5d d0          	mov    -0x30(%rbp),%rbx
  40570c:	89 c2                	mov    %eax,%edx
  40570e:	48 89 de             	mov    %rbx,%rsi
  405711:	89 cf                	mov    %ecx,%edi
  405713:	e8 70 c0 ff ff       	callq  401788 <bind@plt>
  405718:	85 c0                	test   %eax,%eax
  40571a:	0f 95 c0             	setne  %al
  40571d:	84 c0                	test   %al,%al
  40571f:	74 61                	je     405782 <_ZN6xaxaxa9AsyncSock6Socket4BindEP8sockaddri+0xa8>
  405721:	bf 10 00 00 00       	mov    $0x10,%edi
  405726:	e8 bd c0 ff ff       	callq  4017e8 <_Znwm@plt>
  40572b:	48 89 c3             	mov    %rax,%rbx
  40572e:	e8 75 bf ff ff       	callq  4016a8 <__errno_location@plt>
  405733:	8b 10                	mov    (%rax),%edx
  405735:	48 89 d8             	mov    %rbx,%rax
  405738:	89 d6                	mov    %edx,%esi
  40573a:	48 89 c7             	mov    %rax,%rdi
  40573d:	e8 f6 d0 ff ff       	callq  402838 <_ZN6xaxaxa9ExceptionC1Ei>
  405742:	eb 1c                	jmp    405760 <_ZN6xaxaxa9AsyncSock6Socket4BindEP8sockaddri+0x86>
  405744:	41 89 d4             	mov    %edx,%r12d
  405747:	49 89 c5             	mov    %rax,%r13
  40574a:	48 89 df             	mov    %rbx,%rdi
  40574d:	e8 d6 bd ff ff       	callq  401528 <_ZdlPv@plt>
  405752:	4c 89 e8             	mov    %r13,%rax
  405755:	49 63 d4             	movslq %r12d,%rdx
  405758:	48 89 c7             	mov    %rax,%rdi
  40575b:	e8 98 c0 ff ff       	callq  4017f8 <_Unwind_Resume@plt>
  405760:	bf 08 00 00 00       	mov    $0x8,%edi
  405765:	e8 7e bf ff ff       	callq  4016e8 <__cxa_allocate_exception@plt>
  40576a:	48 89 c2             	mov    %rax,%rdx
  40576d:	48 89 1a             	mov    %rbx,(%rdx)
  405770:	ba 00 00 00 00       	mov    $0x0,%edx
  405775:	be 80 5a 40 00       	mov    $0x405a80,%esi
  40577a:	48 89 c7             	mov    %rax,%rdi
  40577d:	e8 b6 bf ff ff       	callq  401738 <__cxa_throw@plt>
  405782:	48 83 c4 28          	add    $0x28,%rsp
  405786:	5b                   	pop    %rbx
  405787:	41 5c                	pop    %r12
  405789:	41 5d                	pop    %r13
  40578b:	c9                   	leaveq 
  40578c:	c3                   	retq   
  40578d:	90                   	nop

000000000040578e <_ZN6xaxaxa9AsyncSock6SocketD1Ev>:
  40578e:	55                   	push   %rbp
  40578f:	48 89 e5             	mov    %rsp,%rbp
  405792:	48 83 ec 10          	sub    $0x10,%rsp
  405796:	48 89 7d f8          	mov    %rdi,-0x8(%rbp)
  40579a:	48 8b 45 f8          	mov    -0x8(%rbp),%rax
  40579e:	0f b6 40 04          	movzbl 0x4(%rax),%eax
  4057a2:	84 c0                	test   %al,%al
  4057a4:	74 0c                	je     4057b2 <_ZN6xaxaxa9AsyncSock6SocketD1Ev+0x24>
  4057a6:	48 8b 45 f8          	mov    -0x8(%rbp),%rax
  4057aa:	48 89 c7             	mov    %rax,%rdi
  4057ad:	e8 f8 fe ff ff       	callq  4056aa <_ZN6xaxaxa9AsyncSock6Socket5CloseEv>
  4057b2:	c9                   	leaveq 
  4057b3:	c3                   	retq   

00000000004057b4 <_ZN6xaxaxa9AsyncSock13SocketManager8CallbackC1EPFvPviES3_>:
  4057b4:	55                   	push   %rbp
  4057b5:	48 89 e5             	mov    %rsp,%rbp
  4057b8:	48 89 7d f8          	mov    %rdi,-0x8(%rbp)
  4057bc:	48 89 75 f0          	mov    %rsi,-0x10(%rbp)
  4057c0:	48 89 55 e8          	mov    %rdx,-0x18(%rbp)
  4057c4:	48 8b 45 f8          	mov    -0x8(%rbp),%rax
  4057c8:	48 8b 55 f0          	mov    -0x10(%rbp),%rdx
  4057cc:	48 89 10             	mov    %rdx,(%rax)
  4057cf:	48 8b 45 f8          	mov    -0x8(%rbp),%rax
  4057d3:	48 8b 55 e8          	mov    -0x18(%rbp),%rdx
  4057d7:	48 89 50 08          	mov    %rdx,0x8(%rax)
  4057db:	c9                   	leaveq 
  4057dc:	c3                   	retq   
  4057dd:	90                   	nop
  4057de:	90                   	nop
  4057df:	90                   	nop

00000000004057e0 <__libc_csu_fini>:
  4057e0:	f3 c3                	repz retq 
  4057e2:	eb 0c                	jmp    4057f0 <__libc_csu_init>
  4057e4:	90                   	nop
  4057e5:	90                   	nop
  4057e6:	90                   	nop
  4057e7:	90                   	nop
  4057e8:	90                   	nop
  4057e9:	90                   	nop
  4057ea:	90                   	nop
  4057eb:	90                   	nop
  4057ec:	90                   	nop
  4057ed:	90                   	nop
  4057ee:	90                   	nop
  4057ef:	90                   	nop

00000000004057f0 <__libc_csu_init>:
  4057f0:	48 89 6c 24 d8       	mov    %rbp,-0x28(%rsp)
  4057f5:	4c 89 64 24 e0       	mov    %r12,-0x20(%rsp)
  4057fa:	48 8d 2d d9 25 20 00 	lea    0x2025d9(%rip),%rbp        # 607dda <__init_array_end>
  405801:	4c 8d 25 d2 25 20 00 	lea    0x2025d2(%rip),%r12        # 607dda <__init_array_end>
  405808:	4c 89 6c 24 e8       	mov    %r13,-0x18(%rsp)
  40580d:	4c 89 74 24 f0       	mov    %r14,-0x10(%rsp)
  405812:	4c 89 7c 24 f8       	mov    %r15,-0x8(%rsp)
  405817:	48 89 5c 24 d0       	mov    %rbx,-0x30(%rsp)
  40581c:	48 83 ec 38          	sub    $0x38,%rsp
  405820:	4c 29 e5             	sub    %r12,%rbp
  405823:	41 89 fd             	mov    %edi,%r13d
  405826:	49 89 f6             	mov    %rsi,%r14
  405829:	48 c1 fd 03          	sar    $0x3,%rbp
  40582d:	49 89 d7             	mov    %rdx,%r15
  405830:	e8 5b bc ff ff       	callq  401490 <_init>
  405835:	48 85 ed             	test   %rbp,%rbp
  405838:	74 1c                	je     405856 <__libc_csu_init+0x66>
  40583a:	31 db                	xor    %ebx,%ebx
  40583c:	eb 02                	jmp    405840 <__libc_csu_init+0x50>
  40583e:	90                   	nop
  40583f:	90                   	nop
  405840:	4c 89 fa             	mov    %r15,%rdx
  405843:	4c 89 f6             	mov    %r14,%rsi
  405846:	44 89 ef             	mov    %r13d,%edi
  405849:	41 ff 14 dc          	callq  *(%r12,%rbx,8)
  40584d:	48 83 c3 01          	add    $0x1,%rbx
  405851:	48 39 eb             	cmp    %rbp,%rbx
  405854:	72 ea                	jb     405840 <__libc_csu_init+0x50>
  405856:	48 8b 5c 24 08       	mov    0x8(%rsp),%rbx
  40585b:	48 8b 6c 24 10       	mov    0x10(%rsp),%rbp
  405860:	4c 8b 64 24 18       	mov    0x18(%rsp),%r12
  405865:	4c 8b 6c 24 20       	mov    0x20(%rsp),%r13
  40586a:	4c 8b 74 24 28       	mov    0x28(%rsp),%r14
  40586f:	4c 8b 7c 24 30       	mov    0x30(%rsp),%r15
  405874:	48 83 c4 38          	add    $0x38,%rsp
  405878:	c3                   	retq   
  405879:	90                   	nop
  40587a:	90                   	nop
  40587b:	90                   	nop
  40587c:	90                   	nop
  40587d:	90                   	nop
  40587e:	90                   	nop
  40587f:	90                   	nop

0000000000405880 <__do_global_ctors_aux>:
  405880:	55                   	push   %rbp
  405881:	48 89 e5             	mov    %rsp,%rbp
  405884:	53                   	push   %rbx
  405885:	48 83 ec 08          	sub    $0x8,%rsp
  405889:	48 8b 05 68 25 20 00 	mov    0x202568(%rip),%rax        # 607df8 <__CTOR_LIST__+0x18>
  405890:	48 83 f8 ff          	cmp    $0xffffffffffffffff,%rax
  405894:	74 19                	je     4058af <__do_global_ctors_aux+0x2f>
  405896:	bb f8 7d 60 00       	mov    $0x607df8,%ebx
  40589b:	eb 03                	jmp    4058a0 <__do_global_ctors_aux+0x20>
  40589d:	90                   	nop
  40589e:	90                   	nop
  40589f:	90                   	nop
  4058a0:	48 83 eb 08          	sub    $0x8,%rbx
  4058a4:	ff d0                	callq  *%rax
  4058a6:	48 8b 03             	mov    (%rbx),%rax
  4058a9:	48 83 f8 ff          	cmp    $0xffffffffffffffff,%rax
  4058ad:	75 f1                	jne    4058a0 <__do_global_ctors_aux+0x20>
  4058af:	48 83 c4 08          	add    $0x8,%rsp
  4058b3:	5b                   	pop    %rbx
  4058b4:	c9                   	leaveq 
  4058b5:	c3                   	retq   
  4058b6:	90                   	nop
  4058b7:	90                   	nop

Disassembly of section .fini:

00000000004058b8 <_fini>:
  4058b8:	48 83 ec 08          	sub    $0x8,%rsp
  4058bc:	e8 cf bf ff ff       	callq  401890 <__do_global_dtors_aux>
  4058c1:	48 83 c4 08          	add    $0x8,%rsp
  4058c5:	c3                   	retq   
