
test1:     file format elf64-x86-64


Disassembly of section .init:

0000000000400fe8 <_init>:
  400fe8:	48 83 ec 08          	sub    $0x8,%rsp
  400fec:	e8 bb 02 00 00       	callq  4012ac <call_gmon_start>
  400ff1:	e8 4a 03 00 00       	callq  401340 <frame_dummy>
  400ff6:	e8 b5 32 00 00       	callq  4042b0 <__do_global_ctors_aux>
  400ffb:	48 83 c4 08          	add    $0x8,%rsp
  400fff:	c3                   	retq   

Disassembly of section .plt:

0000000000401000 <_ZSt18_Rb_tree_decrementPKSt18_Rb_tree_node_base@plt-0x10>:
  401000:	ff 35 ea 4f 20 00    	pushq  0x204fea(%rip)        # 605ff0 <_GLOBAL_OFFSET_TABLE_+0x8>
  401006:	ff 25 ec 4f 20 00    	jmpq   *0x204fec(%rip)        # 605ff8 <_GLOBAL_OFFSET_TABLE_+0x10>
  40100c:	0f 1f 40 00          	nopl   0x0(%rax)

0000000000401010 <_ZSt18_Rb_tree_decrementPKSt18_Rb_tree_node_base@plt>:
  401010:	ff 25 ea 4f 20 00    	jmpq   *0x204fea(%rip)        # 606000 <_GLOBAL_OFFSET_TABLE_+0x18>
  401016:	68 00 00 00 00       	pushq  $0x0
  40101b:	e9 e0 ff ff ff       	jmpq   401000 <_init+0x18>

0000000000401020 <close@plt>:
  401020:	ff 25 e2 4f 20 00    	jmpq   *0x204fe2(%rip)        # 606008 <_GLOBAL_OFFSET_TABLE_+0x20>
  401026:	68 01 00 00 00       	pushq  $0x1
  40102b:	e9 d0 ff ff ff       	jmpq   401000 <_init+0x18>

0000000000401030 <epoll_create@plt>:
  401030:	ff 25 da 4f 20 00    	jmpq   *0x204fda(%rip)        # 606010 <_GLOBAL_OFFSET_TABLE_+0x28>
  401036:	68 02 00 00 00       	pushq  $0x2
  40103b:	e9 c0 ff ff ff       	jmpq   401000 <_init+0x18>

0000000000401040 <_Znam@plt>:
  401040:	ff 25 d2 4f 20 00    	jmpq   *0x204fd2(%rip)        # 606018 <_GLOBAL_OFFSET_TABLE_+0x30>
  401046:	68 03 00 00 00       	pushq  $0x3
  40104b:	e9 b0 ff ff ff       	jmpq   401000 <_init+0x18>

0000000000401050 <_ZdlPv@plt>:
  401050:	ff 25 ca 4f 20 00    	jmpq   *0x204fca(%rip)        # 606020 <_GLOBAL_OFFSET_TABLE_+0x38>
  401056:	68 04 00 00 00       	pushq  $0x4
  40105b:	e9 a0 ff ff ff       	jmpq   401000 <_init+0x18>

0000000000401060 <_ZNSt8ios_base4InitC1Ev@plt>:
  401060:	ff 25 c2 4f 20 00    	jmpq   *0x204fc2(%rip)        # 606028 <_GLOBAL_OFFSET_TABLE_+0x40>
  401066:	68 05 00 00 00       	pushq  $0x5
  40106b:	e9 90 ff ff ff       	jmpq   401000 <_init+0x18>

0000000000401070 <malloc@plt>:
  401070:	ff 25 ba 4f 20 00    	jmpq   *0x204fba(%rip)        # 606030 <_GLOBAL_OFFSET_TABLE_+0x48>
  401076:	68 06 00 00 00       	pushq  $0x6
  40107b:	e9 80 ff ff ff       	jmpq   401000 <_init+0x18>

0000000000401080 <__libc_start_main@plt>:
  401080:	ff 25 b2 4f 20 00    	jmpq   *0x204fb2(%rip)        # 606038 <_GLOBAL_OFFSET_TABLE_+0x50>
  401086:	68 07 00 00 00       	pushq  $0x7
  40108b:	e9 70 ff ff ff       	jmpq   401000 <_init+0x18>

0000000000401090 <recv@plt>:
  401090:	ff 25 aa 4f 20 00    	jmpq   *0x204faa(%rip)        # 606040 <_GLOBAL_OFFSET_TABLE_+0x58>
  401096:	68 08 00 00 00       	pushq  $0x8
  40109b:	e9 60 ff ff ff       	jmpq   401000 <_init+0x18>

00000000004010a0 <_ZSt18_Rb_tree_decrementPSt18_Rb_tree_node_base@plt>:
  4010a0:	ff 25 a2 4f 20 00    	jmpq   *0x204fa2(%rip)        # 606048 <_GLOBAL_OFFSET_TABLE_+0x60>
  4010a6:	68 09 00 00 00       	pushq  $0x9
  4010ab:	e9 50 ff ff ff       	jmpq   401000 <_init+0x18>

00000000004010b0 <_ZNSsC1ERKSs@plt>:
  4010b0:	ff 25 9a 4f 20 00    	jmpq   *0x204f9a(%rip)        # 606050 <_GLOBAL_OFFSET_TABLE_+0x68>
  4010b6:	68 0a 00 00 00       	pushq  $0xa
  4010bb:	e9 40 ff ff ff       	jmpq   401000 <_init+0x18>

00000000004010c0 <__cxa_atexit@plt>:
  4010c0:	ff 25 92 4f 20 00    	jmpq   *0x204f92(%rip)        # 606058 <_GLOBAL_OFFSET_TABLE_+0x70>
  4010c6:	68 0b 00 00 00       	pushq  $0xb
  4010cb:	e9 30 ff ff ff       	jmpq   401000 <_init+0x18>

00000000004010d0 <_ZNSt8ios_base4InitD1Ev@plt>:
  4010d0:	ff 25 8a 4f 20 00    	jmpq   *0x204f8a(%rip)        # 606060 <_GLOBAL_OFFSET_TABLE_+0x78>
  4010d6:	68 0c 00 00 00       	pushq  $0xc
  4010db:	e9 20 ff ff ff       	jmpq   401000 <_init+0x18>

00000000004010e0 <_ZNSsD1Ev@plt>:
  4010e0:	ff 25 82 4f 20 00    	jmpq   *0x204f82(%rip)        # 606068 <_GLOBAL_OFFSET_TABLE_+0x80>
  4010e6:	68 0d 00 00 00       	pushq  $0xd
  4010eb:	e9 10 ff ff ff       	jmpq   401000 <_init+0x18>

00000000004010f0 <free@plt>:
  4010f0:	ff 25 7a 4f 20 00    	jmpq   *0x204f7a(%rip)        # 606070 <_GLOBAL_OFFSET_TABLE_+0x88>
  4010f6:	68 0e 00 00 00       	pushq  $0xe
  4010fb:	e9 00 ff ff ff       	jmpq   401000 <_init+0x18>

0000000000401100 <_ZNSs4_Rep10_M_destroyERKSaIcE@plt>:
  401100:	ff 25 72 4f 20 00    	jmpq   *0x204f72(%rip)        # 606078 <_GLOBAL_OFFSET_TABLE_+0x90>
  401106:	68 0f 00 00 00       	pushq  $0xf
  40110b:	e9 f0 fe ff ff       	jmpq   401000 <_init+0x18>

0000000000401110 <_ZSt18_Rb_tree_incrementPKSt18_Rb_tree_node_base@plt>:
  401110:	ff 25 6a 4f 20 00    	jmpq   *0x204f6a(%rip)        # 606080 <_GLOBAL_OFFSET_TABLE_+0x98>
  401116:	68 10 00 00 00       	pushq  $0x10
  40111b:	e9 e0 fe ff ff       	jmpq   401000 <_init+0x18>

0000000000401120 <_ZNSsC1EPKcRKSaIcE@plt>:
  401120:	ff 25 62 4f 20 00    	jmpq   *0x204f62(%rip)        # 606088 <_GLOBAL_OFFSET_TABLE_+0xa0>
  401126:	68 11 00 00 00       	pushq  $0x11
  40112b:	e9 d0 fe ff ff       	jmpq   401000 <_init+0x18>

0000000000401130 <epoll_ctl@plt>:
  401130:	ff 25 5a 4f 20 00    	jmpq   *0x204f5a(%rip)        # 606090 <_GLOBAL_OFFSET_TABLE_+0xa8>
  401136:	68 12 00 00 00       	pushq  $0x12
  40113b:	e9 c0 fe ff ff       	jmpq   401000 <_init+0x18>

0000000000401140 <_ZSt9terminatev@plt>:
  401140:	ff 25 52 4f 20 00    	jmpq   *0x204f52(%rip)        # 606098 <_GLOBAL_OFFSET_TABLE_+0xb0>
  401146:	68 13 00 00 00       	pushq  $0x13
  40114b:	e9 b0 fe ff ff       	jmpq   401000 <_init+0x18>

0000000000401150 <__cxa_pure_virtual@plt>:
  401150:	ff 25 4a 4f 20 00    	jmpq   *0x204f4a(%rip)        # 6060a0 <_GLOBAL_OFFSET_TABLE_+0xb8>
  401156:	68 14 00 00 00       	pushq  $0x14
  40115b:	e9 a0 fe ff ff       	jmpq   401000 <_init+0x18>

0000000000401160 <memcpy@plt>:
  401160:	ff 25 42 4f 20 00    	jmpq   *0x204f42(%rip)        # 6060a8 <_GLOBAL_OFFSET_TABLE_+0xc0>
  401166:	68 15 00 00 00       	pushq  $0x15
  40116b:	e9 90 fe ff ff       	jmpq   401000 <_init+0x18>

0000000000401170 <signal@plt>:
  401170:	ff 25 3a 4f 20 00    	jmpq   *0x204f3a(%rip)        # 6060b0 <_GLOBAL_OFFSET_TABLE_+0xc8>
  401176:	68 16 00 00 00       	pushq  $0x16
  40117b:	e9 80 fe ff ff       	jmpq   401000 <_init+0x18>

0000000000401180 <fread@plt>:
  401180:	ff 25 32 4f 20 00    	jmpq   *0x204f32(%rip)        # 6060b8 <_GLOBAL_OFFSET_TABLE_+0xd0>
  401186:	68 17 00 00 00       	pushq  $0x17
  40118b:	e9 70 fe ff ff       	jmpq   401000 <_init+0x18>

0000000000401190 <_ZSt29_Rb_tree_insert_and_rebalancebPSt18_Rb_tree_node_baseS0_RS_@plt>:
  401190:	ff 25 2a 4f 20 00    	jmpq   *0x204f2a(%rip)        # 6060c0 <_GLOBAL_OFFSET_TABLE_+0xd8>
  401196:	68 18 00 00 00       	pushq  $0x18
  40119b:	e9 60 fe ff ff       	jmpq   401000 <_init+0x18>

00000000004011a0 <__cxa_allocate_exception@plt>:
  4011a0:	ff 25 22 4f 20 00    	jmpq   *0x204f22(%rip)        # 6060c8 <_GLOBAL_OFFSET_TABLE_+0xe0>
  4011a6:	68 19 00 00 00       	pushq  $0x19
  4011ab:	e9 50 fe ff ff       	jmpq   401000 <_init+0x18>

00000000004011b0 <send@plt>:
  4011b0:	ff 25 1a 4f 20 00    	jmpq   *0x204f1a(%rip)        # 6060d0 <_GLOBAL_OFFSET_TABLE_+0xe8>
  4011b6:	68 1a 00 00 00       	pushq  $0x1a
  4011bb:	e9 40 fe ff ff       	jmpq   401000 <_init+0x18>

00000000004011c0 <epoll_wait@plt>:
  4011c0:	ff 25 12 4f 20 00    	jmpq   *0x204f12(%rip)        # 6060d8 <_GLOBAL_OFFSET_TABLE_+0xf0>
  4011c6:	68 1b 00 00 00       	pushq  $0x1b
  4011cb:	e9 30 fe ff ff       	jmpq   401000 <_init+0x18>

00000000004011d0 <_ZNSs6assignERKSs@plt>:
  4011d0:	ff 25 0a 4f 20 00    	jmpq   *0x204f0a(%rip)        # 6060e0 <_GLOBAL_OFFSET_TABLE_+0xf8>
  4011d6:	68 1c 00 00 00       	pushq  $0x1c
  4011db:	e9 20 fe ff ff       	jmpq   401000 <_init+0x18>

00000000004011e0 <__cxa_throw@plt>:
  4011e0:	ff 25 02 4f 20 00    	jmpq   *0x204f02(%rip)        # 6060e8 <_GLOBAL_OFFSET_TABLE_+0x100>
  4011e6:	68 1d 00 00 00       	pushq  $0x1d
  4011eb:	e9 10 fe ff ff       	jmpq   401000 <_init+0x18>

00000000004011f0 <fclose@plt>:
  4011f0:	ff 25 fa 4e 20 00    	jmpq   *0x204efa(%rip)        # 6060f0 <_GLOBAL_OFFSET_TABLE_+0x108>
  4011f6:	68 1e 00 00 00       	pushq  $0x1e
  4011fb:	e9 00 fe ff ff       	jmpq   401000 <_init+0x18>

0000000000401200 <fwrite@plt>:
  401200:	ff 25 f2 4e 20 00    	jmpq   *0x204ef2(%rip)        # 6060f8 <_GLOBAL_OFFSET_TABLE_+0x110>
  401206:	68 1f 00 00 00       	pushq  $0x1f
  40120b:	e9 f0 fd ff ff       	jmpq   401000 <_init+0x18>

0000000000401210 <realloc@plt>:
  401210:	ff 25 ea 4e 20 00    	jmpq   *0x204eea(%rip)        # 606100 <_GLOBAL_OFFSET_TABLE_+0x118>
  401216:	68 20 00 00 00       	pushq  $0x20
  40121b:	e9 e0 fd ff ff       	jmpq   401000 <_init+0x18>

0000000000401220 <perror@plt>:
  401220:	ff 25 e2 4e 20 00    	jmpq   *0x204ee2(%rip)        # 606108 <_GLOBAL_OFFSET_TABLE_+0x120>
  401226:	68 21 00 00 00       	pushq  $0x21
  40122b:	e9 d0 fd ff ff       	jmpq   401000 <_init+0x18>

0000000000401230 <__gxx_personality_v0@plt>:
  401230:	ff 25 da 4e 20 00    	jmpq   *0x204eda(%rip)        # 606110 <_GLOBAL_OFFSET_TABLE_+0x128>
  401236:	68 22 00 00 00       	pushq  $0x22
  40123b:	e9 c0 fd ff ff       	jmpq   401000 <_init+0x18>

0000000000401240 <_Znwm@plt>:
  401240:	ff 25 d2 4e 20 00    	jmpq   *0x204ed2(%rip)        # 606118 <_GLOBAL_OFFSET_TABLE_+0x130>
  401246:	68 23 00 00 00       	pushq  $0x23
  40124b:	e9 b0 fd ff ff       	jmpq   401000 <_init+0x18>

0000000000401250 <_Unwind_Resume@plt>:
  401250:	ff 25 ca 4e 20 00    	jmpq   *0x204eca(%rip)        # 606120 <_GLOBAL_OFFSET_TABLE_+0x138>
  401256:	68 24 00 00 00       	pushq  $0x24
  40125b:	e9 a0 fd ff ff       	jmpq   401000 <_init+0x18>

0000000000401260 <accept@plt>:
  401260:	ff 25 c2 4e 20 00    	jmpq   *0x204ec2(%rip)        # 606128 <_GLOBAL_OFFSET_TABLE_+0x140>
  401266:	68 25 00 00 00       	pushq  $0x25
  40126b:	e9 90 fd ff ff       	jmpq   401000 <_init+0x18>

0000000000401270 <fflush@plt>:
  401270:	ff 25 ba 4e 20 00    	jmpq   *0x204eba(%rip)        # 606130 <_GLOBAL_OFFSET_TABLE_+0x148>
  401276:	68 26 00 00 00       	pushq  $0x26
  40127b:	e9 80 fd ff ff       	jmpq   401000 <_init+0x18>

Disassembly of section .text:

0000000000401280 <_start>:
  401280:	31 ed                	xor    %ebp,%ebp
  401282:	49 89 d1             	mov    %rdx,%r9
  401285:	5e                   	pop    %rsi
  401286:	48 89 e2             	mov    %rsp,%rdx
  401289:	48 83 e4 f0          	and    $0xfffffffffffffff0,%rsp
  40128d:	50                   	push   %rax
  40128e:	54                   	push   %rsp
  40128f:	49 c7 c0 10 42 40 00 	mov    $0x404210,%r8
  401296:	48 c7 c1 20 42 40 00 	mov    $0x404220,%rcx
  40129d:	48 c7 c7 d0 41 40 00 	mov    $0x4041d0,%rdi
  4012a4:	e8 d7 fd ff ff       	callq  401080 <__libc_start_main@plt>
  4012a9:	f4                   	hlt    
  4012aa:	90                   	nop
  4012ab:	90                   	nop

00000000004012ac <call_gmon_start>:
  4012ac:	48 83 ec 08          	sub    $0x8,%rsp
  4012b0:	48 8b 05 29 4d 20 00 	mov    0x204d29(%rip),%rax        # 605fe0 <_DYNAMIC+0x1c0>
  4012b7:	48 85 c0             	test   %rax,%rax
  4012ba:	74 02                	je     4012be <call_gmon_start+0x12>
  4012bc:	ff d0                	callq  *%rax
  4012be:	48 83 c4 08          	add    $0x8,%rsp
  4012c2:	c3                   	retq   
  4012c3:	90                   	nop
  4012c4:	90                   	nop
  4012c5:	90                   	nop
  4012c6:	90                   	nop
  4012c7:	90                   	nop
  4012c8:	90                   	nop
  4012c9:	90                   	nop
  4012ca:	90                   	nop
  4012cb:	90                   	nop
  4012cc:	90                   	nop
  4012cd:	90                   	nop
  4012ce:	90                   	nop
  4012cf:	90                   	nop

00000000004012d0 <__do_global_dtors_aux>:
  4012d0:	55                   	push   %rbp
  4012d1:	48 89 e5             	mov    %rsp,%rbp
  4012d4:	53                   	push   %rbx
  4012d5:	48 83 ec 08          	sub    $0x8,%rsp
  4012d9:	80 3d a8 4f 20 00 00 	cmpb   $0x0,0x204fa8(%rip)        # 606288 <completed.7424>
  4012e0:	75 4b                	jne    40132d <__do_global_dtors_aux+0x5d>
  4012e2:	bb 10 5e 60 00       	mov    $0x605e10,%ebx
  4012e7:	48 8b 05 a2 4f 20 00 	mov    0x204fa2(%rip),%rax        # 606290 <dtor_idx.7426>
  4012ee:	48 81 eb 08 5e 60 00 	sub    $0x605e08,%rbx
  4012f5:	48 c1 fb 03          	sar    $0x3,%rbx
  4012f9:	48 83 eb 01          	sub    $0x1,%rbx
  4012fd:	48 39 d8             	cmp    %rbx,%rax
  401300:	73 24                	jae    401326 <__do_global_dtors_aux+0x56>
  401302:	eb 04                	jmp    401308 <__do_global_dtors_aux+0x38>
  401304:	90                   	nop
  401305:	90                   	nop
  401306:	90                   	nop
  401307:	90                   	nop
  401308:	48 83 c0 01          	add    $0x1,%rax
  40130c:	48 89 05 7d 4f 20 00 	mov    %rax,0x204f7d(%rip)        # 606290 <dtor_idx.7426>
  401313:	ff 14 c5 08 5e 60 00 	callq  *0x605e08(,%rax,8)
  40131a:	48 8b 05 6f 4f 20 00 	mov    0x204f6f(%rip),%rax        # 606290 <dtor_idx.7426>
  401321:	48 39 d8             	cmp    %rbx,%rax
  401324:	72 e2                	jb     401308 <__do_global_dtors_aux+0x38>
  401326:	c6 05 5b 4f 20 00 01 	movb   $0x1,0x204f5b(%rip)        # 606288 <completed.7424>
  40132d:	48 83 c4 08          	add    $0x8,%rsp
  401331:	5b                   	pop    %rbx
  401332:	c9                   	leaveq 
  401333:	c3                   	retq   
  401334:	eb 0a                	jmp    401340 <frame_dummy>
  401336:	90                   	nop
  401337:	90                   	nop
  401338:	90                   	nop
  401339:	90                   	nop
  40133a:	90                   	nop
  40133b:	90                   	nop
  40133c:	90                   	nop
  40133d:	90                   	nop
  40133e:	90                   	nop
  40133f:	90                   	nop

0000000000401340 <frame_dummy>:
  401340:	55                   	push   %rbp
  401341:	48 83 3d cf 4a 20 00 	cmpq   $0x0,0x204acf(%rip)        # 605e18 <__JCR_END__>
  401348:	00 
  401349:	48 89 e5             	mov    %rsp,%rbp
  40134c:	74 12                	je     401360 <frame_dummy+0x20>
  40134e:	b8 00 00 00 00       	mov    $0x0,%eax
  401353:	48 85 c0             	test   %rax,%rax
  401356:	74 08                	je     401360 <frame_dummy+0x20>
  401358:	bf 18 5e 60 00       	mov    $0x605e18,%edi
  40135d:	c9                   	leaveq 
  40135e:	ff e0                	jmpq   *%rax
  401360:	c9                   	leaveq 
  401361:	c3                   	retq   
  401362:	90                   	nop
  401363:	90                   	nop
  401364:	90                   	nop
  401365:	90                   	nop
  401366:	90                   	nop
  401367:	90                   	nop
  401368:	90                   	nop
  401369:	90                   	nop
  40136a:	90                   	nop
  40136b:	90                   	nop
  40136c:	90                   	nop
  40136d:	90                   	nop
  40136e:	90                   	nop
  40136f:	90                   	nop

0000000000401370 <_ZN9asdfghjklC2Ev>:
  401370:	48 c7 07 30 43 40 00 	movq   $0x404330,(%rdi)
  401377:	c3                   	retq   
  401378:	eb 06                	jmp    401380 <_ZN9asdfghjklC1Ev>
  40137a:	90                   	nop
  40137b:	90                   	nop
  40137c:	90                   	nop
  40137d:	90                   	nop
  40137e:	90                   	nop
  40137f:	90                   	nop

0000000000401380 <_ZN9asdfghjklC1Ev>:
  401380:	48 c7 07 30 43 40 00 	movq   $0x404330,(%rdi)
  401387:	c3                   	retq   
  401388:	eb 06                	jmp    401390 <_ZN9asdfghjklD2Ev>
  40138a:	90                   	nop
  40138b:	90                   	nop
  40138c:	90                   	nop
  40138d:	90                   	nop
  40138e:	90                   	nop
  40138f:	90                   	nop

0000000000401390 <_ZN9asdfghjklD2Ev>:
  401390:	48 c7 07 30 43 40 00 	movq   $0x404330,(%rdi)
  401397:	c3                   	retq   
  401398:	eb 06                	jmp    4013a0 <_ZN9asdfghjklD1Ev>
  40139a:	90                   	nop
  40139b:	90                   	nop
  40139c:	90                   	nop
  40139d:	90                   	nop
  40139e:	90                   	nop
  40139f:	90                   	nop

00000000004013a0 <_ZN9asdfghjklD1Ev>:
  4013a0:	48 c7 07 30 43 40 00 	movq   $0x404330,(%rdi)
  4013a7:	c3                   	retq   
  4013a8:	eb 06                	jmp    4013b0 <_ZN9asdfghjkl4asdfEv>
  4013aa:	90                   	nop
  4013ab:	90                   	nop
  4013ac:	90                   	nop
  4013ad:	90                   	nop
  4013ae:	90                   	nop
  4013af:	90                   	nop

00000000004013b0 <_ZN9asdfghjkl4asdfEv>:
  4013b0:	f3 c3                	repz retq 
  4013b2:	eb 0c                	jmp    4013c0 <_ZN9asdfghjklD0Ev>
  4013b4:	90                   	nop
  4013b5:	90                   	nop
  4013b6:	90                   	nop
  4013b7:	90                   	nop
  4013b8:	90                   	nop
  4013b9:	90                   	nop
  4013ba:	90                   	nop
  4013bb:	90                   	nop
  4013bc:	90                   	nop
  4013bd:	90                   	nop
  4013be:	90                   	nop
  4013bf:	90                   	nop

00000000004013c0 <_ZN9asdfghjklD0Ev>:
  4013c0:	48 c7 07 30 43 40 00 	movq   $0x404330,(%rdi)
  4013c7:	e9 84 fc ff ff       	jmpq   401050 <_ZdlPv@plt>
  4013cc:	90                   	nop
  4013cd:	90                   	nop
  4013ce:	90                   	nop
  4013cf:	90                   	nop

00000000004013d0 <_GLOBAL__I__ZN6xaxaxa9AsyncSock13SocketManagerC2Ev>:
  4013d0:	48 83 ec 08          	sub    $0x8,%rsp
  4013d4:	bf 98 62 60 00       	mov    $0x606298,%edi
  4013d9:	e8 82 fc ff ff       	callq  401060 <_ZNSt8ios_base4InitC1Ev@plt>
  4013de:	ba 40 61 60 00       	mov    $0x606140,%edx
  4013e3:	be 98 62 60 00       	mov    $0x606298,%esi
  4013e8:	bf d0 10 40 00       	mov    $0x4010d0,%edi
  4013ed:	48 83 c4 08          	add    $0x8,%rsp
  4013f1:	e9 ca fc ff ff       	jmpq   4010c0 <__cxa_atexit@plt>
  4013f6:	eb 08                	jmp    401400 <_ZN6xaxaxa9AsyncSock13SocketManager9EndAcceptEi>
  4013f8:	90                   	nop
  4013f9:	90                   	nop
  4013fa:	90                   	nop
  4013fb:	90                   	nop
  4013fc:	90                   	nop
  4013fd:	90                   	nop
  4013fe:	90                   	nop
  4013ff:	90                   	nop

0000000000401400 <_ZN6xaxaxa9AsyncSock13SocketManager9EndAcceptEi>:
  401400:	89 f7                	mov    %esi,%edi
  401402:	31 d2                	xor    %edx,%edx
  401404:	31 f6                	xor    %esi,%esi
  401406:	e9 55 fe ff ff       	jmpq   401260 <accept@plt>
  40140b:	90                   	nop
  40140c:	eb 02                	jmp    401410 <_ZN6xaxaxa9AsyncSock13SocketManagerC2Ev>
  40140e:	90                   	nop
  40140f:	90                   	nop

0000000000401410 <_ZN6xaxaxa9AsyncSock13SocketManagerC2Ev>:
  401410:	48 8d 47 18          	lea    0x18(%rdi),%rax
  401414:	48 89 5c 24 f0       	mov    %rbx,-0x10(%rsp)
  401419:	48 89 6c 24 f8       	mov    %rbp,-0x8(%rsp)
  40141e:	48 89 fb             	mov    %rdi,%rbx
  401421:	48 83 ec 18          	sub    $0x18,%rsp
  401425:	48 c7 07 a0 43 40 00 	movq   $0x4043a0,(%rdi)
  40142c:	48 c7 47 38 00 00 00 	movq   $0x0,0x38(%rdi)
  401433:	00 
  401434:	c7 47 18 00 00 00 00 	movl   $0x0,0x18(%rdi)
  40143b:	48 c7 47 20 00 00 00 	movq   $0x0,0x20(%rdi)
  401442:	00 
  401443:	48 89 47 28          	mov    %rax,0x28(%rdi)
  401447:	48 89 47 30          	mov    %rax,0x30(%rdi)
  40144b:	bf 20 00 00 00       	mov    $0x20,%edi
  401450:	e8 db fb ff ff       	callq  401030 <epoll_create@plt>
  401455:	85 c0                	test   %eax,%eax
  401457:	89 43 08             	mov    %eax,0x8(%rbx)
  40145a:	78 14                	js     401470 <_ZN6xaxaxa9AsyncSock13SocketManagerC2Ev+0x60>
  40145c:	48 8b 5c 24 08       	mov    0x8(%rsp),%rbx
  401461:	48 8b 6c 24 10       	mov    0x10(%rsp),%rbp
  401466:	48 83 c4 18          	add    $0x18,%rsp
  40146a:	c3                   	retq   
  40146b:	eb 03                	jmp    401470 <_ZN6xaxaxa9AsyncSock13SocketManagerC2Ev+0x60>
  40146d:	90                   	nop
  40146e:	90                   	nop
  40146f:	90                   	nop
  401470:	bf 60 43 40 00       	mov    $0x404360,%edi
  401475:	e8 a6 fd ff ff       	callq  401220 <perror@plt>
  40147a:	eb e0                	jmp    40145c <_ZN6xaxaxa9AsyncSock13SocketManagerC2Ev+0x4c>
  40147c:	48 8b 73 20          	mov    0x20(%rbx),%rsi
  401480:	48 8d 7b 10          	lea    0x10(%rbx),%rdi
  401484:	48 89 c5             	mov    %rax,%rbp
  401487:	e8 e4 13 00 00       	callq  402870 <_ZNSt8_Rb_treeIiSt4pairIKiN6xaxaxa9AsyncSock13SocketManager8taskInfoEESt10_Select1stIS6_ESt4lessIiESaIS6_EE8_M_eraseEPSt13_Rb_tree_nodeIS6_E>
  40148c:	48 89 ef             	mov    %rbp,%rdi
  40148f:	e8 bc fd ff ff       	callq  401250 <_Unwind_Resume@plt>
  401494:	48 89 c7             	mov    %rax,%rdi
  401497:	e8 b4 fd ff ff       	callq  401250 <_Unwind_Resume@plt>
  40149c:	eb 02                	jmp    4014a0 <_ZN6xaxaxa9AsyncSock13SocketManagerD1Ev>
  40149e:	90                   	nop
  40149f:	90                   	nop

00000000004014a0 <_ZN6xaxaxa9AsyncSock13SocketManagerD1Ev>:
  4014a0:	48 89 5c 24 f0       	mov    %rbx,-0x10(%rsp)
  4014a5:	48 89 6c 24 f8       	mov    %rbp,-0x8(%rsp)
  4014aa:	48 89 fb             	mov    %rdi,%rbx
  4014ad:	48 83 ec 18          	sub    $0x18,%rsp
  4014b1:	48 c7 07 a0 43 40 00 	movq   $0x4043a0,(%rdi)
  4014b8:	8b 7f 08             	mov    0x8(%rdi),%edi
  4014bb:	e8 60 fb ff ff       	callq  401020 <close@plt>
  4014c0:	48 8b 73 20          	mov    0x20(%rbx),%rsi
  4014c4:	48 8d 7b 10          	lea    0x10(%rbx),%rdi
  4014c8:	e8 a3 13 00 00       	callq  402870 <_ZNSt8_Rb_treeIiSt4pairIKiN6xaxaxa9AsyncSock13SocketManager8taskInfoEESt10_Select1stIS6_ESt4lessIiESaIS6_EE8_M_eraseEPSt13_Rb_tree_nodeIS6_E>
  4014cd:	48 8b 5c 24 08       	mov    0x8(%rsp),%rbx
  4014d2:	48 8b 6c 24 10       	mov    0x10(%rsp),%rbp
  4014d7:	48 83 c4 18          	add    $0x18,%rsp
  4014db:	c3                   	retq   
  4014dc:	48 8b 73 20          	mov    0x20(%rbx),%rsi
  4014e0:	48 8d 7b 10          	lea    0x10(%rbx),%rdi
  4014e4:	48 89 c5             	mov    %rax,%rbp
  4014e7:	e8 84 13 00 00       	callq  402870 <_ZNSt8_Rb_treeIiSt4pairIKiN6xaxaxa9AsyncSock13SocketManager8taskInfoEESt10_Select1stIS6_ESt4lessIiESaIS6_EE8_M_eraseEPSt13_Rb_tree_nodeIS6_E>
  4014ec:	48 89 ef             	mov    %rbp,%rdi
  4014ef:	e8 5c fd ff ff       	callq  401250 <_Unwind_Resume@plt>
  4014f4:	48 89 c7             	mov    %rax,%rdi
  4014f7:	e8 54 fd ff ff       	callq  401250 <_Unwind_Resume@plt>
  4014fc:	eb f6                	jmp    4014f4 <_ZN6xaxaxa9AsyncSock13SocketManagerD1Ev+0x54>
  4014fe:	66 90                	xchg   %ax,%ax

0000000000401500 <_ZN6xaxaxa9AsyncSock13SocketManagerD2Ev>:
  401500:	48 89 5c 24 f0       	mov    %rbx,-0x10(%rsp)
  401505:	48 89 6c 24 f8       	mov    %rbp,-0x8(%rsp)
  40150a:	48 89 fb             	mov    %rdi,%rbx
  40150d:	48 83 ec 18          	sub    $0x18,%rsp
  401511:	48 c7 07 a0 43 40 00 	movq   $0x4043a0,(%rdi)
  401518:	8b 7f 08             	mov    0x8(%rdi),%edi
  40151b:	e8 00 fb ff ff       	callq  401020 <close@plt>
  401520:	48 8b 73 20          	mov    0x20(%rbx),%rsi
  401524:	48 8d 7b 10          	lea    0x10(%rbx),%rdi
  401528:	e8 43 13 00 00       	callq  402870 <_ZNSt8_Rb_treeIiSt4pairIKiN6xaxaxa9AsyncSock13SocketManager8taskInfoEESt10_Select1stIS6_ESt4lessIiESaIS6_EE8_M_eraseEPSt13_Rb_tree_nodeIS6_E>
  40152d:	48 8b 5c 24 08       	mov    0x8(%rsp),%rbx
  401532:	48 8b 6c 24 10       	mov    0x10(%rsp),%rbp
  401537:	48 83 c4 18          	add    $0x18,%rsp
  40153b:	c3                   	retq   
  40153c:	48 8b 73 20          	mov    0x20(%rbx),%rsi
  401540:	48 8d 7b 10          	lea    0x10(%rbx),%rdi
  401544:	48 89 c5             	mov    %rax,%rbp
  401547:	e8 24 13 00 00       	callq  402870 <_ZNSt8_Rb_treeIiSt4pairIKiN6xaxaxa9AsyncSock13SocketManager8taskInfoEESt10_Select1stIS6_ESt4lessIiESaIS6_EE8_M_eraseEPSt13_Rb_tree_nodeIS6_E>
  40154c:	48 89 ef             	mov    %rbp,%rdi
  40154f:	e8 fc fc ff ff       	callq  401250 <_Unwind_Resume@plt>
  401554:	48 89 c7             	mov    %rax,%rdi
  401557:	e8 f4 fc ff ff       	callq  401250 <_Unwind_Resume@plt>
  40155c:	eb f6                	jmp    401554 <_ZN6xaxaxa9AsyncSock13SocketManagerD2Ev+0x54>
  40155e:	66 90                	xchg   %ax,%ax

0000000000401560 <_ZN6xaxaxa9AsyncSock13SocketManagerC1Ev>:
  401560:	48 8d 47 18          	lea    0x18(%rdi),%rax
  401564:	48 89 5c 24 f0       	mov    %rbx,-0x10(%rsp)
  401569:	48 89 6c 24 f8       	mov    %rbp,-0x8(%rsp)
  40156e:	48 89 fb             	mov    %rdi,%rbx
  401571:	48 83 ec 18          	sub    $0x18,%rsp
  401575:	48 c7 07 a0 43 40 00 	movq   $0x4043a0,(%rdi)
  40157c:	48 c7 47 38 00 00 00 	movq   $0x0,0x38(%rdi)
  401583:	00 
  401584:	c7 47 18 00 00 00 00 	movl   $0x0,0x18(%rdi)
  40158b:	48 c7 47 20 00 00 00 	movq   $0x0,0x20(%rdi)
  401592:	00 
  401593:	48 89 47 28          	mov    %rax,0x28(%rdi)
  401597:	48 89 47 30          	mov    %rax,0x30(%rdi)
  40159b:	bf 20 00 00 00       	mov    $0x20,%edi
  4015a0:	e8 8b fa ff ff       	callq  401030 <epoll_create@plt>
  4015a5:	85 c0                	test   %eax,%eax
  4015a7:	89 43 08             	mov    %eax,0x8(%rbx)
  4015aa:	78 14                	js     4015c0 <_ZN6xaxaxa9AsyncSock13SocketManagerC1Ev+0x60>
  4015ac:	48 8b 5c 24 08       	mov    0x8(%rsp),%rbx
  4015b1:	48 8b 6c 24 10       	mov    0x10(%rsp),%rbp
  4015b6:	48 83 c4 18          	add    $0x18,%rsp
  4015ba:	c3                   	retq   
  4015bb:	eb 03                	jmp    4015c0 <_ZN6xaxaxa9AsyncSock13SocketManagerC1Ev+0x60>
  4015bd:	90                   	nop
  4015be:	90                   	nop
  4015bf:	90                   	nop
  4015c0:	bf 60 43 40 00       	mov    $0x404360,%edi
  4015c5:	e8 56 fc ff ff       	callq  401220 <perror@plt>
  4015ca:	eb e0                	jmp    4015ac <_ZN6xaxaxa9AsyncSock13SocketManagerC1Ev+0x4c>
  4015cc:	48 8b 73 20          	mov    0x20(%rbx),%rsi
  4015d0:	48 8d 7b 10          	lea    0x10(%rbx),%rdi
  4015d4:	48 89 c5             	mov    %rax,%rbp
  4015d7:	e8 94 12 00 00       	callq  402870 <_ZNSt8_Rb_treeIiSt4pairIKiN6xaxaxa9AsyncSock13SocketManager8taskInfoEESt10_Select1stIS6_ESt4lessIiESaIS6_EE8_M_eraseEPSt13_Rb_tree_nodeIS6_E>
  4015dc:	48 89 ef             	mov    %rbp,%rdi
  4015df:	e8 6c fc ff ff       	callq  401250 <_Unwind_Resume@plt>
  4015e4:	48 89 c7             	mov    %rax,%rdi
  4015e7:	e8 64 fc ff ff       	callq  401250 <_Unwind_Resume@plt>
  4015ec:	eb 02                	jmp    4015f0 <_ZN6xaxaxa9AsyncSock13SocketManager9EventLoopEv>
  4015ee:	90                   	nop
  4015ef:	90                   	nop

00000000004015f0 <_ZN6xaxaxa9AsyncSock13SocketManager9EventLoopEv>:
  4015f0:	41 57                	push   %r15
  4015f2:	41 56                	push   %r14
  4015f4:	41 55                	push   %r13
  4015f6:	41 54                	push   %r12
  4015f8:	55                   	push   %rbp
  4015f9:	53                   	push   %rbx
  4015fa:	48 89 fb             	mov    %rdi,%rbx
  4015fd:	bf 80 01 00 00       	mov    $0x180,%edi
  401602:	48 81 ec 68 01 00 00 	sub    $0x168,%rsp
  401609:	e8 32 fa ff ff       	callq  401040 <_Znam@plt>
  40160e:	49 89 c6             	mov    %rax,%r14
  401611:	48 8d 43 18          	lea    0x18(%rbx),%rax
  401615:	48 89 44 24 20       	mov    %rax,0x20(%rsp)
  40161a:	48 8d 43 10          	lea    0x10(%rbx),%rax
  40161e:	48 89 44 24 28       	mov    %rax,0x28(%rsp)
  401623:	48 8d 84 24 90 00 00 	lea    0x90(%rsp),%rax
  40162a:	00 
  40162b:	48 89 44 24 08       	mov    %rax,0x8(%rsp)
  401630:	8b 7b 08             	mov    0x8(%rbx),%edi
  401633:	b9 ff ff ff ff       	mov    $0xffffffff,%ecx
  401638:	ba 20 00 00 00       	mov    $0x20,%edx
  40163d:	4c 89 f6             	mov    %r14,%rsi
  401640:	e8 7b fb ff ff       	callq  4011c0 <epoll_wait@plt>
  401645:	85 c0                	test   %eax,%eax
  401647:	41 89 c4             	mov    %eax,%r12d
  40164a:	7e e4                	jle    401630 <_ZN6xaxaxa9AsyncSock13SocketManager9EventLoopEv+0x40>
  40164c:	4d 89 f5             	mov    %r14,%r13
  40164f:	c7 44 24 1c 00 00 00 	movl   $0x0,0x1c(%rsp)
  401656:	00 
  401657:	49 8b 45 00          	mov    0x0(%r13),%rax
  40165b:	48 8b 73 20          	mov    0x20(%rbx),%rsi
  40165f:	48 89 84 24 50 01 00 	mov    %rax,0x150(%rsp)
  401666:	00 
  401667:	41 8b 45 08          	mov    0x8(%r13),%eax
  40166b:	48 85 f6             	test   %rsi,%rsi
  40166e:	44 8b bc 24 50 01 00 	mov    0x150(%rsp),%r15d
  401675:	00 
  401676:	8b ac 24 54 01 00 00 	mov    0x154(%rsp),%ebp
  40167d:	89 84 24 58 01 00 00 	mov    %eax,0x158(%rsp)
  401684:	0f 84 e3 02 00 00    	je     40196d <_ZN6xaxaxa9AsyncSock13SocketManager9EventLoopEv+0x37d>
  40168a:	48 8b 54 24 20       	mov    0x20(%rsp),%rdx
  40168f:	eb 16                	jmp    4016a7 <_ZN6xaxaxa9AsyncSock13SocketManager9EventLoopEv+0xb7>
  401691:	eb 05                	jmp    401698 <_ZN6xaxaxa9AsyncSock13SocketManager9EventLoopEv+0xa8>
  401693:	90                   	nop
  401694:	90                   	nop
  401695:	90                   	nop
  401696:	90                   	nop
  401697:	90                   	nop
  401698:	48 8b 46 10          	mov    0x10(%rsi),%rax
  40169c:	48 85 c0             	test   %rax,%rax
  40169f:	74 17                	je     4016b8 <_ZN6xaxaxa9AsyncSock13SocketManager9EventLoopEv+0xc8>
  4016a1:	48 89 f2             	mov    %rsi,%rdx
  4016a4:	48 89 c6             	mov    %rax,%rsi
  4016a7:	3b 6e 20             	cmp    0x20(%rsi),%ebp
  4016aa:	7e ec                	jle    401698 <_ZN6xaxaxa9AsyncSock13SocketManager9EventLoopEv+0xa8>
  4016ac:	48 8b 46 18          	mov    0x18(%rsi),%rax
  4016b0:	48 89 d6             	mov    %rdx,%rsi
  4016b3:	48 85 c0             	test   %rax,%rax
  4016b6:	75 e9                	jne    4016a1 <_ZN6xaxaxa9AsyncSock13SocketManager9EventLoopEv+0xb1>
  4016b8:	48 39 74 24 20       	cmp    %rsi,0x20(%rsp)
  4016bd:	48 89 f0             	mov    %rsi,%rax
  4016c0:	74 09                	je     4016cb <_ZN6xaxaxa9AsyncSock13SocketManager9EventLoopEv+0xdb>
  4016c2:	3b 6e 20             	cmp    0x20(%rsi),%ebp
  4016c5:	0f 8d 20 01 00 00    	jge    4017eb <_ZN6xaxaxa9AsyncSock13SocketManager9EventLoopEv+0x1fb>
  4016cb:	48 8b 7c 24 08       	mov    0x8(%rsp),%rdi
  4016d0:	31 c0                	xor    %eax,%eax
  4016d2:	b9 0a 00 00 00       	mov    $0xa,%ecx
  4016d7:	48 8d 54 24 30       	lea    0x30(%rsp),%rdx
  4016dc:	89 6c 24 30          	mov    %ebp,0x30(%rsp)
  4016e0:	48 c7 44 24 38 00 00 	movq   $0x0,0x38(%rsp)
  4016e7:	00 00 
  4016e9:	48 c7 44 24 40 00 00 	movq   $0x0,0x40(%rsp)
  4016f0:	00 00 
  4016f2:	48 c7 44 24 48 00 00 	movq   $0x0,0x48(%rsp)
  4016f9:	00 00 
  4016fb:	f3 48 ab             	rep stos %rax,%es:(%rdi)
  4016fe:	48 c7 44 24 50 00 00 	movq   $0x0,0x50(%rsp)
  401705:	00 00 
  401707:	48 c7 44 24 58 00 00 	movq   $0x0,0x58(%rsp)
  40170e:	00 00 
  401710:	48 c7 44 24 60 00 00 	movq   $0x0,0x60(%rsp)
  401717:	00 00 
  401719:	48 c7 44 24 68 00 00 	movq   $0x0,0x68(%rsp)
  401720:	00 00 
  401722:	48 c7 44 24 70 00 00 	movq   $0x0,0x70(%rsp)
  401729:	00 00 
  40172b:	48 c7 44 24 78 00 00 	movq   $0x0,0x78(%rsp)
  401732:	00 00 
  401734:	48 c7 84 24 80 00 00 	movq   $0x0,0x80(%rsp)
  40173b:	00 00 00 00 00 
  401740:	c6 07 00             	movb   $0x0,(%rdi)
  401743:	0f b6 84 24 e0 00 00 	movzbl 0xe0(%rsp),%eax
  40174a:	00 
  40174b:	48 8b 7c 24 28       	mov    0x28(%rsp),%rdi
  401750:	88 84 24 88 00 00 00 	mov    %al,0x88(%rsp)
  401757:	e8 e4 15 00 00       	callq  402d40 <_ZNSt8_Rb_treeIiSt4pairIKiN6xaxaxa9AsyncSock13SocketManager8taskInfoEESt10_Select1stIS6_ESt4lessIiESaIS6_EE17_M_insert_unique_ESt23_Rb_tree_const_iteratorIS6_ERKS6_>
  40175c:	80 bc 24 84 00 00 00 	cmpb   $0x0,0x84(%rsp)
  401763:	00 
  401764:	74 19                	je     40177f <_ZN6xaxaxa9AsyncSock13SocketManager9EventLoopEv+0x18f>
  401766:	48 8b 7c 24 78       	mov    0x78(%rsp),%rdi
  40176b:	48 85 ff             	test   %rdi,%rdi
  40176e:	74 0f                	je     40177f <_ZN6xaxaxa9AsyncSock13SocketManager9EventLoopEv+0x18f>
  401770:	48 89 44 24 10       	mov    %rax,0x10(%rsp)
  401775:	e8 76 f9 ff ff       	callq  4010f0 <free@plt>
  40177a:	48 8b 44 24 10       	mov    0x10(%rsp),%rax
  40177f:	80 7c 24 74 00       	cmpb   $0x0,0x74(%rsp)
  401784:	74 19                	je     40179f <_ZN6xaxaxa9AsyncSock13SocketManager9EventLoopEv+0x1af>
  401786:	48 8b 7c 24 68       	mov    0x68(%rsp),%rdi
  40178b:	48 85 ff             	test   %rdi,%rdi
  40178e:	74 0f                	je     40179f <_ZN6xaxaxa9AsyncSock13SocketManager9EventLoopEv+0x1af>
  401790:	48 89 44 24 10       	mov    %rax,0x10(%rsp)
  401795:	e8 56 f9 ff ff       	callq  4010f0 <free@plt>
  40179a:	48 8b 44 24 10       	mov    0x10(%rsp),%rax
  40179f:	80 bc 24 dc 00 00 00 	cmpb   $0x0,0xdc(%rsp)
  4017a6:	00 
  4017a7:	74 1c                	je     4017c5 <_ZN6xaxaxa9AsyncSock13SocketManager9EventLoopEv+0x1d5>
  4017a9:	48 8b bc 24 d0 00 00 	mov    0xd0(%rsp),%rdi
  4017b0:	00 
  4017b1:	48 85 ff             	test   %rdi,%rdi
  4017b4:	74 0f                	je     4017c5 <_ZN6xaxaxa9AsyncSock13SocketManager9EventLoopEv+0x1d5>
  4017b6:	48 89 44 24 10       	mov    %rax,0x10(%rsp)
  4017bb:	e8 30 f9 ff ff       	callq  4010f0 <free@plt>
  4017c0:	48 8b 44 24 10       	mov    0x10(%rsp),%rax
  4017c5:	80 bc 24 cc 00 00 00 	cmpb   $0x0,0xcc(%rsp)
  4017cc:	00 
  4017cd:	74 1c                	je     4017eb <_ZN6xaxaxa9AsyncSock13SocketManager9EventLoopEv+0x1fb>
  4017cf:	48 8b bc 24 c0 00 00 	mov    0xc0(%rsp),%rdi
  4017d6:	00 
  4017d7:	48 85 ff             	test   %rdi,%rdi
  4017da:	74 0f                	je     4017eb <_ZN6xaxaxa9AsyncSock13SocketManager9EventLoopEv+0x1fb>
  4017dc:	48 89 44 24 10       	mov    %rax,0x10(%rsp)
  4017e1:	e8 0a f9 ff ff       	callq  4010f0 <free@plt>
  4017e6:	48 8b 44 24 10       	mov    0x10(%rsp),%rax
  4017eb:	48 8b 50 28          	mov    0x28(%rax),%rdx
  4017ef:	48 89 94 24 f0 00 00 	mov    %rdx,0xf0(%rsp)
  4017f6:	00 
  4017f7:	48 8b 50 30          	mov    0x30(%rax),%rdx
  4017fb:	48 89 94 24 f8 00 00 	mov    %rdx,0xf8(%rsp)
  401802:	00 
  401803:	48 8b 78 38          	mov    0x38(%rax),%rdi
  401807:	48 89 bc 24 00 01 00 	mov    %rdi,0x100(%rsp)
  40180e:	00 
  40180f:	48 8b 48 40          	mov    0x40(%rax),%rcx
  401813:	48 89 8c 24 08 01 00 	mov    %rcx,0x108(%rsp)
  40181a:	00 
  40181b:	48 8b 48 48          	mov    0x48(%rax),%rcx
  40181f:	48 89 8c 24 10 01 00 	mov    %rcx,0x110(%rsp)
  401826:	00 
  401827:	48 8b 48 50          	mov    0x50(%rax),%rcx
  40182b:	48 89 8c 24 18 01 00 	mov    %rcx,0x118(%rsp)
  401832:	00 
  401833:	48 8b 48 58          	mov    0x58(%rax),%rcx
  401837:	48 89 8c 24 20 01 00 	mov    %rcx,0x120(%rsp)
  40183e:	00 
  40183f:	48 8b 48 60          	mov    0x60(%rax),%rcx
  401843:	48 89 8c 24 28 01 00 	mov    %rcx,0x128(%rsp)
  40184a:	00 
  40184b:	48 8b 48 68          	mov    0x68(%rax),%rcx
  40184f:	48 89 8c 24 30 01 00 	mov    %rcx,0x130(%rsp)
  401856:	00 
  401857:	48 8b 40 70          	mov    0x70(%rax),%rax
  40185b:	c6 84 24 40 01 00 00 	movb   $0x1,0x140(%rsp)
  401862:	01 
  401863:	48 89 84 24 38 01 00 	mov    %rax,0x138(%rsp)
  40186a:	00 
  40186b:	44 89 f8             	mov    %r15d,%eax
  40186e:	f7 d0                	not    %eax
  401870:	23 84 24 18 01 00 00 	and    0x118(%rsp),%eax
  401877:	41 f6 c7 01          	test   $0x1,%r15b
  40187b:	89 84 24 1c 01 00 00 	mov    %eax,0x11c(%rsp)
  401882:	0f 85 d8 00 00 00    	jne    401960 <_ZN6xaxaxa9AsyncSock13SocketManager9EventLoopEv+0x370>
  401888:	41 83 e7 04          	and    $0x4,%r15d
  40188c:	0f 85 ae 00 00 00    	jne    401940 <_ZN6xaxaxa9AsyncSock13SocketManager9EventLoopEv+0x350>
  401892:	8b 84 24 1c 01 00 00 	mov    0x11c(%rsp),%eax
  401899:	3b 84 24 18 01 00 00 	cmp    0x118(%rsp),%eax
  4018a0:	c6 84 24 40 01 00 00 	movb   $0x0,0x140(%rsp)
  4018a7:	00 
  4018a8:	74 3d                	je     4018e7 <_ZN6xaxaxa9AsyncSock13SocketManager9EventLoopEv+0x2f7>
  4018aa:	bf 0c 00 00 00       	mov    $0xc,%edi
  4018af:	89 84 24 18 01 00 00 	mov    %eax,0x118(%rsp)
  4018b6:	e8 85 f9 ff ff       	callq  401240 <_Znwm@plt>
  4018bb:	48 c7 00 00 00 00 00 	movq   $0x0,(%rax)
  4018c2:	c7 40 08 00 00 00 00 	movl   $0x0,0x8(%rax)
  4018c9:	48 89 c1             	mov    %rax,%rcx
  4018cc:	89 68 04             	mov    %ebp,0x4(%rax)
  4018cf:	8b 94 24 18 01 00 00 	mov    0x118(%rsp),%edx
  4018d6:	be 03 00 00 00       	mov    $0x3,%esi
  4018db:	89 10                	mov    %edx,(%rax)
  4018dd:	8b 7b 08             	mov    0x8(%rbx),%edi
  4018e0:	89 ea                	mov    %ebp,%edx
  4018e2:	e8 49 f8 ff ff       	callq  401130 <epoll_ctl@plt>
  4018e7:	80 bc 24 3c 01 00 00 	cmpb   $0x0,0x13c(%rsp)
  4018ee:	00 
  4018ef:	74 12                	je     401903 <_ZN6xaxaxa9AsyncSock13SocketManager9EventLoopEv+0x313>
  4018f1:	48 8b bc 24 30 01 00 	mov    0x130(%rsp),%rdi
  4018f8:	00 
  4018f9:	48 85 ff             	test   %rdi,%rdi
  4018fc:	74 05                	je     401903 <_ZN6xaxaxa9AsyncSock13SocketManager9EventLoopEv+0x313>
  4018fe:	e8 ed f7 ff ff       	callq  4010f0 <free@plt>
  401903:	80 bc 24 2c 01 00 00 	cmpb   $0x0,0x12c(%rsp)
  40190a:	00 
  40190b:	74 12                	je     40191f <_ZN6xaxaxa9AsyncSock13SocketManager9EventLoopEv+0x32f>
  40190d:	48 8b bc 24 20 01 00 	mov    0x120(%rsp),%rdi
  401914:	00 
  401915:	48 85 ff             	test   %rdi,%rdi
  401918:	74 05                	je     40191f <_ZN6xaxaxa9AsyncSock13SocketManager9EventLoopEv+0x32f>
  40191a:	e8 d1 f7 ff ff       	callq  4010f0 <free@plt>
  40191f:	83 44 24 1c 01       	addl   $0x1,0x1c(%rsp)
  401924:	49 83 c5 0c          	add    $0xc,%r13
  401928:	44 3b 64 24 1c       	cmp    0x1c(%rsp),%r12d
  40192d:	0f 8e fd fc ff ff    	jle    401630 <_ZN6xaxaxa9AsyncSock13SocketManager9EventLoopEv+0x40>
  401933:	e9 1f fd ff ff       	jmpq   401657 <_ZN6xaxaxa9AsyncSock13SocketManager9EventLoopEv+0x67>
  401938:	eb 06                	jmp    401940 <_ZN6xaxaxa9AsyncSock13SocketManager9EventLoopEv+0x350>
  40193a:	90                   	nop
  40193b:	90                   	nop
  40193c:	90                   	nop
  40193d:	90                   	nop
  40193e:	90                   	nop
  40193f:	90                   	nop
  401940:	89 ee                	mov    %ebp,%esi
  401942:	48 8b bc 24 10 01 00 	mov    0x110(%rsp),%rdi
  401949:	00 
  40194a:	ff 94 24 08 01 00 00 	callq  *0x108(%rsp)
  401951:	e9 3c ff ff ff       	jmpq   401892 <_ZN6xaxaxa9AsyncSock13SocketManager9EventLoopEv+0x2a2>
  401956:	eb 08                	jmp    401960 <_ZN6xaxaxa9AsyncSock13SocketManager9EventLoopEv+0x370>
  401958:	90                   	nop
  401959:	90                   	nop
  40195a:	90                   	nop
  40195b:	90                   	nop
  40195c:	90                   	nop
  40195d:	90                   	nop
  40195e:	90                   	nop
  40195f:	90                   	nop
  401960:	89 ee                	mov    %ebp,%esi
  401962:	ff d2                	callq  *%rdx
  401964:	eb 02                	jmp    401968 <_ZN6xaxaxa9AsyncSock13SocketManager9EventLoopEv+0x378>
  401966:	90                   	nop
  401967:	90                   	nop
  401968:	e9 1b ff ff ff       	jmpq   401888 <_ZN6xaxaxa9AsyncSock13SocketManager9EventLoopEv+0x298>
  40196d:	48 8b 74 24 20       	mov    0x20(%rsp),%rsi
  401972:	e9 41 fd ff ff       	jmpq   4016b8 <_ZN6xaxaxa9AsyncSock13SocketManager9EventLoopEv+0xc8>
  401977:	48 8d bc 24 f0 00 00 	lea    0xf0(%rsp),%rdi
  40197e:	00 
  40197f:	48 89 c3             	mov    %rax,%rbx
  401982:	e8 89 0d 00 00       	callq  402710 <_ZN6xaxaxa9AsyncSock13SocketManager8taskInfoD1Ev>
  401987:	48 89 df             	mov    %rbx,%rdi
  40198a:	e8 c1 f8 ff ff       	callq  401250 <_Unwind_Resume@plt>
  40198f:	48 8d 7c 24 30       	lea    0x30(%rsp),%rdi
  401994:	48 89 c3             	mov    %rax,%rbx
  401997:	48 83 c7 08          	add    $0x8,%rdi
  40199b:	e8 70 0d 00 00       	callq  402710 <_ZN6xaxaxa9AsyncSock13SocketManager8taskInfoD1Ev>
  4019a0:	48 8d bc 24 90 00 00 	lea    0x90(%rsp),%rdi
  4019a7:	00 
  4019a8:	e8 63 0d 00 00       	callq  402710 <_ZN6xaxaxa9AsyncSock13SocketManager8taskInfoD1Ev>
  4019ad:	48 89 df             	mov    %rbx,%rdi
  4019b0:	e8 9b f8 ff ff       	callq  401250 <_Unwind_Resume@plt>
  4019b5:	90                   	nop
  4019b6:	eb 08                	jmp    4019c0 <_ZN6xaxaxa9AsyncSock13SocketManager7EndSendEi>
  4019b8:	90                   	nop
  4019b9:	90                   	nop
  4019ba:	90                   	nop
  4019bb:	90                   	nop
  4019bc:	90                   	nop
  4019bd:	90                   	nop
  4019be:	90                   	nop
  4019bf:	90                   	nop

00000000004019c0 <_ZN6xaxaxa9AsyncSock13SocketManager7EndSendEi>:
  4019c0:	41 54                	push   %r12
  4019c2:	48 89 fa             	mov    %rdi,%rdx
  4019c5:	48 83 c7 18          	add    $0x18,%rdi
  4019c9:	55                   	push   %rbp
  4019ca:	53                   	push   %rbx
  4019cb:	89 f3                	mov    %esi,%ebx
  4019cd:	48 89 fe             	mov    %rdi,%rsi
  4019d0:	48 81 ec 20 01 00 00 	sub    $0x120,%rsp
  4019d7:	48 8b 42 20          	mov    0x20(%rdx),%rax
  4019db:	48 85 c0             	test   %rax,%rax
  4019de:	75 17                	jne    4019f7 <_ZN6xaxaxa9AsyncSock13SocketManager7EndSendEi+0x37>
  4019e0:	eb 23                	jmp    401a05 <_ZN6xaxaxa9AsyncSock13SocketManager7EndSendEi+0x45>
  4019e2:	eb 04                	jmp    4019e8 <_ZN6xaxaxa9AsyncSock13SocketManager7EndSendEi+0x28>
  4019e4:	90                   	nop
  4019e5:	90                   	nop
  4019e6:	90                   	nop
  4019e7:	90                   	nop
  4019e8:	48 8b 48 10          	mov    0x10(%rax),%rcx
  4019ec:	48 89 c6             	mov    %rax,%rsi
  4019ef:	48 85 c9             	test   %rcx,%rcx
  4019f2:	74 11                	je     401a05 <_ZN6xaxaxa9AsyncSock13SocketManager7EndSendEi+0x45>
  4019f4:	48 89 c8             	mov    %rcx,%rax
  4019f7:	39 58 20             	cmp    %ebx,0x20(%rax)
  4019fa:	7d ec                	jge    4019e8 <_ZN6xaxaxa9AsyncSock13SocketManager7EndSendEi+0x28>
  4019fc:	48 8b 48 18          	mov    0x18(%rax),%rcx
  401a00:	48 85 c9             	test   %rcx,%rcx
  401a03:	75 ef                	jne    4019f4 <_ZN6xaxaxa9AsyncSock13SocketManager7EndSendEi+0x34>
  401a05:	48 39 f7             	cmp    %rsi,%rdi
  401a08:	48 89 f5             	mov    %rsi,%rbp
  401a0b:	74 09                	je     401a16 <_ZN6xaxaxa9AsyncSock13SocketManager7EndSendEi+0x56>
  401a0d:	39 5e 20             	cmp    %ebx,0x20(%rsi)
  401a10:	0f 8e ed 00 00 00    	jle    401b03 <_ZN6xaxaxa9AsyncSock13SocketManager7EndSendEi+0x143>
  401a16:	4c 8d 64 24 60       	lea    0x60(%rsp),%r12
  401a1b:	b9 0a 00 00 00       	mov    $0xa,%ecx
  401a20:	31 c0                	xor    %eax,%eax
  401a22:	89 1c 24             	mov    %ebx,(%rsp)
  401a25:	48 c7 44 24 08 00 00 	movq   $0x0,0x8(%rsp)
  401a2c:	00 00 
  401a2e:	48 89 e5             	mov    %rsp,%rbp
  401a31:	4c 89 e7             	mov    %r12,%rdi
  401a34:	48 c7 44 24 10 00 00 	movq   $0x0,0x10(%rsp)
  401a3b:	00 00 
  401a3d:	48 c7 44 24 18 00 00 	movq   $0x0,0x18(%rsp)
  401a44:	00 00 
  401a46:	f3 48 ab             	rep stos %rax,%es:(%rdi)
  401a49:	48 c7 44 24 20 00 00 	movq   $0x0,0x20(%rsp)
  401a50:	00 00 
  401a52:	48 c7 44 24 28 00 00 	movq   $0x0,0x28(%rsp)
  401a59:	00 00 
  401a5b:	48 c7 44 24 30 00 00 	movq   $0x0,0x30(%rsp)
  401a62:	00 00 
  401a64:	48 c7 44 24 38 00 00 	movq   $0x0,0x38(%rsp)
  401a6b:	00 00 
  401a6d:	48 c7 44 24 40 00 00 	movq   $0x0,0x40(%rsp)
  401a74:	00 00 
  401a76:	48 c7 44 24 48 00 00 	movq   $0x0,0x48(%rsp)
  401a7d:	00 00 
  401a7f:	48 c7 44 24 50 00 00 	movq   $0x0,0x50(%rsp)
  401a86:	00 00 
  401a88:	c6 44 24 58 00       	movb   $0x0,0x58(%rsp)
  401a8d:	c6 07 00             	movb   $0x0,(%rdi)
  401a90:	48 8d 7a 10          	lea    0x10(%rdx),%rdi
  401a94:	48 89 e2             	mov    %rsp,%rdx
  401a97:	e8 a4 12 00 00       	callq  402d40 <_ZNSt8_Rb_treeIiSt4pairIKiN6xaxaxa9AsyncSock13SocketManager8taskInfoEESt10_Select1stIS6_ESt4lessIiESaIS6_EE17_M_insert_unique_ESt23_Rb_tree_const_iteratorIS6_ERKS6_>
  401a9c:	80 7c 24 54 00       	cmpb   $0x0,0x54(%rsp)
  401aa1:	48 89 c5             	mov    %rax,%rbp
  401aa4:	74 0f                	je     401ab5 <_ZN6xaxaxa9AsyncSock13SocketManager7EndSendEi+0xf5>
  401aa6:	48 8b 7c 24 48       	mov    0x48(%rsp),%rdi
  401aab:	48 85 ff             	test   %rdi,%rdi
  401aae:	74 05                	je     401ab5 <_ZN6xaxaxa9AsyncSock13SocketManager7EndSendEi+0xf5>
  401ab0:	e8 3b f6 ff ff       	callq  4010f0 <free@plt>
  401ab5:	80 7c 24 44 00       	cmpb   $0x0,0x44(%rsp)
  401aba:	74 0f                	je     401acb <_ZN6xaxaxa9AsyncSock13SocketManager7EndSendEi+0x10b>
  401abc:	48 8b 7c 24 38       	mov    0x38(%rsp),%rdi
  401ac1:	48 85 ff             	test   %rdi,%rdi
  401ac4:	74 05                	je     401acb <_ZN6xaxaxa9AsyncSock13SocketManager7EndSendEi+0x10b>
  401ac6:	e8 25 f6 ff ff       	callq  4010f0 <free@plt>
  401acb:	80 bc 24 ac 00 00 00 	cmpb   $0x0,0xac(%rsp)
  401ad2:	00 
  401ad3:	74 12                	je     401ae7 <_ZN6xaxaxa9AsyncSock13SocketManager7EndSendEi+0x127>
  401ad5:	48 8b bc 24 a0 00 00 	mov    0xa0(%rsp),%rdi
  401adc:	00 
  401add:	48 85 ff             	test   %rdi,%rdi
  401ae0:	74 05                	je     401ae7 <_ZN6xaxaxa9AsyncSock13SocketManager7EndSendEi+0x127>
  401ae2:	e8 09 f6 ff ff       	callq  4010f0 <free@plt>
  401ae7:	80 bc 24 9c 00 00 00 	cmpb   $0x0,0x9c(%rsp)
  401aee:	00 
  401aef:	74 12                	je     401b03 <_ZN6xaxaxa9AsyncSock13SocketManager7EndSendEi+0x143>
  401af1:	48 8b bc 24 90 00 00 	mov    0x90(%rsp),%rdi
  401af8:	00 
  401af9:	48 85 ff             	test   %rdi,%rdi
  401afc:	74 05                	je     401b03 <_ZN6xaxaxa9AsyncSock13SocketManager7EndSendEi+0x143>
  401afe:	e8 ed f5 ff ff       	callq  4010f0 <free@plt>
  401b03:	48 8b 45 28          	mov    0x28(%rbp),%rax
  401b07:	31 c9                	xor    %ecx,%ecx
  401b09:	89 df                	mov    %ebx,%edi
  401b0b:	48 89 84 24 c0 00 00 	mov    %rax,0xc0(%rsp)
  401b12:	00 
  401b13:	48 8b 45 30          	mov    0x30(%rbp),%rax
  401b17:	48 89 84 24 c8 00 00 	mov    %rax,0xc8(%rsp)
  401b1e:	00 
  401b1f:	48 8b 45 38          	mov    0x38(%rbp),%rax
  401b23:	48 89 84 24 d0 00 00 	mov    %rax,0xd0(%rsp)
  401b2a:	00 
  401b2b:	48 8b 45 40          	mov    0x40(%rbp),%rax
  401b2f:	48 89 84 24 d8 00 00 	mov    %rax,0xd8(%rsp)
  401b36:	00 
  401b37:	48 8b 45 48          	mov    0x48(%rbp),%rax
  401b3b:	48 89 84 24 e0 00 00 	mov    %rax,0xe0(%rsp)
  401b42:	00 
  401b43:	48 8b 45 50          	mov    0x50(%rbp),%rax
  401b47:	48 89 84 24 e8 00 00 	mov    %rax,0xe8(%rsp)
  401b4e:	00 
  401b4f:	48 8b 45 58          	mov    0x58(%rbp),%rax
  401b53:	48 89 84 24 f0 00 00 	mov    %rax,0xf0(%rsp)
  401b5a:	00 
  401b5b:	48 8b 45 60          	mov    0x60(%rbp),%rax
  401b5f:	48 89 84 24 f8 00 00 	mov    %rax,0xf8(%rsp)
  401b66:	00 
  401b67:	48 8b 75 68          	mov    0x68(%rbp),%rsi
  401b6b:	48 89 b4 24 00 01 00 	mov    %rsi,0x100(%rsp)
  401b72:	00 
  401b73:	48 8b 45 70          	mov    0x70(%rbp),%rax
  401b77:	48 89 84 24 08 01 00 	mov    %rax,0x108(%rsp)
  401b7e:	00 
  401b7f:	0f b6 45 78          	movzbl 0x78(%rbp),%eax
  401b83:	48 63 94 24 08 01 00 	movslq 0x108(%rsp),%rdx
  401b8a:	00 
  401b8b:	88 84 24 10 01 00 00 	mov    %al,0x110(%rsp)
  401b92:	e8 19 f6 ff ff       	callq  4011b0 <send@plt>
  401b97:	80 bc 24 0c 01 00 00 	cmpb   $0x0,0x10c(%rsp)
  401b9e:	00 
  401b9f:	48 89 c3             	mov    %rax,%rbx
  401ba2:	74 12                	je     401bb6 <_ZN6xaxaxa9AsyncSock13SocketManager7EndSendEi+0x1f6>
  401ba4:	48 8b bc 24 00 01 00 	mov    0x100(%rsp),%rdi
  401bab:	00 
  401bac:	48 85 ff             	test   %rdi,%rdi
  401baf:	74 05                	je     401bb6 <_ZN6xaxaxa9AsyncSock13SocketManager7EndSendEi+0x1f6>
  401bb1:	e8 3a f5 ff ff       	callq  4010f0 <free@plt>
  401bb6:	80 bc 24 fc 00 00 00 	cmpb   $0x0,0xfc(%rsp)
  401bbd:	00 
  401bbe:	74 12                	je     401bd2 <_ZN6xaxaxa9AsyncSock13SocketManager7EndSendEi+0x212>
  401bc0:	48 8b bc 24 f0 00 00 	mov    0xf0(%rsp),%rdi
  401bc7:	00 
  401bc8:	48 85 ff             	test   %rdi,%rdi
  401bcb:	74 05                	je     401bd2 <_ZN6xaxaxa9AsyncSock13SocketManager7EndSendEi+0x212>
  401bcd:	e8 1e f5 ff ff       	callq  4010f0 <free@plt>
  401bd2:	48 81 c4 20 01 00 00 	add    $0x120,%rsp
  401bd9:	89 d8                	mov    %ebx,%eax
  401bdb:	5b                   	pop    %rbx
  401bdc:	5d                   	pop    %rbp
  401bdd:	41 5c                	pop    %r12
  401bdf:	c3                   	retq   
  401be0:	48 8d 7d 08          	lea    0x8(%rbp),%rdi
  401be4:	48 89 c3             	mov    %rax,%rbx
  401be7:	e8 24 0b 00 00       	callq  402710 <_ZN6xaxaxa9AsyncSock13SocketManager8taskInfoD1Ev>
  401bec:	4c 89 e7             	mov    %r12,%rdi
  401bef:	e8 1c 0b 00 00       	callq  402710 <_ZN6xaxaxa9AsyncSock13SocketManager8taskInfoD1Ev>
  401bf4:	48 89 df             	mov    %rbx,%rdi
  401bf7:	e8 54 f6 ff ff       	callq  401250 <_Unwind_Resume@plt>
  401bfc:	48 8d bc 24 c0 00 00 	lea    0xc0(%rsp),%rdi
  401c03:	00 
  401c04:	48 89 c3             	mov    %rax,%rbx
  401c07:	e8 04 0b 00 00       	callq  402710 <_ZN6xaxaxa9AsyncSock13SocketManager8taskInfoD1Ev>
  401c0c:	48 89 df             	mov    %rbx,%rdi
  401c0f:	e8 3c f6 ff ff       	callq  401250 <_Unwind_Resume@plt>
  401c14:	eb 0a                	jmp    401c20 <_ZN6xaxaxa9AsyncSock13SocketManager7EndRecvEi>
  401c16:	90                   	nop
  401c17:	90                   	nop
  401c18:	90                   	nop
  401c19:	90                   	nop
  401c1a:	90                   	nop
  401c1b:	90                   	nop
  401c1c:	90                   	nop
  401c1d:	90                   	nop
  401c1e:	90                   	nop
  401c1f:	90                   	nop

0000000000401c20 <_ZN6xaxaxa9AsyncSock13SocketManager7EndRecvEi>:
  401c20:	41 54                	push   %r12
  401c22:	48 89 fa             	mov    %rdi,%rdx
  401c25:	48 83 c7 18          	add    $0x18,%rdi
  401c29:	55                   	push   %rbp
  401c2a:	53                   	push   %rbx
  401c2b:	89 f3                	mov    %esi,%ebx
  401c2d:	48 89 fe             	mov    %rdi,%rsi
  401c30:	48 81 ec 20 01 00 00 	sub    $0x120,%rsp
  401c37:	48 8b 42 20          	mov    0x20(%rdx),%rax
  401c3b:	48 85 c0             	test   %rax,%rax
  401c3e:	75 17                	jne    401c57 <_ZN6xaxaxa9AsyncSock13SocketManager7EndRecvEi+0x37>
  401c40:	eb 23                	jmp    401c65 <_ZN6xaxaxa9AsyncSock13SocketManager7EndRecvEi+0x45>
  401c42:	eb 04                	jmp    401c48 <_ZN6xaxaxa9AsyncSock13SocketManager7EndRecvEi+0x28>
  401c44:	90                   	nop
  401c45:	90                   	nop
  401c46:	90                   	nop
  401c47:	90                   	nop
  401c48:	48 8b 48 10          	mov    0x10(%rax),%rcx
  401c4c:	48 89 c6             	mov    %rax,%rsi
  401c4f:	48 85 c9             	test   %rcx,%rcx
  401c52:	74 11                	je     401c65 <_ZN6xaxaxa9AsyncSock13SocketManager7EndRecvEi+0x45>
  401c54:	48 89 c8             	mov    %rcx,%rax
  401c57:	39 58 20             	cmp    %ebx,0x20(%rax)
  401c5a:	7d ec                	jge    401c48 <_ZN6xaxaxa9AsyncSock13SocketManager7EndRecvEi+0x28>
  401c5c:	48 8b 48 18          	mov    0x18(%rax),%rcx
  401c60:	48 85 c9             	test   %rcx,%rcx
  401c63:	75 ef                	jne    401c54 <_ZN6xaxaxa9AsyncSock13SocketManager7EndRecvEi+0x34>
  401c65:	48 39 f7             	cmp    %rsi,%rdi
  401c68:	48 89 f5             	mov    %rsi,%rbp
  401c6b:	74 09                	je     401c76 <_ZN6xaxaxa9AsyncSock13SocketManager7EndRecvEi+0x56>
  401c6d:	39 5e 20             	cmp    %ebx,0x20(%rsi)
  401c70:	0f 8e ed 00 00 00    	jle    401d63 <_ZN6xaxaxa9AsyncSock13SocketManager7EndRecvEi+0x143>
  401c76:	4c 8d 64 24 60       	lea    0x60(%rsp),%r12
  401c7b:	b9 0a 00 00 00       	mov    $0xa,%ecx
  401c80:	31 c0                	xor    %eax,%eax
  401c82:	89 1c 24             	mov    %ebx,(%rsp)
  401c85:	48 c7 44 24 08 00 00 	movq   $0x0,0x8(%rsp)
  401c8c:	00 00 
  401c8e:	48 89 e5             	mov    %rsp,%rbp
  401c91:	4c 89 e7             	mov    %r12,%rdi
  401c94:	48 c7 44 24 10 00 00 	movq   $0x0,0x10(%rsp)
  401c9b:	00 00 
  401c9d:	48 c7 44 24 18 00 00 	movq   $0x0,0x18(%rsp)
  401ca4:	00 00 
  401ca6:	f3 48 ab             	rep stos %rax,%es:(%rdi)
  401ca9:	48 c7 44 24 20 00 00 	movq   $0x0,0x20(%rsp)
  401cb0:	00 00 
  401cb2:	48 c7 44 24 28 00 00 	movq   $0x0,0x28(%rsp)
  401cb9:	00 00 
  401cbb:	48 c7 44 24 30 00 00 	movq   $0x0,0x30(%rsp)
  401cc2:	00 00 
  401cc4:	48 c7 44 24 38 00 00 	movq   $0x0,0x38(%rsp)
  401ccb:	00 00 
  401ccd:	48 c7 44 24 40 00 00 	movq   $0x0,0x40(%rsp)
  401cd4:	00 00 
  401cd6:	48 c7 44 24 48 00 00 	movq   $0x0,0x48(%rsp)
  401cdd:	00 00 
  401cdf:	48 c7 44 24 50 00 00 	movq   $0x0,0x50(%rsp)
  401ce6:	00 00 
  401ce8:	c6 44 24 58 00       	movb   $0x0,0x58(%rsp)
  401ced:	c6 07 00             	movb   $0x0,(%rdi)
  401cf0:	48 8d 7a 10          	lea    0x10(%rdx),%rdi
  401cf4:	48 89 e2             	mov    %rsp,%rdx
  401cf7:	e8 44 10 00 00       	callq  402d40 <_ZNSt8_Rb_treeIiSt4pairIKiN6xaxaxa9AsyncSock13SocketManager8taskInfoEESt10_Select1stIS6_ESt4lessIiESaIS6_EE17_M_insert_unique_ESt23_Rb_tree_const_iteratorIS6_ERKS6_>
  401cfc:	80 7c 24 54 00       	cmpb   $0x0,0x54(%rsp)
  401d01:	48 89 c5             	mov    %rax,%rbp
  401d04:	74 0f                	je     401d15 <_ZN6xaxaxa9AsyncSock13SocketManager7EndRecvEi+0xf5>
  401d06:	48 8b 7c 24 48       	mov    0x48(%rsp),%rdi
  401d0b:	48 85 ff             	test   %rdi,%rdi
  401d0e:	74 05                	je     401d15 <_ZN6xaxaxa9AsyncSock13SocketManager7EndRecvEi+0xf5>
  401d10:	e8 db f3 ff ff       	callq  4010f0 <free@plt>
  401d15:	80 7c 24 44 00       	cmpb   $0x0,0x44(%rsp)
  401d1a:	74 0f                	je     401d2b <_ZN6xaxaxa9AsyncSock13SocketManager7EndRecvEi+0x10b>
  401d1c:	48 8b 7c 24 38       	mov    0x38(%rsp),%rdi
  401d21:	48 85 ff             	test   %rdi,%rdi
  401d24:	74 05                	je     401d2b <_ZN6xaxaxa9AsyncSock13SocketManager7EndRecvEi+0x10b>
  401d26:	e8 c5 f3 ff ff       	callq  4010f0 <free@plt>
  401d2b:	80 bc 24 ac 00 00 00 	cmpb   $0x0,0xac(%rsp)
  401d32:	00 
  401d33:	74 12                	je     401d47 <_ZN6xaxaxa9AsyncSock13SocketManager7EndRecvEi+0x127>
  401d35:	48 8b bc 24 a0 00 00 	mov    0xa0(%rsp),%rdi
  401d3c:	00 
  401d3d:	48 85 ff             	test   %rdi,%rdi
  401d40:	74 05                	je     401d47 <_ZN6xaxaxa9AsyncSock13SocketManager7EndRecvEi+0x127>
  401d42:	e8 a9 f3 ff ff       	callq  4010f0 <free@plt>
  401d47:	80 bc 24 9c 00 00 00 	cmpb   $0x0,0x9c(%rsp)
  401d4e:	00 
  401d4f:	74 12                	je     401d63 <_ZN6xaxaxa9AsyncSock13SocketManager7EndRecvEi+0x143>
  401d51:	48 8b bc 24 90 00 00 	mov    0x90(%rsp),%rdi
  401d58:	00 
  401d59:	48 85 ff             	test   %rdi,%rdi
  401d5c:	74 05                	je     401d63 <_ZN6xaxaxa9AsyncSock13SocketManager7EndRecvEi+0x143>
  401d5e:	e8 8d f3 ff ff       	callq  4010f0 <free@plt>
  401d63:	48 8b 45 28          	mov    0x28(%rbp),%rax
  401d67:	31 c9                	xor    %ecx,%ecx
  401d69:	89 df                	mov    %ebx,%edi
  401d6b:	48 89 84 24 c0 00 00 	mov    %rax,0xc0(%rsp)
  401d72:	00 
  401d73:	48 8b 45 30          	mov    0x30(%rbp),%rax
  401d77:	48 89 84 24 c8 00 00 	mov    %rax,0xc8(%rsp)
  401d7e:	00 
  401d7f:	48 8b 45 38          	mov    0x38(%rbp),%rax
  401d83:	48 89 84 24 d0 00 00 	mov    %rax,0xd0(%rsp)
  401d8a:	00 
  401d8b:	48 8b 45 40          	mov    0x40(%rbp),%rax
  401d8f:	48 89 84 24 d8 00 00 	mov    %rax,0xd8(%rsp)
  401d96:	00 
  401d97:	48 8b 45 48          	mov    0x48(%rbp),%rax
  401d9b:	48 89 84 24 e0 00 00 	mov    %rax,0xe0(%rsp)
  401da2:	00 
  401da3:	48 8b 45 50          	mov    0x50(%rbp),%rax
  401da7:	48 89 84 24 e8 00 00 	mov    %rax,0xe8(%rsp)
  401dae:	00 
  401daf:	48 8b 75 58          	mov    0x58(%rbp),%rsi
  401db3:	48 89 b4 24 f0 00 00 	mov    %rsi,0xf0(%rsp)
  401dba:	00 
  401dbb:	48 8b 45 60          	mov    0x60(%rbp),%rax
  401dbf:	48 89 84 24 f8 00 00 	mov    %rax,0xf8(%rsp)
  401dc6:	00 
  401dc7:	48 8b 45 68          	mov    0x68(%rbp),%rax
  401dcb:	48 63 94 24 f8 00 00 	movslq 0xf8(%rsp),%rdx
  401dd2:	00 
  401dd3:	48 89 84 24 00 01 00 	mov    %rax,0x100(%rsp)
  401dda:	00 
  401ddb:	48 8b 45 70          	mov    0x70(%rbp),%rax
  401ddf:	48 89 84 24 08 01 00 	mov    %rax,0x108(%rsp)
  401de6:	00 
  401de7:	0f b6 45 78          	movzbl 0x78(%rbp),%eax
  401deb:	88 84 24 10 01 00 00 	mov    %al,0x110(%rsp)
  401df2:	e8 99 f2 ff ff       	callq  401090 <recv@plt>
  401df7:	80 bc 24 0c 01 00 00 	cmpb   $0x0,0x10c(%rsp)
  401dfe:	00 
  401dff:	48 89 c3             	mov    %rax,%rbx
  401e02:	74 12                	je     401e16 <_ZN6xaxaxa9AsyncSock13SocketManager7EndRecvEi+0x1f6>
  401e04:	48 8b bc 24 00 01 00 	mov    0x100(%rsp),%rdi
  401e0b:	00 
  401e0c:	48 85 ff             	test   %rdi,%rdi
  401e0f:	74 05                	je     401e16 <_ZN6xaxaxa9AsyncSock13SocketManager7EndRecvEi+0x1f6>
  401e11:	e8 da f2 ff ff       	callq  4010f0 <free@plt>
  401e16:	80 bc 24 fc 00 00 00 	cmpb   $0x0,0xfc(%rsp)
  401e1d:	00 
  401e1e:	74 12                	je     401e32 <_ZN6xaxaxa9AsyncSock13SocketManager7EndRecvEi+0x212>
  401e20:	48 8b bc 24 f0 00 00 	mov    0xf0(%rsp),%rdi
  401e27:	00 
  401e28:	48 85 ff             	test   %rdi,%rdi
  401e2b:	74 05                	je     401e32 <_ZN6xaxaxa9AsyncSock13SocketManager7EndRecvEi+0x212>
  401e2d:	e8 be f2 ff ff       	callq  4010f0 <free@plt>
  401e32:	48 81 c4 20 01 00 00 	add    $0x120,%rsp
  401e39:	89 d8                	mov    %ebx,%eax
  401e3b:	5b                   	pop    %rbx
  401e3c:	5d                   	pop    %rbp
  401e3d:	41 5c                	pop    %r12
  401e3f:	c3                   	retq   
  401e40:	48 8d 7d 08          	lea    0x8(%rbp),%rdi
  401e44:	48 89 c3             	mov    %rax,%rbx
  401e47:	e8 c4 08 00 00       	callq  402710 <_ZN6xaxaxa9AsyncSock13SocketManager8taskInfoD1Ev>
  401e4c:	4c 89 e7             	mov    %r12,%rdi
  401e4f:	e8 bc 08 00 00       	callq  402710 <_ZN6xaxaxa9AsyncSock13SocketManager8taskInfoD1Ev>
  401e54:	48 89 df             	mov    %rbx,%rdi
  401e57:	e8 f4 f3 ff ff       	callq  401250 <_Unwind_Resume@plt>
  401e5c:	48 8d bc 24 c0 00 00 	lea    0xc0(%rsp),%rdi
  401e63:	00 
  401e64:	48 89 c3             	mov    %rax,%rbx
  401e67:	e8 a4 08 00 00       	callq  402710 <_ZN6xaxaxa9AsyncSock13SocketManager8taskInfoD1Ev>
  401e6c:	48 89 df             	mov    %rbx,%rdi
  401e6f:	e8 dc f3 ff ff       	callq  401250 <_Unwind_Resume@plt>
  401e74:	eb 0a                	jmp    401e80 <_ZN6xaxaxa9AsyncSock13SocketManager9BeginRecvEiNS_6BufferENS1_8CallbackE>
  401e76:	90                   	nop
  401e77:	90                   	nop
  401e78:	90                   	nop
  401e79:	90                   	nop
  401e7a:	90                   	nop
  401e7b:	90                   	nop
  401e7c:	90                   	nop
  401e7d:	90                   	nop
  401e7e:	90                   	nop
  401e7f:	90                   	nop

0000000000401e80 <_ZN6xaxaxa9AsyncSock13SocketManager9BeginRecvEiNS_6BufferENS1_8CallbackE>:
  401e80:	41 57                	push   %r15
  401e82:	4d 89 c7             	mov    %r8,%r15
  401e85:	41 56                	push   %r14
  401e87:	41 55                	push   %r13
  401e89:	4c 8d 6f 18          	lea    0x18(%rdi),%r13
  401e8d:	41 54                	push   %r12
  401e8f:	4d 89 ee             	mov    %r13,%r14
  401e92:	49 89 fc             	mov    %rdi,%r12
  401e95:	55                   	push   %rbp
  401e96:	48 89 d5             	mov    %rdx,%rbp
  401e99:	53                   	push   %rbx
  401e9a:	89 f3                	mov    %esi,%ebx
  401e9c:	48 81 ec 58 02 00 00 	sub    $0x258,%rsp
  401ea3:	48 8b 77 20          	mov    0x20(%rdi),%rsi
  401ea7:	48 89 4c 24 20       	mov    %rcx,0x20(%rsp)
  401eac:	48 89 4c 24 30       	mov    %rcx,0x30(%rsp)
  401eb1:	4c 89 44 24 38       	mov    %r8,0x38(%rsp)
  401eb6:	48 85 f6             	test   %rsi,%rsi
  401eb9:	0f 84 b6 06 00 00    	je     402575 <_ZN6xaxaxa9AsyncSock13SocketManager9BeginRecvEiNS_6BufferENS1_8CallbackE+0x6f5>
  401ebf:	4c 89 ea             	mov    %r13,%rdx
  401ec2:	eb 13                	jmp    401ed7 <_ZN6xaxaxa9AsyncSock13SocketManager9BeginRecvEiNS_6BufferENS1_8CallbackE+0x57>
  401ec4:	eb 02                	jmp    401ec8 <_ZN6xaxaxa9AsyncSock13SocketManager9BeginRecvEiNS_6BufferENS1_8CallbackE+0x48>
  401ec6:	90                   	nop
  401ec7:	90                   	nop
  401ec8:	48 8b 46 10          	mov    0x10(%rsi),%rax
  401ecc:	48 85 c0             	test   %rax,%rax
  401ecf:	74 17                	je     401ee8 <_ZN6xaxaxa9AsyncSock13SocketManager9BeginRecvEiNS_6BufferENS1_8CallbackE+0x68>
  401ed1:	48 89 f2             	mov    %rsi,%rdx
  401ed4:	48 89 c6             	mov    %rax,%rsi
  401ed7:	39 5e 20             	cmp    %ebx,0x20(%rsi)
  401eda:	7d ec                	jge    401ec8 <_ZN6xaxaxa9AsyncSock13SocketManager9BeginRecvEiNS_6BufferENS1_8CallbackE+0x48>
  401edc:	48 8b 46 18          	mov    0x18(%rsi),%rax
  401ee0:	48 89 d6             	mov    %rdx,%rsi
  401ee3:	48 85 c0             	test   %rax,%rax
  401ee6:	75 e9                	jne    401ed1 <_ZN6xaxaxa9AsyncSock13SocketManager9BeginRecvEiNS_6BufferENS1_8CallbackE+0x51>
  401ee8:	49 39 f5             	cmp    %rsi,%r13
  401eeb:	48 89 f0             	mov    %rsi,%rax
  401eee:	74 09                	je     401ef9 <_ZN6xaxaxa9AsyncSock13SocketManager9BeginRecvEiNS_6BufferENS1_8CallbackE+0x79>
  401ef0:	39 5e 20             	cmp    %ebx,0x20(%rsi)
  401ef3:	0f 8e 50 01 00 00    	jle    402049 <_ZN6xaxaxa9AsyncSock13SocketManager9BeginRecvEiNS_6BufferENS1_8CallbackE+0x1c9>
  401ef9:	48 8d 84 24 60 01 00 	lea    0x160(%rsp),%rax
  401f00:	00 
  401f01:	b9 0a 00 00 00       	mov    $0xa,%ecx
  401f06:	48 8d 94 24 a0 00 00 	lea    0xa0(%rsp),%rdx
  401f0d:	00 
  401f0e:	89 9c 24 a0 00 00 00 	mov    %ebx,0xa0(%rsp)
  401f15:	48 c7 84 24 a8 00 00 	movq   $0x0,0xa8(%rsp)
  401f1c:	00 00 00 00 00 
  401f21:	48 89 44 24 08       	mov    %rax,0x8(%rsp)
  401f26:	48 8b 7c 24 08       	mov    0x8(%rsp),%rdi
  401f2b:	31 c0                	xor    %eax,%eax
  401f2d:	48 c7 84 24 b0 00 00 	movq   $0x0,0xb0(%rsp)
  401f34:	00 00 00 00 00 
  401f39:	48 c7 84 24 b8 00 00 	movq   $0x0,0xb8(%rsp)
  401f40:	00 00 00 00 00 
  401f45:	48 c7 84 24 c0 00 00 	movq   $0x0,0xc0(%rsp)
  401f4c:	00 00 00 00 00 
  401f51:	48 c7 84 24 c8 00 00 	movq   $0x0,0xc8(%rsp)
  401f58:	00 00 00 00 00 
  401f5d:	f3 48 ab             	rep stos %rax,%es:(%rdi)
  401f60:	48 c7 84 24 d0 00 00 	movq   $0x0,0xd0(%rsp)
  401f67:	00 00 00 00 00 
  401f6c:	48 c7 84 24 d8 00 00 	movq   $0x0,0xd8(%rsp)
  401f73:	00 00 00 00 00 
  401f78:	48 c7 84 24 e0 00 00 	movq   $0x0,0xe0(%rsp)
  401f7f:	00 00 00 00 00 
  401f84:	48 c7 84 24 e8 00 00 	movq   $0x0,0xe8(%rsp)
  401f8b:	00 00 00 00 00 
  401f90:	48 c7 84 24 f0 00 00 	movq   $0x0,0xf0(%rsp)
  401f97:	00 00 00 00 00 
  401f9c:	c6 84 24 f8 00 00 00 	movb   $0x0,0xf8(%rsp)
  401fa3:	00 
  401fa4:	c6 07 00             	movb   $0x0,(%rdi)
  401fa7:	49 8d 7c 24 10       	lea    0x10(%r12),%rdi
  401fac:	e8 8f 0d 00 00       	callq  402d40 <_ZNSt8_Rb_treeIiSt4pairIKiN6xaxaxa9AsyncSock13SocketManager8taskInfoEESt10_Select1stIS6_ESt4lessIiESaIS6_EE17_M_insert_unique_ESt23_Rb_tree_const_iteratorIS6_ERKS6_>
  401fb1:	80 bc 24 f4 00 00 00 	cmpb   $0x0,0xf4(%rsp)
  401fb8:	00 
  401fb9:	74 1c                	je     401fd7 <_ZN6xaxaxa9AsyncSock13SocketManager9BeginRecvEiNS_6BufferENS1_8CallbackE+0x157>
  401fbb:	48 8b bc 24 e8 00 00 	mov    0xe8(%rsp),%rdi
  401fc2:	00 
  401fc3:	48 85 ff             	test   %rdi,%rdi
  401fc6:	74 0f                	je     401fd7 <_ZN6xaxaxa9AsyncSock13SocketManager9BeginRecvEiNS_6BufferENS1_8CallbackE+0x157>
  401fc8:	48 89 44 24 18       	mov    %rax,0x18(%rsp)
  401fcd:	e8 1e f1 ff ff       	callq  4010f0 <free@plt>
  401fd2:	48 8b 44 24 18       	mov    0x18(%rsp),%rax
  401fd7:	80 bc 24 e4 00 00 00 	cmpb   $0x0,0xe4(%rsp)
  401fde:	00 
  401fdf:	74 1c                	je     401ffd <_ZN6xaxaxa9AsyncSock13SocketManager9BeginRecvEiNS_6BufferENS1_8CallbackE+0x17d>
  401fe1:	48 8b bc 24 d8 00 00 	mov    0xd8(%rsp),%rdi
  401fe8:	00 
  401fe9:	48 85 ff             	test   %rdi,%rdi
  401fec:	74 0f                	je     401ffd <_ZN6xaxaxa9AsyncSock13SocketManager9BeginRecvEiNS_6BufferENS1_8CallbackE+0x17d>
  401fee:	48 89 44 24 18       	mov    %rax,0x18(%rsp)
  401ff3:	e8 f8 f0 ff ff       	callq  4010f0 <free@plt>
  401ff8:	48 8b 44 24 18       	mov    0x18(%rsp),%rax
  401ffd:	80 bc 24 ac 01 00 00 	cmpb   $0x0,0x1ac(%rsp)
  402004:	00 
  402005:	74 1c                	je     402023 <_ZN6xaxaxa9AsyncSock13SocketManager9BeginRecvEiNS_6BufferENS1_8CallbackE+0x1a3>
  402007:	48 8b bc 24 a0 01 00 	mov    0x1a0(%rsp),%rdi
  40200e:	00 
  40200f:	48 85 ff             	test   %rdi,%rdi
  402012:	74 0f                	je     402023 <_ZN6xaxaxa9AsyncSock13SocketManager9BeginRecvEiNS_6BufferENS1_8CallbackE+0x1a3>
  402014:	48 89 44 24 18       	mov    %rax,0x18(%rsp)
  402019:	e8 d2 f0 ff ff       	callq  4010f0 <free@plt>
  40201e:	48 8b 44 24 18       	mov    0x18(%rsp),%rax
  402023:	80 bc 24 9c 01 00 00 	cmpb   $0x0,0x19c(%rsp)
  40202a:	00 
  40202b:	74 1c                	je     402049 <_ZN6xaxaxa9AsyncSock13SocketManager9BeginRecvEiNS_6BufferENS1_8CallbackE+0x1c9>
  40202d:	48 8b bc 24 90 01 00 	mov    0x190(%rsp),%rdi
  402034:	00 
  402035:	48 85 ff             	test   %rdi,%rdi
  402038:	74 0f                	je     402049 <_ZN6xaxaxa9AsyncSock13SocketManager9BeginRecvEiNS_6BufferENS1_8CallbackE+0x1c9>
  40203a:	48 89 44 24 18       	mov    %rax,0x18(%rsp)
  40203f:	e8 ac f0 ff ff       	callq  4010f0 <free@plt>
  402044:	48 8b 44 24 18       	mov    0x18(%rsp),%rax
  402049:	48 8b 50 28          	mov    0x28(%rax),%rdx
  40204d:	48 89 94 24 c0 01 00 	mov    %rdx,0x1c0(%rsp)
  402054:	00 
  402055:	48 8b 50 30          	mov    0x30(%rax),%rdx
  402059:	80 bc 24 c0 01 00 00 	cmpb   $0x0,0x1c0(%rsp)
  402060:	00 
  402061:	48 89 94 24 c8 01 00 	mov    %rdx,0x1c8(%rsp)
  402068:	00 
  402069:	48 8b 50 38          	mov    0x38(%rax),%rdx
  40206d:	48 89 94 24 d0 01 00 	mov    %rdx,0x1d0(%rsp)
  402074:	00 
  402075:	48 8b 50 40          	mov    0x40(%rax),%rdx
  402079:	48 89 94 24 d8 01 00 	mov    %rdx,0x1d8(%rsp)
  402080:	00 
  402081:	48 8b 50 48          	mov    0x48(%rax),%rdx
  402085:	48 89 94 24 e0 01 00 	mov    %rdx,0x1e0(%rsp)
  40208c:	00 
  40208d:	48 8b 50 50          	mov    0x50(%rax),%rdx
  402091:	48 89 94 24 e8 01 00 	mov    %rdx,0x1e8(%rsp)
  402098:	00 
  402099:	48 8b 50 58          	mov    0x58(%rax),%rdx
  40209d:	48 89 94 24 f0 01 00 	mov    %rdx,0x1f0(%rsp)
  4020a4:	00 
  4020a5:	48 8b 50 60          	mov    0x60(%rax),%rdx
  4020a9:	48 89 94 24 f8 01 00 	mov    %rdx,0x1f8(%rsp)
  4020b0:	00 
  4020b1:	48 8b 50 68          	mov    0x68(%rax),%rdx
  4020b5:	48 89 94 24 00 02 00 	mov    %rdx,0x200(%rsp)
  4020bc:	00 
  4020bd:	48 8b 50 70          	mov    0x70(%rax),%rdx
  4020c1:	48 89 94 24 08 02 00 	mov    %rdx,0x208(%rsp)
  4020c8:	00 
  4020c9:	0f b6 40 78          	movzbl 0x78(%rax),%eax
  4020cd:	88 84 24 10 02 00 00 	mov    %al,0x210(%rsp)
  4020d4:	0f 84 ee 00 00 00    	je     4021c8 <_ZN6xaxaxa9AsyncSock13SocketManager9BeginRecvEiNS_6BufferENS1_8CallbackE+0x348>
  4020da:	8b 84 24 ec 01 00 00 	mov    0x1ec(%rsp),%eax
  4020e1:	a8 01                	test   $0x1,%al
  4020e3:	0f 85 67 03 00 00    	jne    402450 <_ZN6xaxaxa9AsyncSock13SocketManager9BeginRecvEiNS_6BufferENS1_8CallbackE+0x5d0>
  4020e9:	80 bc 24 10 02 00 00 	cmpb   $0x0,0x210(%rsp)
  4020f0:	00 
  4020f1:	0f 85 39 04 00 00    	jne    402530 <_ZN6xaxaxa9AsyncSock13SocketManager9BeginRecvEiNS_6BufferENS1_8CallbackE+0x6b0>
  4020f7:	48 8d 94 24 c0 01 00 	lea    0x1c0(%rsp),%rdx
  4020fe:	00 
  4020ff:	bf 0c 00 00 00       	mov    $0xc,%edi
  402104:	83 8c 24 e8 01 00 00 	orl    $0x1,0x1e8(%rsp)
  40210b:	01 
  40210c:	48 89 54 24 28       	mov    %rdx,0x28(%rsp)
  402111:	e8 2a f1 ff ff       	callq  401240 <_Znwm@plt>
  402116:	48 c7 00 00 00 00 00 	movq   $0x0,(%rax)
  40211d:	c7 40 08 00 00 00 00 	movl   $0x0,0x8(%rax)
  402124:	be 03 00 00 00       	mov    $0x3,%esi
  402129:	89 58 04             	mov    %ebx,0x4(%rax)
  40212c:	8b 94 24 e8 01 00 00 	mov    0x1e8(%rsp),%edx
  402133:	4c 89 bc 24 d0 01 00 	mov    %r15,0x1d0(%rsp)
  40213a:	00 
  40213b:	89 10                	mov    %edx,(%rax)
  40213d:	48 8b 54 24 20       	mov    0x20(%rsp),%rdx
  402142:	48 89 94 24 c8 01 00 	mov    %rdx,0x1c8(%rsp)
  402149:	00 
  40214a:	48 8b 4d 00          	mov    0x0(%rbp),%rcx
  40214e:	48 8d 94 24 f0 01 00 	lea    0x1f0(%rsp),%rdx
  402155:	00 
  402156:	48 89 8c 24 f0 01 00 	mov    %rcx,0x1f0(%rsp)
  40215d:	00 
  40215e:	8b 4d 08             	mov    0x8(%rbp),%ecx
  402161:	89 4a 08             	mov    %ecx,0x8(%rdx)
  402164:	0f b6 4d 0c          	movzbl 0xc(%rbp),%ecx
  402168:	88 4a 0c             	mov    %cl,0xc(%rdx)
  40216b:	41 8b 7c 24 08       	mov    0x8(%r12),%edi
  402170:	48 89 c1             	mov    %rax,%rcx
  402173:	89 da                	mov    %ebx,%edx
  402175:	e8 b6 ef ff ff       	callq  401130 <epoll_ctl@plt>
  40217a:	80 bc 24 0c 02 00 00 	cmpb   $0x0,0x20c(%rsp)
  402181:	00 
  402182:	74 12                	je     402196 <_ZN6xaxaxa9AsyncSock13SocketManager9BeginRecvEiNS_6BufferENS1_8CallbackE+0x316>
  402184:	48 8b bc 24 00 02 00 	mov    0x200(%rsp),%rdi
  40218b:	00 
  40218c:	48 85 ff             	test   %rdi,%rdi
  40218f:	74 05                	je     402196 <_ZN6xaxaxa9AsyncSock13SocketManager9BeginRecvEiNS_6BufferENS1_8CallbackE+0x316>
  402191:	e8 5a ef ff ff       	callq  4010f0 <free@plt>
  402196:	80 bc 24 fc 01 00 00 	cmpb   $0x0,0x1fc(%rsp)
  40219d:	00 
  40219e:	74 12                	je     4021b2 <_ZN6xaxaxa9AsyncSock13SocketManager9BeginRecvEiNS_6BufferENS1_8CallbackE+0x332>
  4021a0:	48 8b bc 24 f0 01 00 	mov    0x1f0(%rsp),%rdi
  4021a7:	00 
  4021a8:	48 85 ff             	test   %rdi,%rdi
  4021ab:	74 05                	je     4021b2 <_ZN6xaxaxa9AsyncSock13SocketManager9BeginRecvEiNS_6BufferENS1_8CallbackE+0x332>
  4021ad:	e8 3e ef ff ff       	callq  4010f0 <free@plt>
  4021b2:	48 81 c4 58 02 00 00 	add    $0x258,%rsp
  4021b9:	5b                   	pop    %rbx
  4021ba:	5d                   	pop    %rbp
  4021bb:	41 5c                	pop    %r12
  4021bd:	41 5d                	pop    %r13
  4021bf:	41 5e                	pop    %r14
  4021c1:	41 5f                	pop    %r15
  4021c3:	c3                   	retq   
  4021c4:	eb 02                	jmp    4021c8 <_ZN6xaxaxa9AsyncSock13SocketManager9BeginRecvEiNS_6BufferENS1_8CallbackE+0x348>
  4021c6:	90                   	nop
  4021c7:	90                   	nop
  4021c8:	48 8b 44 24 20       	mov    0x20(%rsp),%rax
  4021cd:	48 8d 94 24 c0 01 00 	lea    0x1c0(%rsp),%rdx
  4021d4:	00 
  4021d5:	c6 84 24 c0 01 00 00 	movb   $0x1,0x1c0(%rsp)
  4021dc:	01 
  4021dd:	89 9c 24 c4 01 00 00 	mov    %ebx,0x1c4(%rsp)
  4021e4:	c7 84 24 e8 01 00 00 	movl   $0x1,0x1e8(%rsp)
  4021eb:	01 00 00 00 
  4021ef:	c7 84 24 ec 01 00 00 	movl   $0x1,0x1ec(%rsp)
  4021f6:	01 00 00 00 
  4021fa:	4c 89 bc 24 d0 01 00 	mov    %r15,0x1d0(%rsp)
  402201:	00 
  402202:	48 89 84 24 c8 01 00 	mov    %rax,0x1c8(%rsp)
  402209:	00 
  40220a:	48 89 54 24 28       	mov    %rdx,0x28(%rsp)
  40220f:	48 89 d0             	mov    %rdx,%rax
  402212:	48 8b 55 00          	mov    0x0(%rbp),%rdx
  402216:	48 83 c0 30          	add    $0x30,%rax
  40221a:	48 89 94 24 f0 01 00 	mov    %rdx,0x1f0(%rsp)
  402221:	00 
  402222:	8b 55 08             	mov    0x8(%rbp),%edx
  402225:	89 50 08             	mov    %edx,0x8(%rax)
  402228:	0f b6 55 0c          	movzbl 0xc(%rbp),%edx
  40222c:	c6 84 24 10 02 00 00 	movb   $0x0,0x210(%rsp)
  402233:	00 
  402234:	88 50 0c             	mov    %dl,0xc(%rax)
  402237:	49 8b 44 24 20       	mov    0x20(%r12),%rax
  40223c:	48 85 c0             	test   %rax,%rax
  40223f:	75 16                	jne    402257 <_ZN6xaxaxa9AsyncSock13SocketManager9BeginRecvEiNS_6BufferENS1_8CallbackE+0x3d7>
  402241:	eb 22                	jmp    402265 <_ZN6xaxaxa9AsyncSock13SocketManager9BeginRecvEiNS_6BufferENS1_8CallbackE+0x3e5>
  402243:	eb 03                	jmp    402248 <_ZN6xaxaxa9AsyncSock13SocketManager9BeginRecvEiNS_6BufferENS1_8CallbackE+0x3c8>
  402245:	90                   	nop
  402246:	90                   	nop
  402247:	90                   	nop
  402248:	48 8b 50 10          	mov    0x10(%rax),%rdx
  40224c:	49 89 c6             	mov    %rax,%r14
  40224f:	48 85 d2             	test   %rdx,%rdx
  402252:	74 11                	je     402265 <_ZN6xaxaxa9AsyncSock13SocketManager9BeginRecvEiNS_6BufferENS1_8CallbackE+0x3e5>
  402254:	48 89 d0             	mov    %rdx,%rax
  402257:	3b 58 20             	cmp    0x20(%rax),%ebx
  40225a:	7e ec                	jle    402248 <_ZN6xaxaxa9AsyncSock13SocketManager9BeginRecvEiNS_6BufferENS1_8CallbackE+0x3c8>
  40225c:	48 8b 50 18          	mov    0x18(%rax),%rdx
  402260:	48 85 d2             	test   %rdx,%rdx
  402263:	75 ef                	jne    402254 <_ZN6xaxaxa9AsyncSock13SocketManager9BeginRecvEiNS_6BufferENS1_8CallbackE+0x3d4>
  402265:	4d 39 f5             	cmp    %r14,%r13
  402268:	4c 89 f5             	mov    %r14,%rbp
  40226b:	74 0a                	je     402277 <_ZN6xaxaxa9AsyncSock13SocketManager9BeginRecvEiNS_6BufferENS1_8CallbackE+0x3f7>
  40226d:	41 3b 5e 20          	cmp    0x20(%r14),%ebx
  402271:	0f 8d 0c 01 00 00    	jge    402383 <_ZN6xaxaxa9AsyncSock13SocketManager9BeginRecvEiNS_6BufferENS1_8CallbackE+0x503>
  402277:	4c 8d ac 24 00 01 00 	lea    0x100(%rsp),%r13
  40227e:	00 
  40227f:	b9 0a 00 00 00       	mov    $0xa,%ecx
  402284:	31 c0                	xor    %eax,%eax
  402286:	48 8d 6c 24 40       	lea    0x40(%rsp),%rbp
  40228b:	4c 89 f6             	mov    %r14,%rsi
  40228e:	89 5c 24 40          	mov    %ebx,0x40(%rsp)
  402292:	4c 89 ef             	mov    %r13,%rdi
  402295:	48 c7 44 24 48 00 00 	movq   $0x0,0x48(%rsp)
  40229c:	00 00 
  40229e:	48 c7 44 24 50 00 00 	movq   $0x0,0x50(%rsp)
  4022a5:	00 00 
  4022a7:	f3 48 ab             	rep stos %rax,%es:(%rdi)
  4022aa:	48 89 ea             	mov    %rbp,%rdx
  4022ad:	48 c7 44 24 58 00 00 	movq   $0x0,0x58(%rsp)
  4022b4:	00 00 
  4022b6:	48 c7 44 24 60 00 00 	movq   $0x0,0x60(%rsp)
  4022bd:	00 00 
  4022bf:	48 c7 44 24 68 00 00 	movq   $0x0,0x68(%rsp)
  4022c6:	00 00 
  4022c8:	48 c7 44 24 70 00 00 	movq   $0x0,0x70(%rsp)
  4022cf:	00 00 
  4022d1:	48 c7 44 24 78 00 00 	movq   $0x0,0x78(%rsp)
  4022d8:	00 00 
  4022da:	48 c7 84 24 80 00 00 	movq   $0x0,0x80(%rsp)
  4022e1:	00 00 00 00 00 
  4022e6:	48 c7 84 24 88 00 00 	movq   $0x0,0x88(%rsp)
  4022ed:	00 00 00 00 00 
  4022f2:	48 c7 84 24 90 00 00 	movq   $0x0,0x90(%rsp)
  4022f9:	00 00 00 00 00 
  4022fe:	c6 84 24 98 00 00 00 	movb   $0x0,0x98(%rsp)
  402305:	00 
  402306:	c6 07 00             	movb   $0x0,(%rdi)
  402309:	49 8d 7c 24 10       	lea    0x10(%r12),%rdi
  40230e:	e8 2d 0a 00 00       	callq  402d40 <_ZNSt8_Rb_treeIiSt4pairIKiN6xaxaxa9AsyncSock13SocketManager8taskInfoEESt10_Select1stIS6_ESt4lessIiESaIS6_EE17_M_insert_unique_ESt23_Rb_tree_const_iteratorIS6_ERKS6_>
  402313:	80 bc 24 94 00 00 00 	cmpb   $0x0,0x94(%rsp)
  40231a:	00 
  40231b:	48 89 c5             	mov    %rax,%rbp
  40231e:	74 12                	je     402332 <_ZN6xaxaxa9AsyncSock13SocketManager9BeginRecvEiNS_6BufferENS1_8CallbackE+0x4b2>
  402320:	48 8b bc 24 88 00 00 	mov    0x88(%rsp),%rdi
  402327:	00 
  402328:	48 85 ff             	test   %rdi,%rdi
  40232b:	74 05                	je     402332 <_ZN6xaxaxa9AsyncSock13SocketManager9BeginRecvEiNS_6BufferENS1_8CallbackE+0x4b2>
  40232d:	e8 be ed ff ff       	callq  4010f0 <free@plt>
  402332:	80 bc 24 84 00 00 00 	cmpb   $0x0,0x84(%rsp)
  402339:	00 
  40233a:	74 0f                	je     40234b <_ZN6xaxaxa9AsyncSock13SocketManager9BeginRecvEiNS_6BufferENS1_8CallbackE+0x4cb>
  40233c:	48 8b 7c 24 78       	mov    0x78(%rsp),%rdi
  402341:	48 85 ff             	test   %rdi,%rdi
  402344:	74 05                	je     40234b <_ZN6xaxaxa9AsyncSock13SocketManager9BeginRecvEiNS_6BufferENS1_8CallbackE+0x4cb>
  402346:	e8 a5 ed ff ff       	callq  4010f0 <free@plt>
  40234b:	80 bc 24 4c 01 00 00 	cmpb   $0x0,0x14c(%rsp)
  402352:	00 
  402353:	74 12                	je     402367 <_ZN6xaxaxa9AsyncSock13SocketManager9BeginRecvEiNS_6BufferENS1_8CallbackE+0x4e7>
  402355:	48 8b bc 24 40 01 00 	mov    0x140(%rsp),%rdi
  40235c:	00 
  40235d:	48 85 ff             	test   %rdi,%rdi
  402360:	74 05                	je     402367 <_ZN6xaxaxa9AsyncSock13SocketManager9BeginRecvEiNS_6BufferENS1_8CallbackE+0x4e7>
  402362:	e8 89 ed ff ff       	callq  4010f0 <free@plt>
  402367:	80 bc 24 3c 01 00 00 	cmpb   $0x0,0x13c(%rsp)
  40236e:	00 
  40236f:	74 12                	je     402383 <_ZN6xaxaxa9AsyncSock13SocketManager9BeginRecvEiNS_6BufferENS1_8CallbackE+0x503>
  402371:	48 8b bc 24 30 01 00 	mov    0x130(%rsp),%rdi
  402378:	00 
  402379:	48 85 ff             	test   %rdi,%rdi
  40237c:	74 05                	je     402383 <_ZN6xaxaxa9AsyncSock13SocketManager9BeginRecvEiNS_6BufferENS1_8CallbackE+0x503>
  40237e:	e8 6d ed ff ff       	callq  4010f0 <free@plt>
  402383:	48 8b 94 24 c0 01 00 	mov    0x1c0(%rsp),%rdx
  40238a:	00 
  40238b:	48 8d 45 28          	lea    0x28(%rbp),%rax
  40238f:	bf 0c 00 00 00       	mov    $0xc,%edi
  402394:	48 89 55 28          	mov    %rdx,0x28(%rbp)
  402398:	48 8b 94 24 c8 01 00 	mov    0x1c8(%rsp),%rdx
  40239f:	00 
  4023a0:	48 89 50 08          	mov    %rdx,0x8(%rax)
  4023a4:	48 8b 94 24 d0 01 00 	mov    0x1d0(%rsp),%rdx
  4023ab:	00 
  4023ac:	48 89 50 10          	mov    %rdx,0x10(%rax)
  4023b0:	48 8b 94 24 d8 01 00 	mov    0x1d8(%rsp),%rdx
  4023b7:	00 
  4023b8:	48 89 50 18          	mov    %rdx,0x18(%rax)
  4023bc:	48 8b 94 24 e0 01 00 	mov    0x1e0(%rsp),%rdx
  4023c3:	00 
  4023c4:	48 89 50 20          	mov    %rdx,0x20(%rax)
  4023c8:	48 8b 94 24 e8 01 00 	mov    0x1e8(%rsp),%rdx
  4023cf:	00 
  4023d0:	48 89 50 28          	mov    %rdx,0x28(%rax)
  4023d4:	48 8b 94 24 f0 01 00 	mov    0x1f0(%rsp),%rdx
  4023db:	00 
  4023dc:	48 89 50 30          	mov    %rdx,0x30(%rax)
  4023e0:	48 8b 94 24 f8 01 00 	mov    0x1f8(%rsp),%rdx
  4023e7:	00 
  4023e8:	48 89 50 38          	mov    %rdx,0x38(%rax)
  4023ec:	48 8b 94 24 00 02 00 	mov    0x200(%rsp),%rdx
  4023f3:	00 
  4023f4:	48 89 50 40          	mov    %rdx,0x40(%rax)
  4023f8:	48 8b 94 24 08 02 00 	mov    0x208(%rsp),%rdx
  4023ff:	00 
  402400:	48 89 50 48          	mov    %rdx,0x48(%rax)
  402404:	0f b6 94 24 10 02 00 	movzbl 0x210(%rsp),%edx
  40240b:	00 
  40240c:	88 50 50             	mov    %dl,0x50(%rax)
  40240f:	e8 2c ee ff ff       	callq  401240 <_Znwm@plt>
  402414:	48 c7 00 00 00 00 00 	movq   $0x0,(%rax)
  40241b:	c7 40 08 00 00 00 00 	movl   $0x0,0x8(%rax)
  402422:	48 89 c1             	mov    %rax,%rcx
  402425:	89 58 04             	mov    %ebx,0x4(%rax)
  402428:	8b 94 24 e8 01 00 00 	mov    0x1e8(%rsp),%edx
  40242f:	be 01 00 00 00       	mov    $0x1,%esi
  402434:	89 10                	mov    %edx,(%rax)
  402436:	41 8b 7c 24 08       	mov    0x8(%r12),%edi
  40243b:	89 da                	mov    %ebx,%edx
  40243d:	e8 ee ec ff ff       	callq  401130 <epoll_ctl@plt>
  402442:	e9 33 fd ff ff       	jmpq   40217a <_ZN6xaxaxa9AsyncSock13SocketManager9BeginRecvEiNS_6BufferENS1_8CallbackE+0x2fa>
  402447:	eb 07                	jmp    402450 <_ZN6xaxaxa9AsyncSock13SocketManager9BeginRecvEiNS_6BufferENS1_8CallbackE+0x5d0>
  402449:	90                   	nop
  40244a:	90                   	nop
  40244b:	90                   	nop
  40244c:	90                   	nop
  40244d:	90                   	nop
  40244e:	90                   	nop
  40244f:	90                   	nop
  402450:	4c 8d a4 24 40 02 00 	lea    0x240(%rsp),%r12
  402457:	00 
  402458:	48 8d 94 24 4f 02 00 	lea    0x24f(%rsp),%rdx
  40245f:	00 
  402460:	be 6d 43 40 00       	mov    $0x40436d,%esi
  402465:	4c 89 e7             	mov    %r12,%rdi
  402468:	e8 b3 ec ff ff       	callq  401120 <_ZNSsC1EPKcRKSaIcE@plt>
  40246d:	bf 10 00 00 00       	mov    $0x10,%edi
  402472:	e8 c9 ed ff ff       	callq  401240 <_Znwm@plt>
  402477:	48 8d ac 24 30 02 00 	lea    0x230(%rsp),%rbp
  40247e:	00 
  40247f:	48 c7 40 08 38 62 60 	movq   $0x606238,0x8(%rax)
  402486:	00 
  402487:	4c 89 e6             	mov    %r12,%rsi
  40248a:	48 89 c3             	mov    %rax,%rbx
  40248d:	48 89 ef             	mov    %rbp,%rdi
  402490:	e8 1b ec ff ff       	callq  4010b0 <_ZNSsC1ERKSs@plt>
  402495:	4c 8d ac 24 20 02 00 	lea    0x220(%rsp),%r13
  40249c:	00 
  40249d:	48 89 ee             	mov    %rbp,%rsi
  4024a0:	48 c7 84 24 28 02 00 	movq   $0x606238,0x228(%rsp)
  4024a7:	00 38 62 60 00 
  4024ac:	c7 84 24 20 02 00 00 	movl   $0x0,0x220(%rsp)
  4024b3:	00 00 00 00 
  4024b7:	49 8d 7d 08          	lea    0x8(%r13),%rdi
  4024bb:	e8 10 ed ff ff       	callq  4011d0 <_ZNSs6assignERKSs@plt>
  4024c0:	48 8b bc 24 28 02 00 	mov    0x228(%rsp),%rdi
  4024c7:	00 
  4024c8:	bd 20 62 60 00       	mov    $0x606220,%ebp
  4024cd:	48 83 ef 18          	sub    $0x18,%rdi
  4024d1:	48 39 ef             	cmp    %rbp,%rdi
  4024d4:	0f 85 57 01 00 00    	jne    402631 <_ZN6xaxaxa9AsyncSock13SocketManager9BeginRecvEiNS_6BufferENS1_8CallbackE+0x7b1>
  4024da:	48 8b bc 24 30 02 00 	mov    0x230(%rsp),%rdi
  4024e1:	00 
  4024e2:	48 83 ef 18          	sub    $0x18,%rdi
  4024e6:	48 39 fd             	cmp    %rdi,%rbp
  4024e9:	0f 85 72 01 00 00    	jne    402661 <_ZN6xaxaxa9AsyncSock13SocketManager9BeginRecvEiNS_6BufferENS1_8CallbackE+0x7e1>
  4024ef:	bf 08 00 00 00       	mov    $0x8,%edi
  4024f4:	e8 a7 ec ff ff       	callq  4011a0 <__cxa_allocate_exception@plt>
  4024f9:	48 8b bc 24 40 02 00 	mov    0x240(%rsp),%rdi
  402500:	00 
  402501:	48 89 18             	mov    %rbx,(%rax)
  402504:	48 83 ef 18          	sub    $0x18,%rdi
  402508:	48 39 fd             	cmp    %rdi,%rbp
  40250b:	0f 85 88 01 00 00    	jne    402699 <_ZN6xaxaxa9AsyncSock13SocketManager9BeginRecvEiNS_6BufferENS1_8CallbackE+0x819>
  402511:	48 8d 94 24 c0 01 00 	lea    0x1c0(%rsp),%rdx
  402518:	00 
  402519:	be 00 44 40 00       	mov    $0x404400,%esi
  40251e:	48 89 c7             	mov    %rax,%rdi
  402521:	48 89 54 24 28       	mov    %rdx,0x28(%rsp)
  402526:	31 d2                	xor    %edx,%edx
  402528:	e8 b3 ec ff ff       	callq  4011e0 <__cxa_throw@plt>
  40252d:	eb 01                	jmp    402530 <_ZN6xaxaxa9AsyncSock13SocketManager9BeginRecvEiNS_6BufferENS1_8CallbackE+0x6b0>
  40252f:	90                   	nop
  402530:	83 c8 01             	or     $0x1,%eax
  402533:	4c 89 bc 24 d0 01 00 	mov    %r15,0x1d0(%rsp)
  40253a:	00 
  40253b:	89 84 24 ec 01 00 00 	mov    %eax,0x1ec(%rsp)
  402542:	48 8b 44 24 20       	mov    0x20(%rsp),%rax
  402547:	48 89 84 24 c8 01 00 	mov    %rax,0x1c8(%rsp)
  40254e:	00 
  40254f:	48 8b 55 00          	mov    0x0(%rbp),%rdx
  402553:	48 8d 84 24 f0 01 00 	lea    0x1f0(%rsp),%rax
  40255a:	00 
  40255b:	48 89 94 24 f0 01 00 	mov    %rdx,0x1f0(%rsp)
  402562:	00 
  402563:	8b 55 08             	mov    0x8(%rbp),%edx
  402566:	89 50 08             	mov    %edx,0x8(%rax)
  402569:	0f b6 55 0c          	movzbl 0xc(%rbp),%edx
  40256d:	88 50 0c             	mov    %dl,0xc(%rax)
  402570:	e9 05 fc ff ff       	jmpq   40217a <_ZN6xaxaxa9AsyncSock13SocketManager9BeginRecvEiNS_6BufferENS1_8CallbackE+0x2fa>
  402575:	4c 89 ee             	mov    %r13,%rsi
  402578:	e9 6b f9 ff ff       	jmpq   401ee8 <_ZN6xaxaxa9AsyncSock13SocketManager9BeginRecvEiNS_6BufferENS1_8CallbackE+0x68>
  40257d:	48 8d 7d 08          	lea    0x8(%rbp),%rdi
  402581:	49 89 c6             	mov    %rax,%r14
  402584:	e8 87 01 00 00       	callq  402710 <_ZN6xaxaxa9AsyncSock13SocketManager8taskInfoD1Ev>
  402589:	4c 89 ef             	mov    %r13,%rdi
  40258c:	e8 7f 01 00 00       	callq  402710 <_ZN6xaxaxa9AsyncSock13SocketManager8taskInfoD1Ev>
  402591:	48 8b 7c 24 28       	mov    0x28(%rsp),%rdi
  402596:	e8 75 01 00 00       	callq  402710 <_ZN6xaxaxa9AsyncSock13SocketManager8taskInfoD1Ev>
  40259b:	4c 89 f7             	mov    %r14,%rdi
  40259e:	e8 ad ec ff ff       	callq  401250 <_Unwind_Resume@plt>
  4025a3:	48 8d bc 24 a0 00 00 	lea    0xa0(%rsp),%rdi
  4025aa:	00 
  4025ab:	49 89 c6             	mov    %rax,%r14
  4025ae:	48 83 c7 08          	add    $0x8,%rdi
  4025b2:	e8 59 01 00 00       	callq  402710 <_ZN6xaxaxa9AsyncSock13SocketManager8taskInfoD1Ev>
  4025b7:	48 8d bc 24 60 01 00 	lea    0x160(%rsp),%rdi
  4025be:	00 
  4025bf:	e8 4c 01 00 00       	callq  402710 <_ZN6xaxaxa9AsyncSock13SocketManager8taskInfoD1Ev>
  4025c4:	4c 89 f7             	mov    %r14,%rdi
  4025c7:	e8 84 ec ff ff       	callq  401250 <_Unwind_Resume@plt>
  4025cc:	49 89 c6             	mov    %rax,%r14
  4025cf:	4c 89 e7             	mov    %r12,%rdi
  4025d2:	e8 09 eb ff ff       	callq  4010e0 <_ZNSsD1Ev@plt>
  4025d7:	48 8d 94 24 c0 01 00 	lea    0x1c0(%rsp),%rdx
  4025de:	00 
  4025df:	48 89 54 24 28       	mov    %rdx,0x28(%rsp)
  4025e4:	eb ab                	jmp    402591 <_ZN6xaxaxa9AsyncSock13SocketManager9BeginRecvEiNS_6BufferENS1_8CallbackE+0x711>
  4025e6:	49 89 c6             	mov    %rax,%r14
  4025e9:	48 8d 7b 08          	lea    0x8(%rbx),%rdi
  4025ed:	e8 ee ea ff ff       	callq  4010e0 <_ZNSsD1Ev@plt>
  4025f2:	48 89 df             	mov    %rbx,%rdi
  4025f5:	e8 56 ea ff ff       	callq  401050 <_ZdlPv@plt>
  4025fa:	eb d3                	jmp    4025cf <_ZN6xaxaxa9AsyncSock13SocketManager9BeginRecvEiNS_6BufferENS1_8CallbackE+0x74f>
  4025fc:	49 89 c6             	mov    %rax,%r14
  4025ff:	48 8d 84 24 c0 01 00 	lea    0x1c0(%rsp),%rax
  402606:	00 
  402607:	48 83 fa ff          	cmp    $0xffffffffffffffff,%rdx
  40260b:	48 89 44 24 28       	mov    %rax,0x28(%rsp)
  402610:	0f 85 7b ff ff ff    	jne    402591 <_ZN6xaxaxa9AsyncSock13SocketManager9BeginRecvEiNS_6BufferENS1_8CallbackE+0x711>
  402616:	e8 25 eb ff ff       	callq  401140 <_ZSt9terminatev@plt>
  40261b:	49 8d 7d 08          	lea    0x8(%r13),%rdi
  40261f:	49 89 c6             	mov    %rax,%r14
  402622:	e8 b9 ea ff ff       	callq  4010e0 <_ZNSsD1Ev@plt>
  402627:	48 89 ef             	mov    %rbp,%rdi
  40262a:	e8 b1 ea ff ff       	callq  4010e0 <_ZNSsD1Ev@plt>
  40262f:	eb b8                	jmp    4025e9 <_ZN6xaxaxa9AsyncSock13SocketManager9BeginRecvEiNS_6BufferENS1_8CallbackE+0x769>
  402631:	b8 00 00 00 00       	mov    $0x0,%eax
  402636:	48 85 c0             	test   %rax,%rax
  402639:	0f 84 90 00 00 00    	je     4026cf <_ZN6xaxaxa9AsyncSock13SocketManager9BeginRecvEiNS_6BufferENS1_8CallbackE+0x84f>
  40263f:	83 c8 ff             	or     $0xffffffffffffffff,%eax
  402642:	f0 0f c1 47 10       	lock xadd %eax,0x10(%rdi)
  402647:	85 c0                	test   %eax,%eax
  402649:	0f 8f 8b fe ff ff    	jg     4024da <_ZN6xaxaxa9AsyncSock13SocketManager9BeginRecvEiNS_6BufferENS1_8CallbackE+0x65a>
  40264f:	48 8d b4 24 4e 02 00 	lea    0x24e(%rsp),%rsi
  402656:	00 
  402657:	e8 a4 ea ff ff       	callq  401100 <_ZNSs4_Rep10_M_destroyERKSaIcE@plt>
  40265c:	e9 79 fe ff ff       	jmpq   4024da <_ZN6xaxaxa9AsyncSock13SocketManager9BeginRecvEiNS_6BufferENS1_8CallbackE+0x65a>
  402661:	b8 00 00 00 00       	mov    $0x0,%eax
  402666:	48 85 c0             	test   %rax,%rax
  402669:	0f 84 8e 00 00 00    	je     4026fd <_ZN6xaxaxa9AsyncSock13SocketManager9BeginRecvEiNS_6BufferENS1_8CallbackE+0x87d>
  40266f:	83 c8 ff             	or     $0xffffffffffffffff,%eax
  402672:	f0 0f c1 47 10       	lock xadd %eax,0x10(%rdi)
  402677:	85 c0                	test   %eax,%eax
  402679:	0f 8f 70 fe ff ff    	jg     4024ef <_ZN6xaxaxa9AsyncSock13SocketManager9BeginRecvEiNS_6BufferENS1_8CallbackE+0x66f>
  40267f:	48 8d b4 24 4d 02 00 	lea    0x24d(%rsp),%rsi
  402686:	00 
  402687:	e8 74 ea ff ff       	callq  401100 <_ZNSs4_Rep10_M_destroyERKSaIcE@plt>
  40268c:	e9 5e fe ff ff       	jmpq   4024ef <_ZN6xaxaxa9AsyncSock13SocketManager9BeginRecvEiNS_6BufferENS1_8CallbackE+0x66f>
  402691:	49 89 c6             	mov    %rax,%r14
  402694:	e9 f8 fe ff ff       	jmpq   402591 <_ZN6xaxaxa9AsyncSock13SocketManager9BeginRecvEiNS_6BufferENS1_8CallbackE+0x711>
  402699:	ba 00 00 00 00       	mov    $0x0,%edx
  40269e:	48 85 d2             	test   %rdx,%rdx
  4026a1:	74 3a                	je     4026dd <_ZN6xaxaxa9AsyncSock13SocketManager9BeginRecvEiNS_6BufferENS1_8CallbackE+0x85d>
  4026a3:	83 ca ff             	or     $0xffffffffffffffff,%edx
  4026a6:	f0 0f c1 57 10       	lock xadd %edx,0x10(%rdi)
  4026ab:	85 d2                	test   %edx,%edx
  4026ad:	0f 8f 5e fe ff ff    	jg     402511 <_ZN6xaxaxa9AsyncSock13SocketManager9BeginRecvEiNS_6BufferENS1_8CallbackE+0x691>
  4026b3:	48 8d b4 24 4c 02 00 	lea    0x24c(%rsp),%rsi
  4026ba:	00 
  4026bb:	48 89 44 24 18       	mov    %rax,0x18(%rsp)
  4026c0:	e8 3b ea ff ff       	callq  401100 <_ZNSs4_Rep10_M_destroyERKSaIcE@plt>
  4026c5:	48 8b 44 24 18       	mov    0x18(%rsp),%rax
  4026ca:	e9 42 fe ff ff       	jmpq   402511 <_ZN6xaxaxa9AsyncSock13SocketManager9BeginRecvEiNS_6BufferENS1_8CallbackE+0x691>
  4026cf:	8b 47 10             	mov    0x10(%rdi),%eax
  4026d2:	8d 50 ff             	lea    -0x1(%rax),%edx
  4026d5:	89 57 10             	mov    %edx,0x10(%rdi)
  4026d8:	e9 6a ff ff ff       	jmpq   402647 <_ZN6xaxaxa9AsyncSock13SocketManager9BeginRecvEiNS_6BufferENS1_8CallbackE+0x7c7>
  4026dd:	8b 57 10             	mov    0x10(%rdi),%edx
  4026e0:	8d 4a ff             	lea    -0x1(%rdx),%ecx
  4026e3:	89 4f 10             	mov    %ecx,0x10(%rdi)
  4026e6:	eb c3                	jmp    4026ab <_ZN6xaxaxa9AsyncSock13SocketManager9BeginRecvEiNS_6BufferENS1_8CallbackE+0x82b>
  4026e8:	49 89 c6             	mov    %rax,%r14
  4026eb:	48 8d 84 24 c0 01 00 	lea    0x1c0(%rsp),%rax
  4026f2:	00 
  4026f3:	48 89 44 24 28       	mov    %rax,0x28(%rsp)
  4026f8:	e9 94 fe ff ff       	jmpq   402591 <_ZN6xaxaxa9AsyncSock13SocketManager9BeginRecvEiNS_6BufferENS1_8CallbackE+0x711>
  4026fd:	8b 47 10             	mov    0x10(%rdi),%eax
  402700:	8d 50 ff             	lea    -0x1(%rax),%edx
  402703:	89 57 10             	mov    %edx,0x10(%rdi)
  402706:	e9 6c ff ff ff       	jmpq   402677 <_ZN6xaxaxa9AsyncSock13SocketManager9BeginRecvEiNS_6BufferENS1_8CallbackE+0x7f7>
  40270b:	90                   	nop
  40270c:	90                   	nop
  40270d:	90                   	nop
  40270e:	90                   	nop
  40270f:	90                   	nop

0000000000402710 <_ZN6xaxaxa9AsyncSock13SocketManager8taskInfoD1Ev>:
  402710:	53                   	push   %rbx
  402711:	80 7f 4c 00          	cmpb   $0x0,0x4c(%rdi)
  402715:	48 89 fb             	mov    %rdi,%rbx
  402718:	74 0e                	je     402728 <_ZN6xaxaxa9AsyncSock13SocketManager8taskInfoD1Ev+0x18>
  40271a:	48 8b 7f 40          	mov    0x40(%rdi),%rdi
  40271e:	48 85 ff             	test   %rdi,%rdi
  402721:	74 05                	je     402728 <_ZN6xaxaxa9AsyncSock13SocketManager8taskInfoD1Ev+0x18>
  402723:	e8 c8 e9 ff ff       	callq  4010f0 <free@plt>
  402728:	80 7b 3c 00          	cmpb   $0x0,0x3c(%rbx)
  40272c:	74 12                	je     402740 <_ZN6xaxaxa9AsyncSock13SocketManager8taskInfoD1Ev+0x30>
  40272e:	48 8b 7b 30          	mov    0x30(%rbx),%rdi
  402732:	48 85 ff             	test   %rdi,%rdi
  402735:	74 09                	je     402740 <_ZN6xaxaxa9AsyncSock13SocketManager8taskInfoD1Ev+0x30>
  402737:	5b                   	pop    %rbx
  402738:	e9 b3 e9 ff ff       	jmpq   4010f0 <free@plt>
  40273d:	eb 01                	jmp    402740 <_ZN6xaxaxa9AsyncSock13SocketManager8taskInfoD1Ev+0x30>
  40273f:	90                   	nop
  402740:	5b                   	pop    %rbx
  402741:	c3                   	retq   
  402742:	90                   	nop
  402743:	90                   	nop
  402744:	90                   	nop
  402745:	90                   	nop
  402746:	90                   	nop
  402747:	90                   	nop
  402748:	90                   	nop
  402749:	90                   	nop
  40274a:	90                   	nop
  40274b:	90                   	nop
  40274c:	90                   	nop
  40274d:	90                   	nop
  40274e:	90                   	nop
  40274f:	90                   	nop

0000000000402750 <_ZNSt8_Rb_treeIiSt4pairIKiN6xaxaxa9AsyncSock13SocketManager8taskInfoEESt10_Select1stIS6_ESt4lessIiESaIS6_EE10_M_insert_EPKSt18_Rb_tree_node_baseSF_RKS6_>:
  402750:	48 89 5c 24 d0       	mov    %rbx,-0x30(%rsp)
  402755:	4c 89 6c 24 e8       	mov    %r13,-0x18(%rsp)
  40275a:	48 89 fb             	mov    %rdi,%rbx
  40275d:	4c 89 74 24 f0       	mov    %r14,-0x10(%rsp)
  402762:	4c 89 7c 24 f8       	mov    %r15,-0x8(%rsp)
  402767:	49 89 d5             	mov    %rdx,%r13
  40276a:	48 89 6c 24 d8       	mov    %rbp,-0x28(%rsp)
  40276f:	4c 89 64 24 e0       	mov    %r12,-0x20(%rsp)
  402774:	48 83 ec 38          	sub    $0x38,%rsp
  402778:	48 85 f6             	test   %rsi,%rsi
  40277b:	49 89 ce             	mov    %rcx,%r14
  40277e:	4c 8d 7f 08          	lea    0x8(%rdi),%r15
  402782:	0f 84 c8 00 00 00    	je     402850 <_ZNSt8_Rb_treeIiSt4pairIKiN6xaxaxa9AsyncSock13SocketManager8taskInfoEESt10_Select1stIS6_ESt4lessIiESaIS6_EE10_M_insert_EPKSt18_Rb_tree_node_baseSF_RKS6_+0x100>
  402788:	bd 01 00 00 00       	mov    $0x1,%ebp
  40278d:	bf 80 00 00 00       	mov    $0x80,%edi
  402792:	e8 a9 ea ff ff       	callq  401240 <_Znwm@plt>
  402797:	48 83 f8 e0          	cmp    $0xffffffffffffffe0,%rax
  40279b:	49 89 c4             	mov    %rax,%r12
  40279e:	74 6b                	je     40280b <_ZNSt8_Rb_treeIiSt4pairIKiN6xaxaxa9AsyncSock13SocketManager8taskInfoEESt10_Select1stIS6_ESt4lessIiESaIS6_EE10_M_insert_EPKSt18_Rb_tree_node_baseSF_RKS6_+0xbb>
  4027a0:	49 8b 06             	mov    (%r14),%rax
  4027a3:	49 89 44 24 20       	mov    %rax,0x20(%r12)
  4027a8:	49 8b 46 08          	mov    0x8(%r14),%rax
  4027ac:	49 89 44 24 28       	mov    %rax,0x28(%r12)
  4027b1:	49 8b 46 10          	mov    0x10(%r14),%rax
  4027b5:	49 89 44 24 30       	mov    %rax,0x30(%r12)
  4027ba:	49 8b 46 18          	mov    0x18(%r14),%rax
  4027be:	49 89 44 24 38       	mov    %rax,0x38(%r12)
  4027c3:	49 8b 46 20          	mov    0x20(%r14),%rax
  4027c7:	49 89 44 24 40       	mov    %rax,0x40(%r12)
  4027cc:	49 8b 46 28          	mov    0x28(%r14),%rax
  4027d0:	49 89 44 24 48       	mov    %rax,0x48(%r12)
  4027d5:	49 8b 46 30          	mov    0x30(%r14),%rax
  4027d9:	49 89 44 24 50       	mov    %rax,0x50(%r12)
  4027de:	49 8b 46 38          	mov    0x38(%r14),%rax
  4027e2:	49 89 44 24 58       	mov    %rax,0x58(%r12)
  4027e7:	49 8b 46 40          	mov    0x40(%r14),%rax
  4027eb:	49 89 44 24 60       	mov    %rax,0x60(%r12)
  4027f0:	49 8b 46 48          	mov    0x48(%r14),%rax
  4027f4:	49 89 44 24 68       	mov    %rax,0x68(%r12)
  4027f9:	49 8b 46 50          	mov    0x50(%r14),%rax
  4027fd:	49 89 44 24 70       	mov    %rax,0x70(%r12)
  402802:	49 8b 46 58          	mov    0x58(%r14),%rax
  402806:	49 89 44 24 78       	mov    %rax,0x78(%r12)
  40280b:	4c 89 f9             	mov    %r15,%rcx
  40280e:	4c 89 ea             	mov    %r13,%rdx
  402811:	4c 89 e6             	mov    %r12,%rsi
  402814:	89 ef                	mov    %ebp,%edi
  402816:	e8 75 e9 ff ff       	callq  401190 <_ZSt29_Rb_tree_insert_and_rebalancebPSt18_Rb_tree_node_baseS0_RS_@plt>
  40281b:	48 83 43 28 01       	addq   $0x1,0x28(%rbx)
  402820:	4c 89 e0             	mov    %r12,%rax
  402823:	48 8b 5c 24 08       	mov    0x8(%rsp),%rbx
  402828:	48 8b 6c 24 10       	mov    0x10(%rsp),%rbp
  40282d:	4c 8b 64 24 18       	mov    0x18(%rsp),%r12
  402832:	4c 8b 6c 24 20       	mov    0x20(%rsp),%r13
  402837:	4c 8b 74 24 28       	mov    0x28(%rsp),%r14
  40283c:	4c 8b 7c 24 30       	mov    0x30(%rsp),%r15
  402841:	48 83 c4 38          	add    $0x38,%rsp
  402845:	c3                   	retq   
  402846:	eb 08                	jmp    402850 <_ZNSt8_Rb_treeIiSt4pairIKiN6xaxaxa9AsyncSock13SocketManager8taskInfoEESt10_Select1stIS6_ESt4lessIiESaIS6_EE10_M_insert_EPKSt18_Rb_tree_node_baseSF_RKS6_+0x100>
  402848:	90                   	nop
  402849:	90                   	nop
  40284a:	90                   	nop
  40284b:	90                   	nop
  40284c:	90                   	nop
  40284d:	90                   	nop
  40284e:	90                   	nop
  40284f:	90                   	nop
  402850:	49 39 d7             	cmp    %rdx,%r15
  402853:	0f 84 2f ff ff ff    	je     402788 <_ZNSt8_Rb_treeIiSt4pairIKiN6xaxaxa9AsyncSock13SocketManager8taskInfoEESt10_Select1stIS6_ESt4lessIiESaIS6_EE10_M_insert_EPKSt18_Rb_tree_node_baseSF_RKS6_+0x38>
  402859:	31 ed                	xor    %ebp,%ebp
  40285b:	8b 01                	mov    (%rcx),%eax
  40285d:	3b 42 20             	cmp    0x20(%rdx),%eax
  402860:	40 0f 9c c5          	setl   %bpl
  402864:	e9 24 ff ff ff       	jmpq   40278d <_ZNSt8_Rb_treeIiSt4pairIKiN6xaxaxa9AsyncSock13SocketManager8taskInfoEESt10_Select1stIS6_ESt4lessIiESaIS6_EE10_M_insert_EPKSt18_Rb_tree_node_baseSF_RKS6_+0x3d>
  402869:	90                   	nop
  40286a:	90                   	nop
  40286b:	90                   	nop
  40286c:	90                   	nop
  40286d:	90                   	nop
  40286e:	90                   	nop
  40286f:	90                   	nop

0000000000402870 <_ZNSt8_Rb_treeIiSt4pairIKiN6xaxaxa9AsyncSock13SocketManager8taskInfoEESt10_Select1stIS6_ESt4lessIiESaIS6_EE8_M_eraseEPSt13_Rb_tree_nodeIS6_E>:
  402870:	41 57                	push   %r15
  402872:	41 56                	push   %r14
  402874:	49 89 f6             	mov    %rsi,%r14
  402877:	41 55                	push   %r13
  402879:	41 54                	push   %r12
  40287b:	55                   	push   %rbp
  40287c:	48 89 fd             	mov    %rdi,%rbp
  40287f:	53                   	push   %rbx
  402880:	48 83 ec 38          	sub    $0x38,%rsp
  402884:	4d 85 f6             	test   %r14,%r14
  402887:	0f 84 2a 03 00 00    	je     402bb7 <_ZNSt8_Rb_treeIiSt4pairIKiN6xaxaxa9AsyncSock13SocketManager8taskInfoEESt10_Select1stIS6_ESt4lessIiESaIS6_EE8_M_eraseEPSt13_Rb_tree_nodeIS6_E+0x347>
  40288d:	4d 8b 7e 18          	mov    0x18(%r14),%r15
  402891:	4d 85 ff             	test   %r15,%r15
  402894:	0f 84 dd 02 00 00    	je     402b77 <_ZNSt8_Rb_treeIiSt4pairIKiN6xaxaxa9AsyncSock13SocketManager8taskInfoEESt10_Select1stIS6_ESt4lessIiESaIS6_EE8_M_eraseEPSt13_Rb_tree_nodeIS6_E+0x307>
  40289a:	49 8b 47 18          	mov    0x18(%r15),%rax
  40289e:	48 89 44 24 28       	mov    %rax,0x28(%rsp)
  4028a3:	48 83 7c 24 28 00    	cmpq   $0x0,0x28(%rsp)
  4028a9:	0f 84 89 02 00 00    	je     402b38 <_ZNSt8_Rb_treeIiSt4pairIKiN6xaxaxa9AsyncSock13SocketManager8taskInfoEESt10_Select1stIS6_ESt4lessIiESaIS6_EE8_M_eraseEPSt13_Rb_tree_nodeIS6_E+0x2c8>
  4028af:	48 8b 44 24 28       	mov    0x28(%rsp),%rax
  4028b4:	48 8b 40 18          	mov    0x18(%rax),%rax
  4028b8:	48 89 44 24 20       	mov    %rax,0x20(%rsp)
  4028bd:	48 83 7c 24 20 00    	cmpq   $0x0,0x20(%rsp)
  4028c3:	0f 84 25 02 00 00    	je     402aee <_ZNSt8_Rb_treeIiSt4pairIKiN6xaxaxa9AsyncSock13SocketManager8taskInfoEESt10_Select1stIS6_ESt4lessIiESaIS6_EE8_M_eraseEPSt13_Rb_tree_nodeIS6_E+0x27e>
  4028c9:	48 8b 44 24 20       	mov    0x20(%rsp),%rax
  4028ce:	48 8b 40 18          	mov    0x18(%rax),%rax
  4028d2:	48 89 44 24 18       	mov    %rax,0x18(%rsp)
  4028d7:	48 83 7c 24 18 00    	cmpq   $0x0,0x18(%rsp)
  4028dd:	0f 84 c1 01 00 00    	je     402aa4 <_ZNSt8_Rb_treeIiSt4pairIKiN6xaxaxa9AsyncSock13SocketManager8taskInfoEESt10_Select1stIS6_ESt4lessIiESaIS6_EE8_M_eraseEPSt13_Rb_tree_nodeIS6_E+0x234>
  4028e3:	48 8b 44 24 18       	mov    0x18(%rsp),%rax
  4028e8:	48 8b 40 18          	mov    0x18(%rax),%rax
  4028ec:	48 89 44 24 10       	mov    %rax,0x10(%rsp)
  4028f1:	48 83 7c 24 10 00    	cmpq   $0x0,0x10(%rsp)
  4028f7:	0f 84 5d 01 00 00    	je     402a5a <_ZNSt8_Rb_treeIiSt4pairIKiN6xaxaxa9AsyncSock13SocketManager8taskInfoEESt10_Select1stIS6_ESt4lessIiESaIS6_EE8_M_eraseEPSt13_Rb_tree_nodeIS6_E+0x1ea>
  4028fd:	48 8b 44 24 10       	mov    0x10(%rsp),%rax
  402902:	4c 8b 68 18          	mov    0x18(%rax),%r13
  402906:	4d 85 ed             	test   %r13,%r13
  402909:	0f 84 01 01 00 00    	je     402a10 <_ZNSt8_Rb_treeIiSt4pairIKiN6xaxaxa9AsyncSock13SocketManager8taskInfoEESt10_Select1stIS6_ESt4lessIiESaIS6_EE8_M_eraseEPSt13_Rb_tree_nodeIS6_E+0x1a0>
  40290f:	4d 8b 65 18          	mov    0x18(%r13),%r12
  402913:	4d 85 e4             	test   %r12,%r12
  402916:	0f 84 b1 00 00 00    	je     4029cd <_ZNSt8_Rb_treeIiSt4pairIKiN6xaxaxa9AsyncSock13SocketManager8taskInfoEESt10_Select1stIS6_ESt4lessIiESaIS6_EE8_M_eraseEPSt13_Rb_tree_nodeIS6_E+0x15d>
  40291c:	eb 02                	jmp    402920 <_ZNSt8_Rb_treeIiSt4pairIKiN6xaxaxa9AsyncSock13SocketManager8taskInfoEESt10_Select1stIS6_ESt4lessIiESaIS6_EE8_M_eraseEPSt13_Rb_tree_nodeIS6_E+0xb0>
  40291e:	90                   	nop
  40291f:	90                   	nop
  402920:	49 8b 5c 24 18       	mov    0x18(%r12),%rbx
  402925:	48 85 db             	test   %rbx,%rbx
  402928:	75 0b                	jne    402935 <_ZNSt8_Rb_treeIiSt4pairIKiN6xaxaxa9AsyncSock13SocketManager8taskInfoEESt10_Select1stIS6_ESt4lessIiESaIS6_EE8_M_eraseEPSt13_Rb_tree_nodeIS6_E+0xc5>
  40292a:	eb 59                	jmp    402985 <_ZNSt8_Rb_treeIiSt4pairIKiN6xaxaxa9AsyncSock13SocketManager8taskInfoEESt10_Select1stIS6_ESt4lessIiESaIS6_EE8_M_eraseEPSt13_Rb_tree_nodeIS6_E+0x115>
  40292c:	eb 02                	jmp    402930 <_ZNSt8_Rb_treeIiSt4pairIKiN6xaxaxa9AsyncSock13SocketManager8taskInfoEESt10_Select1stIS6_ESt4lessIiESaIS6_EE8_M_eraseEPSt13_Rb_tree_nodeIS6_E+0xc0>
  40292e:	90                   	nop
  40292f:	90                   	nop
  402930:	48 8b 5c 24 08       	mov    0x8(%rsp),%rbx
  402935:	48 8b 73 18          	mov    0x18(%rbx),%rsi
  402939:	48 89 ef             	mov    %rbp,%rdi
  40293c:	e8 2f ff ff ff       	callq  402870 <_ZNSt8_Rb_treeIiSt4pairIKiN6xaxaxa9AsyncSock13SocketManager8taskInfoEESt10_Select1stIS6_ESt4lessIiESaIS6_EE8_M_eraseEPSt13_Rb_tree_nodeIS6_E>
  402941:	80 7b 74 00          	cmpb   $0x0,0x74(%rbx)
  402945:	48 8b 43 10          	mov    0x10(%rbx),%rax
  402949:	48 89 44 24 08       	mov    %rax,0x8(%rsp)
  40294e:	74 0e                	je     40295e <_ZNSt8_Rb_treeIiSt4pairIKiN6xaxaxa9AsyncSock13SocketManager8taskInfoEESt10_Select1stIS6_ESt4lessIiESaIS6_EE8_M_eraseEPSt13_Rb_tree_nodeIS6_E+0xee>
  402950:	48 8b 7b 68          	mov    0x68(%rbx),%rdi
  402954:	48 85 ff             	test   %rdi,%rdi
  402957:	74 05                	je     40295e <_ZNSt8_Rb_treeIiSt4pairIKiN6xaxaxa9AsyncSock13SocketManager8taskInfoEESt10_Select1stIS6_ESt4lessIiESaIS6_EE8_M_eraseEPSt13_Rb_tree_nodeIS6_E+0xee>
  402959:	e8 92 e7 ff ff       	callq  4010f0 <free@plt>
  40295e:	80 7b 64 00          	cmpb   $0x0,0x64(%rbx)
  402962:	74 11                	je     402975 <_ZNSt8_Rb_treeIiSt4pairIKiN6xaxaxa9AsyncSock13SocketManager8taskInfoEESt10_Select1stIS6_ESt4lessIiESaIS6_EE8_M_eraseEPSt13_Rb_tree_nodeIS6_E+0x105>
  402964:	48 8b 7b 58          	mov    0x58(%rbx),%rdi
  402968:	48 85 ff             	test   %rdi,%rdi
  40296b:	74 08                	je     402975 <_ZNSt8_Rb_treeIiSt4pairIKiN6xaxaxa9AsyncSock13SocketManager8taskInfoEESt10_Select1stIS6_ESt4lessIiESaIS6_EE8_M_eraseEPSt13_Rb_tree_nodeIS6_E+0x105>
  40296d:	eb 01                	jmp    402970 <_ZNSt8_Rb_treeIiSt4pairIKiN6xaxaxa9AsyncSock13SocketManager8taskInfoEESt10_Select1stIS6_ESt4lessIiESaIS6_EE8_M_eraseEPSt13_Rb_tree_nodeIS6_E+0x100>
  40296f:	90                   	nop
  402970:	e8 7b e7 ff ff       	callq  4010f0 <free@plt>
  402975:	48 89 df             	mov    %rbx,%rdi
  402978:	e8 d3 e6 ff ff       	callq  401050 <_ZdlPv@plt>
  40297d:	48 83 7c 24 08 00    	cmpq   $0x0,0x8(%rsp)
  402983:	75 ab                	jne    402930 <_ZNSt8_Rb_treeIiSt4pairIKiN6xaxaxa9AsyncSock13SocketManager8taskInfoEESt10_Select1stIS6_ESt4lessIiESaIS6_EE8_M_eraseEPSt13_Rb_tree_nodeIS6_E+0xc0>
  402985:	41 80 7c 24 74 00    	cmpb   $0x0,0x74(%r12)
  40298b:	49 8b 5c 24 10       	mov    0x10(%r12),%rbx
  402990:	74 0f                	je     4029a1 <_ZNSt8_Rb_treeIiSt4pairIKiN6xaxaxa9AsyncSock13SocketManager8taskInfoEESt10_Select1stIS6_ESt4lessIiESaIS6_EE8_M_eraseEPSt13_Rb_tree_nodeIS6_E+0x131>
  402992:	49 8b 7c 24 68       	mov    0x68(%r12),%rdi
  402997:	48 85 ff             	test   %rdi,%rdi
  40299a:	74 05                	je     4029a1 <_ZNSt8_Rb_treeIiSt4pairIKiN6xaxaxa9AsyncSock13SocketManager8taskInfoEESt10_Select1stIS6_ESt4lessIiESaIS6_EE8_M_eraseEPSt13_Rb_tree_nodeIS6_E+0x131>
  40299c:	e8 4f e7 ff ff       	callq  4010f0 <free@plt>
  4029a1:	41 80 7c 24 64 00    	cmpb   $0x0,0x64(%r12)
  4029a7:	74 0f                	je     4029b8 <_ZNSt8_Rb_treeIiSt4pairIKiN6xaxaxa9AsyncSock13SocketManager8taskInfoEESt10_Select1stIS6_ESt4lessIiESaIS6_EE8_M_eraseEPSt13_Rb_tree_nodeIS6_E+0x148>
  4029a9:	49 8b 7c 24 58       	mov    0x58(%r12),%rdi
  4029ae:	48 85 ff             	test   %rdi,%rdi
  4029b1:	74 05                	je     4029b8 <_ZNSt8_Rb_treeIiSt4pairIKiN6xaxaxa9AsyncSock13SocketManager8taskInfoEESt10_Select1stIS6_ESt4lessIiESaIS6_EE8_M_eraseEPSt13_Rb_tree_nodeIS6_E+0x148>
  4029b3:	e8 38 e7 ff ff       	callq  4010f0 <free@plt>
  4029b8:	4c 89 e7             	mov    %r12,%rdi
  4029bb:	e8 90 e6 ff ff       	callq  401050 <_ZdlPv@plt>
  4029c0:	48 85 db             	test   %rbx,%rbx
  4029c3:	74 08                	je     4029cd <_ZNSt8_Rb_treeIiSt4pairIKiN6xaxaxa9AsyncSock13SocketManager8taskInfoEESt10_Select1stIS6_ESt4lessIiESaIS6_EE8_M_eraseEPSt13_Rb_tree_nodeIS6_E+0x15d>
  4029c5:	49 89 dc             	mov    %rbx,%r12
  4029c8:	e9 53 ff ff ff       	jmpq   402920 <_ZNSt8_Rb_treeIiSt4pairIKiN6xaxaxa9AsyncSock13SocketManager8taskInfoEESt10_Select1stIS6_ESt4lessIiESaIS6_EE8_M_eraseEPSt13_Rb_tree_nodeIS6_E+0xb0>
  4029cd:	41 80 7d 74 00       	cmpb   $0x0,0x74(%r13)
  4029d2:	49 8b 5d 10          	mov    0x10(%r13),%rbx
  4029d6:	74 0e                	je     4029e6 <_ZNSt8_Rb_treeIiSt4pairIKiN6xaxaxa9AsyncSock13SocketManager8taskInfoEESt10_Select1stIS6_ESt4lessIiESaIS6_EE8_M_eraseEPSt13_Rb_tree_nodeIS6_E+0x176>
  4029d8:	49 8b 7d 68          	mov    0x68(%r13),%rdi
  4029dc:	48 85 ff             	test   %rdi,%rdi
  4029df:	74 05                	je     4029e6 <_ZNSt8_Rb_treeIiSt4pairIKiN6xaxaxa9AsyncSock13SocketManager8taskInfoEESt10_Select1stIS6_ESt4lessIiESaIS6_EE8_M_eraseEPSt13_Rb_tree_nodeIS6_E+0x176>
  4029e1:	e8 0a e7 ff ff       	callq  4010f0 <free@plt>
  4029e6:	41 80 7d 64 00       	cmpb   $0x0,0x64(%r13)
  4029eb:	74 0e                	je     4029fb <_ZNSt8_Rb_treeIiSt4pairIKiN6xaxaxa9AsyncSock13SocketManager8taskInfoEESt10_Select1stIS6_ESt4lessIiESaIS6_EE8_M_eraseEPSt13_Rb_tree_nodeIS6_E+0x18b>
  4029ed:	49 8b 7d 58          	mov    0x58(%r13),%rdi
  4029f1:	48 85 ff             	test   %rdi,%rdi
  4029f4:	74 05                	je     4029fb <_ZNSt8_Rb_treeIiSt4pairIKiN6xaxaxa9AsyncSock13SocketManager8taskInfoEESt10_Select1stIS6_ESt4lessIiESaIS6_EE8_M_eraseEPSt13_Rb_tree_nodeIS6_E+0x18b>
  4029f6:	e8 f5 e6 ff ff       	callq  4010f0 <free@plt>
  4029fb:	4c 89 ef             	mov    %r13,%rdi
  4029fe:	e8 4d e6 ff ff       	callq  401050 <_ZdlPv@plt>
  402a03:	48 85 db             	test   %rbx,%rbx
  402a06:	74 08                	je     402a10 <_ZNSt8_Rb_treeIiSt4pairIKiN6xaxaxa9AsyncSock13SocketManager8taskInfoEESt10_Select1stIS6_ESt4lessIiESaIS6_EE8_M_eraseEPSt13_Rb_tree_nodeIS6_E+0x1a0>
  402a08:	49 89 dd             	mov    %rbx,%r13
  402a0b:	e9 ff fe ff ff       	jmpq   40290f <_ZNSt8_Rb_treeIiSt4pairIKiN6xaxaxa9AsyncSock13SocketManager8taskInfoEESt10_Select1stIS6_ESt4lessIiESaIS6_EE8_M_eraseEPSt13_Rb_tree_nodeIS6_E+0x9f>
  402a10:	48 8b 44 24 10       	mov    0x10(%rsp),%rax
  402a15:	80 78 74 00          	cmpb   $0x0,0x74(%rax)
  402a19:	48 8b 58 10          	mov    0x10(%rax),%rbx
  402a1d:	74 0e                	je     402a2d <_ZNSt8_Rb_treeIiSt4pairIKiN6xaxaxa9AsyncSock13SocketManager8taskInfoEESt10_Select1stIS6_ESt4lessIiESaIS6_EE8_M_eraseEPSt13_Rb_tree_nodeIS6_E+0x1bd>
  402a1f:	48 8b 78 68          	mov    0x68(%rax),%rdi
  402a23:	48 85 ff             	test   %rdi,%rdi
  402a26:	74 05                	je     402a2d <_ZNSt8_Rb_treeIiSt4pairIKiN6xaxaxa9AsyncSock13SocketManager8taskInfoEESt10_Select1stIS6_ESt4lessIiESaIS6_EE8_M_eraseEPSt13_Rb_tree_nodeIS6_E+0x1bd>
  402a28:	e8 c3 e6 ff ff       	callq  4010f0 <free@plt>
  402a2d:	48 8b 44 24 10       	mov    0x10(%rsp),%rax
  402a32:	80 78 64 00          	cmpb   $0x0,0x64(%rax)
  402a36:	74 0e                	je     402a46 <_ZNSt8_Rb_treeIiSt4pairIKiN6xaxaxa9AsyncSock13SocketManager8taskInfoEESt10_Select1stIS6_ESt4lessIiESaIS6_EE8_M_eraseEPSt13_Rb_tree_nodeIS6_E+0x1d6>
  402a38:	48 8b 78 58          	mov    0x58(%rax),%rdi
  402a3c:	48 85 ff             	test   %rdi,%rdi
  402a3f:	74 05                	je     402a46 <_ZNSt8_Rb_treeIiSt4pairIKiN6xaxaxa9AsyncSock13SocketManager8taskInfoEESt10_Select1stIS6_ESt4lessIiESaIS6_EE8_M_eraseEPSt13_Rb_tree_nodeIS6_E+0x1d6>
  402a41:	e8 aa e6 ff ff       	callq  4010f0 <free@plt>
  402a46:	48 8b 7c 24 10       	mov    0x10(%rsp),%rdi
  402a4b:	e8 00 e6 ff ff       	callq  401050 <_ZdlPv@plt>
  402a50:	48 89 5c 24 10       	mov    %rbx,0x10(%rsp)
  402a55:	e9 97 fe ff ff       	jmpq   4028f1 <_ZNSt8_Rb_treeIiSt4pairIKiN6xaxaxa9AsyncSock13SocketManager8taskInfoEESt10_Select1stIS6_ESt4lessIiESaIS6_EE8_M_eraseEPSt13_Rb_tree_nodeIS6_E+0x81>
  402a5a:	48 8b 44 24 18       	mov    0x18(%rsp),%rax
  402a5f:	80 78 74 00          	cmpb   $0x0,0x74(%rax)
  402a63:	48 8b 58 10          	mov    0x10(%rax),%rbx
  402a67:	74 0e                	je     402a77 <_ZNSt8_Rb_treeIiSt4pairIKiN6xaxaxa9AsyncSock13SocketManager8taskInfoEESt10_Select1stIS6_ESt4lessIiESaIS6_EE8_M_eraseEPSt13_Rb_tree_nodeIS6_E+0x207>
  402a69:	48 8b 78 68          	mov    0x68(%rax),%rdi
  402a6d:	48 85 ff             	test   %rdi,%rdi
  402a70:	74 05                	je     402a77 <_ZNSt8_Rb_treeIiSt4pairIKiN6xaxaxa9AsyncSock13SocketManager8taskInfoEESt10_Select1stIS6_ESt4lessIiESaIS6_EE8_M_eraseEPSt13_Rb_tree_nodeIS6_E+0x207>
  402a72:	e8 79 e6 ff ff       	callq  4010f0 <free@plt>
  402a77:	48 8b 44 24 18       	mov    0x18(%rsp),%rax
  402a7c:	80 78 64 00          	cmpb   $0x0,0x64(%rax)
  402a80:	74 0e                	je     402a90 <_ZNSt8_Rb_treeIiSt4pairIKiN6xaxaxa9AsyncSock13SocketManager8taskInfoEESt10_Select1stIS6_ESt4lessIiESaIS6_EE8_M_eraseEPSt13_Rb_tree_nodeIS6_E+0x220>
  402a82:	48 8b 78 58          	mov    0x58(%rax),%rdi
  402a86:	48 85 ff             	test   %rdi,%rdi
  402a89:	74 05                	je     402a90 <_ZNSt8_Rb_treeIiSt4pairIKiN6xaxaxa9AsyncSock13SocketManager8taskInfoEESt10_Select1stIS6_ESt4lessIiESaIS6_EE8_M_eraseEPSt13_Rb_tree_nodeIS6_E+0x220>
  402a8b:	e8 60 e6 ff ff       	callq  4010f0 <free@plt>
  402a90:	48 8b 7c 24 18       	mov    0x18(%rsp),%rdi
  402a95:	e8 b6 e5 ff ff       	callq  401050 <_ZdlPv@plt>
  402a9a:	48 89 5c 24 18       	mov    %rbx,0x18(%rsp)
  402a9f:	e9 33 fe ff ff       	jmpq   4028d7 <_ZNSt8_Rb_treeIiSt4pairIKiN6xaxaxa9AsyncSock13SocketManager8taskInfoEESt10_Select1stIS6_ESt4lessIiESaIS6_EE8_M_eraseEPSt13_Rb_tree_nodeIS6_E+0x67>
  402aa4:	48 8b 44 24 20       	mov    0x20(%rsp),%rax
  402aa9:	80 78 74 00          	cmpb   $0x0,0x74(%rax)
  402aad:	48 8b 58 10          	mov    0x10(%rax),%rbx
  402ab1:	74 0e                	je     402ac1 <_ZNSt8_Rb_treeIiSt4pairIKiN6xaxaxa9AsyncSock13SocketManager8taskInfoEESt10_Select1stIS6_ESt4lessIiESaIS6_EE8_M_eraseEPSt13_Rb_tree_nodeIS6_E+0x251>
  402ab3:	48 8b 78 68          	mov    0x68(%rax),%rdi
  402ab7:	48 85 ff             	test   %rdi,%rdi
  402aba:	74 05                	je     402ac1 <_ZNSt8_Rb_treeIiSt4pairIKiN6xaxaxa9AsyncSock13SocketManager8taskInfoEESt10_Select1stIS6_ESt4lessIiESaIS6_EE8_M_eraseEPSt13_Rb_tree_nodeIS6_E+0x251>
  402abc:	e8 2f e6 ff ff       	callq  4010f0 <free@plt>
  402ac1:	48 8b 44 24 20       	mov    0x20(%rsp),%rax
  402ac6:	80 78 64 00          	cmpb   $0x0,0x64(%rax)
  402aca:	74 0e                	je     402ada <_ZNSt8_Rb_treeIiSt4pairIKiN6xaxaxa9AsyncSock13SocketManager8taskInfoEESt10_Select1stIS6_ESt4lessIiESaIS6_EE8_M_eraseEPSt13_Rb_tree_nodeIS6_E+0x26a>
  402acc:	48 8b 78 58          	mov    0x58(%rax),%rdi
  402ad0:	48 85 ff             	test   %rdi,%rdi
  402ad3:	74 05                	je     402ada <_ZNSt8_Rb_treeIiSt4pairIKiN6xaxaxa9AsyncSock13SocketManager8taskInfoEESt10_Select1stIS6_ESt4lessIiESaIS6_EE8_M_eraseEPSt13_Rb_tree_nodeIS6_E+0x26a>
  402ad5:	e8 16 e6 ff ff       	callq  4010f0 <free@plt>
  402ada:	48 8b 7c 24 20       	mov    0x20(%rsp),%rdi
  402adf:	e8 6c e5 ff ff       	callq  401050 <_ZdlPv@plt>
  402ae4:	48 89 5c 24 20       	mov    %rbx,0x20(%rsp)
  402ae9:	e9 cf fd ff ff       	jmpq   4028bd <_ZNSt8_Rb_treeIiSt4pairIKiN6xaxaxa9AsyncSock13SocketManager8taskInfoEESt10_Select1stIS6_ESt4lessIiESaIS6_EE8_M_eraseEPSt13_Rb_tree_nodeIS6_E+0x4d>
  402aee:	48 8b 44 24 28       	mov    0x28(%rsp),%rax
  402af3:	80 78 74 00          	cmpb   $0x0,0x74(%rax)
  402af7:	48 8b 58 10          	mov    0x10(%rax),%rbx
  402afb:	74 0e                	je     402b0b <_ZNSt8_Rb_treeIiSt4pairIKiN6xaxaxa9AsyncSock13SocketManager8taskInfoEESt10_Select1stIS6_ESt4lessIiESaIS6_EE8_M_eraseEPSt13_Rb_tree_nodeIS6_E+0x29b>
  402afd:	48 8b 78 68          	mov    0x68(%rax),%rdi
  402b01:	48 85 ff             	test   %rdi,%rdi
  402b04:	74 05                	je     402b0b <_ZNSt8_Rb_treeIiSt4pairIKiN6xaxaxa9AsyncSock13SocketManager8taskInfoEESt10_Select1stIS6_ESt4lessIiESaIS6_EE8_M_eraseEPSt13_Rb_tree_nodeIS6_E+0x29b>
  402b06:	e8 e5 e5 ff ff       	callq  4010f0 <free@plt>
  402b0b:	48 8b 44 24 28       	mov    0x28(%rsp),%rax
  402b10:	80 78 64 00          	cmpb   $0x0,0x64(%rax)
  402b14:	74 0e                	je     402b24 <_ZNSt8_Rb_treeIiSt4pairIKiN6xaxaxa9AsyncSock13SocketManager8taskInfoEESt10_Select1stIS6_ESt4lessIiESaIS6_EE8_M_eraseEPSt13_Rb_tree_nodeIS6_E+0x2b4>
  402b16:	48 8b 78 58          	mov    0x58(%rax),%rdi
  402b1a:	48 85 ff             	test   %rdi,%rdi
  402b1d:	74 05                	je     402b24 <_ZNSt8_Rb_treeIiSt4pairIKiN6xaxaxa9AsyncSock13SocketManager8taskInfoEESt10_Select1stIS6_ESt4lessIiESaIS6_EE8_M_eraseEPSt13_Rb_tree_nodeIS6_E+0x2b4>
  402b1f:	e8 cc e5 ff ff       	callq  4010f0 <free@plt>
  402b24:	48 8b 7c 24 28       	mov    0x28(%rsp),%rdi
  402b29:	e8 22 e5 ff ff       	callq  401050 <_ZdlPv@plt>
  402b2e:	48 89 5c 24 28       	mov    %rbx,0x28(%rsp)
  402b33:	e9 6b fd ff ff       	jmpq   4028a3 <_ZNSt8_Rb_treeIiSt4pairIKiN6xaxaxa9AsyncSock13SocketManager8taskInfoEESt10_Select1stIS6_ESt4lessIiESaIS6_EE8_M_eraseEPSt13_Rb_tree_nodeIS6_E+0x33>
  402b38:	41 80 7f 74 00       	cmpb   $0x0,0x74(%r15)
  402b3d:	49 8b 5f 10          	mov    0x10(%r15),%rbx
  402b41:	74 0e                	je     402b51 <_ZNSt8_Rb_treeIiSt4pairIKiN6xaxaxa9AsyncSock13SocketManager8taskInfoEESt10_Select1stIS6_ESt4lessIiESaIS6_EE8_M_eraseEPSt13_Rb_tree_nodeIS6_E+0x2e1>
  402b43:	49 8b 7f 68          	mov    0x68(%r15),%rdi
  402b47:	48 85 ff             	test   %rdi,%rdi
  402b4a:	74 05                	je     402b51 <_ZNSt8_Rb_treeIiSt4pairIKiN6xaxaxa9AsyncSock13SocketManager8taskInfoEESt10_Select1stIS6_ESt4lessIiESaIS6_EE8_M_eraseEPSt13_Rb_tree_nodeIS6_E+0x2e1>
  402b4c:	e8 9f e5 ff ff       	callq  4010f0 <free@plt>
  402b51:	41 80 7f 64 00       	cmpb   $0x0,0x64(%r15)
  402b56:	74 0f                	je     402b67 <_ZNSt8_Rb_treeIiSt4pairIKiN6xaxaxa9AsyncSock13SocketManager8taskInfoEESt10_Select1stIS6_ESt4lessIiESaIS6_EE8_M_eraseEPSt13_Rb_tree_nodeIS6_E+0x2f7>
  402b58:	49 8b 7f 58          	mov    0x58(%r15),%rdi
  402b5c:	48 85 ff             	test   %rdi,%rdi
  402b5f:	90                   	nop
  402b60:	74 05                	je     402b67 <_ZNSt8_Rb_treeIiSt4pairIKiN6xaxaxa9AsyncSock13SocketManager8taskInfoEESt10_Select1stIS6_ESt4lessIiESaIS6_EE8_M_eraseEPSt13_Rb_tree_nodeIS6_E+0x2f7>
  402b62:	e8 89 e5 ff ff       	callq  4010f0 <free@plt>
  402b67:	4c 89 ff             	mov    %r15,%rdi
  402b6a:	49 89 df             	mov    %rbx,%r15
  402b6d:	e8 de e4 ff ff       	callq  401050 <_ZdlPv@plt>
  402b72:	e9 1a fd ff ff       	jmpq   402891 <_ZNSt8_Rb_treeIiSt4pairIKiN6xaxaxa9AsyncSock13SocketManager8taskInfoEESt10_Select1stIS6_ESt4lessIiESaIS6_EE8_M_eraseEPSt13_Rb_tree_nodeIS6_E+0x21>
  402b77:	41 80 7e 74 00       	cmpb   $0x0,0x74(%r14)
  402b7c:	49 8b 5e 10          	mov    0x10(%r14),%rbx
  402b80:	74 0e                	je     402b90 <_ZNSt8_Rb_treeIiSt4pairIKiN6xaxaxa9AsyncSock13SocketManager8taskInfoEESt10_Select1stIS6_ESt4lessIiESaIS6_EE8_M_eraseEPSt13_Rb_tree_nodeIS6_E+0x320>
  402b82:	49 8b 7e 68          	mov    0x68(%r14),%rdi
  402b86:	48 85 ff             	test   %rdi,%rdi
  402b89:	74 05                	je     402b90 <_ZNSt8_Rb_treeIiSt4pairIKiN6xaxaxa9AsyncSock13SocketManager8taskInfoEESt10_Select1stIS6_ESt4lessIiESaIS6_EE8_M_eraseEPSt13_Rb_tree_nodeIS6_E+0x320>
  402b8b:	e8 60 e5 ff ff       	callq  4010f0 <free@plt>
  402b90:	41 80 7e 64 00       	cmpb   $0x0,0x64(%r14)
  402b95:	74 10                	je     402ba7 <_ZNSt8_Rb_treeIiSt4pairIKiN6xaxaxa9AsyncSock13SocketManager8taskInfoEESt10_Select1stIS6_ESt4lessIiESaIS6_EE8_M_eraseEPSt13_Rb_tree_nodeIS6_E+0x337>
  402b97:	49 8b 7e 58          	mov    0x58(%r14),%rdi
  402b9b:	48 85 ff             	test   %rdi,%rdi
  402b9e:	66 90                	xchg   %ax,%ax
  402ba0:	74 05                	je     402ba7 <_ZNSt8_Rb_treeIiSt4pairIKiN6xaxaxa9AsyncSock13SocketManager8taskInfoEESt10_Select1stIS6_ESt4lessIiESaIS6_EE8_M_eraseEPSt13_Rb_tree_nodeIS6_E+0x337>
  402ba2:	e8 49 e5 ff ff       	callq  4010f0 <free@plt>
  402ba7:	4c 89 f7             	mov    %r14,%rdi
  402baa:	49 89 de             	mov    %rbx,%r14
  402bad:	e8 9e e4 ff ff       	callq  401050 <_ZdlPv@plt>
  402bb2:	e9 cd fc ff ff       	jmpq   402884 <_ZNSt8_Rb_treeIiSt4pairIKiN6xaxaxa9AsyncSock13SocketManager8taskInfoEESt10_Select1stIS6_ESt4lessIiESaIS6_EE8_M_eraseEPSt13_Rb_tree_nodeIS6_E+0x14>
  402bb7:	48 83 c4 38          	add    $0x38,%rsp
  402bbb:	5b                   	pop    %rbx
  402bbc:	5d                   	pop    %rbp
  402bbd:	41 5c                	pop    %r12
  402bbf:	41 5d                	pop    %r13
  402bc1:	41 5e                	pop    %r14
  402bc3:	41 5f                	pop    %r15
  402bc5:	c3                   	retq   
  402bc6:	90                   	nop
  402bc7:	90                   	nop
  402bc8:	90                   	nop
  402bc9:	90                   	nop
  402bca:	90                   	nop
  402bcb:	90                   	nop
  402bcc:	90                   	nop
  402bcd:	90                   	nop
  402bce:	90                   	nop
  402bcf:	90                   	nop

0000000000402bd0 <_ZNSt8_Rb_treeIiSt4pairIKiN6xaxaxa9AsyncSock13SocketManager8taskInfoEESt10_Select1stIS6_ESt4lessIiESaIS6_EE16_M_insert_uniqueERKS6_>:
  402bd0:	41 57                	push   %r15
  402bd2:	4c 8d 7f 08          	lea    0x8(%rdi),%r15
  402bd6:	41 56                	push   %r14
  402bd8:	41 55                	push   %r13
  402bda:	49 89 f5             	mov    %rsi,%r13
  402bdd:	41 54                	push   %r12
  402bdf:	55                   	push   %rbp
  402be0:	53                   	push   %rbx
  402be1:	48 89 fb             	mov    %rdi,%rbx
  402be4:	48 83 ec 38          	sub    $0x38,%rsp
  402be8:	48 8b 57 10          	mov    0x10(%rdi),%rdx
  402bec:	48 85 d2             	test   %rdx,%rdx
  402bef:	74 57                	je     402c48 <_ZNSt8_Rb_treeIiSt4pairIKiN6xaxaxa9AsyncSock13SocketManager8taskInfoEESt10_Select1stIS6_ESt4lessIiESaIS6_EE16_M_insert_uniqueERKS6_+0x78>
  402bf1:	8b 0e                	mov    (%rsi),%ecx
  402bf3:	eb 17                	jmp    402c0c <_ZNSt8_Rb_treeIiSt4pairIKiN6xaxaxa9AsyncSock13SocketManager8taskInfoEESt10_Select1stIS6_ESt4lessIiESaIS6_EE16_M_insert_uniqueERKS6_+0x3c>
  402bf5:	eb 01                	jmp    402bf8 <_ZNSt8_Rb_treeIiSt4pairIKiN6xaxaxa9AsyncSock13SocketManager8taskInfoEESt10_Select1stIS6_ESt4lessIiESaIS6_EE16_M_insert_uniqueERKS6_+0x28>
  402bf7:	90                   	nop
  402bf8:	48 8b 42 10          	mov    0x10(%rdx),%rax
  402bfc:	49 89 d4             	mov    %rdx,%r12
  402bff:	be 01 00 00 00       	mov    $0x1,%esi
  402c04:	48 85 c0             	test   %rax,%rax
  402c07:	74 16                	je     402c1f <_ZNSt8_Rb_treeIiSt4pairIKiN6xaxaxa9AsyncSock13SocketManager8taskInfoEESt10_Select1stIS6_ESt4lessIiESaIS6_EE16_M_insert_uniqueERKS6_+0x4f>
  402c09:	48 89 c2             	mov    %rax,%rdx
  402c0c:	3b 4a 20             	cmp    0x20(%rdx),%ecx
  402c0f:	7c e7                	jl     402bf8 <_ZNSt8_Rb_treeIiSt4pairIKiN6xaxaxa9AsyncSock13SocketManager8taskInfoEESt10_Select1stIS6_ESt4lessIiESaIS6_EE16_M_insert_uniqueERKS6_+0x28>
  402c11:	48 8b 42 18          	mov    0x18(%rdx),%rax
  402c15:	31 f6                	xor    %esi,%esi
  402c17:	49 89 d4             	mov    %rdx,%r12
  402c1a:	48 85 c0             	test   %rax,%rax
  402c1d:	75 ea                	jne    402c09 <_ZNSt8_Rb_treeIiSt4pairIKiN6xaxaxa9AsyncSock13SocketManager8taskInfoEESt10_Select1stIS6_ESt4lessIiESaIS6_EE16_M_insert_uniqueERKS6_+0x39>
  402c1f:	40 84 f6             	test   %sil,%sil
  402c22:	49 89 d6             	mov    %rdx,%r14
  402c25:	48 89 d0             	mov    %rdx,%rax
  402c28:	75 26                	jne    402c50 <_ZNSt8_Rb_treeIiSt4pairIKiN6xaxaxa9AsyncSock13SocketManager8taskInfoEESt10_Select1stIS6_ESt4lessIiESaIS6_EE16_M_insert_uniqueERKS6_+0x80>
  402c2a:	31 d2                	xor    %edx,%edx
  402c2c:	3b 48 20             	cmp    0x20(%rax),%ecx
  402c2f:	7f 3c                	jg     402c6d <_ZNSt8_Rb_treeIiSt4pairIKiN6xaxaxa9AsyncSock13SocketManager8taskInfoEESt10_Select1stIS6_ESt4lessIiESaIS6_EE16_M_insert_uniqueERKS6_+0x9d>
  402c31:	88 54 24 28          	mov    %dl,0x28(%rsp)
  402c35:	8b 54 24 28          	mov    0x28(%rsp),%edx
  402c39:	48 83 c4 38          	add    $0x38,%rsp
  402c3d:	5b                   	pop    %rbx
  402c3e:	5d                   	pop    %rbp
  402c3f:	41 5c                	pop    %r12
  402c41:	41 5d                	pop    %r13
  402c43:	41 5e                	pop    %r14
  402c45:	41 5f                	pop    %r15
  402c47:	c3                   	retq   
  402c48:	4d 89 fe             	mov    %r15,%r14
  402c4b:	4d 89 fc             	mov    %r15,%r12
  402c4e:	66 90                	xchg   %ax,%ax
  402c50:	4c 3b 63 18          	cmp    0x18(%rbx),%r12
  402c54:	0f 84 c0 00 00 00    	je     402d1a <_ZNSt8_Rb_treeIiSt4pairIKiN6xaxaxa9AsyncSock13SocketManager8taskInfoEESt10_Select1stIS6_ESt4lessIiESaIS6_EE16_M_insert_uniqueERKS6_+0x14a>
  402c5a:	4c 89 e7             	mov    %r12,%rdi
  402c5d:	e8 3e e4 ff ff       	callq  4010a0 <_ZSt18_Rb_tree_decrementPSt18_Rb_tree_node_base@plt>
  402c62:	41 8b 4d 00          	mov    0x0(%r13),%ecx
  402c66:	31 d2                	xor    %edx,%edx
  402c68:	3b 48 20             	cmp    0x20(%rax),%ecx
  402c6b:	7e c4                	jle    402c31 <_ZNSt8_Rb_treeIiSt4pairIKiN6xaxaxa9AsyncSock13SocketManager8taskInfoEESt10_Select1stIS6_ESt4lessIiESaIS6_EE16_M_insert_uniqueERKS6_+0x61>
  402c6d:	4d 39 e7             	cmp    %r12,%r15
  402c70:	bd 01 00 00 00       	mov    $0x1,%ebp
  402c75:	74 0a                	je     402c81 <_ZNSt8_Rb_treeIiSt4pairIKiN6xaxaxa9AsyncSock13SocketManager8taskInfoEESt10_Select1stIS6_ESt4lessIiESaIS6_EE16_M_insert_uniqueERKS6_+0xb1>
  402c77:	31 ed                	xor    %ebp,%ebp
  402c79:	41 3b 4e 20          	cmp    0x20(%r14),%ecx
  402c7d:	40 0f 9c c5          	setl   %bpl
  402c81:	bf 80 00 00 00       	mov    $0x80,%edi
  402c86:	e8 b5 e5 ff ff       	callq  401240 <_Znwm@plt>
  402c8b:	48 83 f8 e0          	cmp    $0xffffffffffffffe0,%rax
  402c8f:	74 60                	je     402cf1 <_ZNSt8_Rb_treeIiSt4pairIKiN6xaxaxa9AsyncSock13SocketManager8taskInfoEESt10_Select1stIS6_ESt4lessIiESaIS6_EE16_M_insert_uniqueERKS6_+0x121>
  402c91:	49 8b 55 00          	mov    0x0(%r13),%rdx
  402c95:	48 89 50 20          	mov    %rdx,0x20(%rax)
  402c99:	49 8b 55 08          	mov    0x8(%r13),%rdx
  402c9d:	48 89 50 28          	mov    %rdx,0x28(%rax)
  402ca1:	49 8b 55 10          	mov    0x10(%r13),%rdx
  402ca5:	48 89 50 30          	mov    %rdx,0x30(%rax)
  402ca9:	49 8b 55 18          	mov    0x18(%r13),%rdx
  402cad:	48 89 50 38          	mov    %rdx,0x38(%rax)
  402cb1:	49 8b 55 20          	mov    0x20(%r13),%rdx
  402cb5:	48 89 50 40          	mov    %rdx,0x40(%rax)
  402cb9:	49 8b 55 28          	mov    0x28(%r13),%rdx
  402cbd:	48 89 50 48          	mov    %rdx,0x48(%rax)
  402cc1:	49 8b 55 30          	mov    0x30(%r13),%rdx
  402cc5:	48 89 50 50          	mov    %rdx,0x50(%rax)
  402cc9:	49 8b 55 38          	mov    0x38(%r13),%rdx
  402ccd:	48 89 50 58          	mov    %rdx,0x58(%rax)
  402cd1:	49 8b 55 40          	mov    0x40(%r13),%rdx
  402cd5:	48 89 50 60          	mov    %rdx,0x60(%rax)
  402cd9:	49 8b 55 48          	mov    0x48(%r13),%rdx
  402cdd:	48 89 50 68          	mov    %rdx,0x68(%rax)
  402ce1:	49 8b 55 50          	mov    0x50(%r13),%rdx
  402ce5:	48 89 50 70          	mov    %rdx,0x70(%rax)
  402ce9:	49 8b 55 58          	mov    0x58(%r13),%rdx
  402ced:	48 89 50 78          	mov    %rdx,0x78(%rax)
  402cf1:	4c 89 e2             	mov    %r12,%rdx
  402cf4:	48 89 c6             	mov    %rax,%rsi
  402cf7:	4c 89 f9             	mov    %r15,%rcx
  402cfa:	89 ef                	mov    %ebp,%edi
  402cfc:	48 89 44 24 08       	mov    %rax,0x8(%rsp)
  402d01:	e8 8a e4 ff ff       	callq  401190 <_ZSt29_Rb_tree_insert_and_rebalancebPSt18_Rb_tree_node_baseS0_RS_@plt>
  402d06:	48 83 43 28 01       	addq   $0x1,0x28(%rbx)
  402d0b:	ba 01 00 00 00       	mov    $0x1,%edx
  402d10:	48 8b 44 24 08       	mov    0x8(%rsp),%rax
  402d15:	e9 17 ff ff ff       	jmpq   402c31 <_ZNSt8_Rb_treeIiSt4pairIKiN6xaxaxa9AsyncSock13SocketManager8taskInfoEESt10_Select1stIS6_ESt4lessIiESaIS6_EE16_M_insert_uniqueERKS6_+0x61>
  402d1a:	4c 89 e2             	mov    %r12,%rdx
  402d1d:	4c 89 e9             	mov    %r13,%rcx
  402d20:	31 f6                	xor    %esi,%esi
  402d22:	48 89 df             	mov    %rbx,%rdi
  402d25:	e8 26 fa ff ff       	callq  402750 <_ZNSt8_Rb_treeIiSt4pairIKiN6xaxaxa9AsyncSock13SocketManager8taskInfoEESt10_Select1stIS6_ESt4lessIiESaIS6_EE10_M_insert_EPKSt18_Rb_tree_node_baseSF_RKS6_>
  402d2a:	ba 01 00 00 00       	mov    $0x1,%edx
  402d2f:	e9 fd fe ff ff       	jmpq   402c31 <_ZNSt8_Rb_treeIiSt4pairIKiN6xaxaxa9AsyncSock13SocketManager8taskInfoEESt10_Select1stIS6_ESt4lessIiESaIS6_EE16_M_insert_uniqueERKS6_+0x61>
  402d34:	90                   	nop
  402d35:	90                   	nop
  402d36:	90                   	nop
  402d37:	90                   	nop
  402d38:	90                   	nop
  402d39:	90                   	nop
  402d3a:	90                   	nop
  402d3b:	90                   	nop
  402d3c:	90                   	nop
  402d3d:	90                   	nop
  402d3e:	90                   	nop
  402d3f:	90                   	nop

0000000000402d40 <_ZNSt8_Rb_treeIiSt4pairIKiN6xaxaxa9AsyncSock13SocketManager8taskInfoEESt10_Select1stIS6_ESt4lessIiESaIS6_EE17_M_insert_unique_ESt23_Rb_tree_const_iteratorIS6_ERKS6_>:
  402d40:	4c 89 74 24 f8       	mov    %r14,-0x8(%rsp)
  402d45:	4c 8d 77 08          	lea    0x8(%rdi),%r14
  402d49:	48 89 5c 24 d8       	mov    %rbx,-0x28(%rsp)
  402d4e:	48 89 6c 24 e0       	mov    %rbp,-0x20(%rsp)
  402d53:	4c 89 6c 24 f0       	mov    %r13,-0x10(%rsp)
  402d58:	48 89 fb             	mov    %rdi,%rbx
  402d5b:	4c 89 64 24 e8       	mov    %r12,-0x18(%rsp)
  402d60:	48 83 ec 78          	sub    $0x78,%rsp
  402d64:	49 39 f6             	cmp    %rsi,%r14
  402d67:	48 89 f5             	mov    %rsi,%rbp
  402d6a:	49 89 d5             	mov    %rdx,%r13
  402d6d:	0f 84 f5 00 00 00    	je     402e68 <_ZNSt8_Rb_treeIiSt4pairIKiN6xaxaxa9AsyncSock13SocketManager8taskInfoEESt10_Select1stIS6_ESt4lessIiESaIS6_EE17_M_insert_unique_ESt23_Rb_tree_const_iteratorIS6_ERKS6_+0x128>
  402d73:	8b 46 20             	mov    0x20(%rsi),%eax
  402d76:	39 02                	cmp    %eax,(%rdx)
  402d78:	0f 8d c2 00 00 00    	jge    402e40 <_ZNSt8_Rb_treeIiSt4pairIKiN6xaxaxa9AsyncSock13SocketManager8taskInfoEESt10_Select1stIS6_ESt4lessIiESaIS6_EE17_M_insert_unique_ESt23_Rb_tree_const_iteratorIS6_ERKS6_+0x100>
  402d7e:	48 8b 77 18          	mov    0x18(%rdi),%rsi
  402d82:	48 39 ee             	cmp    %rbp,%rsi
  402d85:	0f 84 e5 01 00 00    	je     402f70 <_ZNSt8_Rb_treeIiSt4pairIKiN6xaxaxa9AsyncSock13SocketManager8taskInfoEESt10_Select1stIS6_ESt4lessIiESaIS6_EE17_M_insert_unique_ESt23_Rb_tree_const_iteratorIS6_ERKS6_+0x230>
  402d8b:	48 89 ef             	mov    %rbp,%rdi
  402d8e:	e8 7d e2 ff ff       	callq  401010 <_ZSt18_Rb_tree_decrementPKSt18_Rb_tree_node_base@plt>
  402d93:	8b 50 20             	mov    0x20(%rax),%edx
  402d96:	41 3b 55 00          	cmp    0x0(%r13),%edx
  402d9a:	0f 8d e0 00 00 00    	jge    402e80 <_ZNSt8_Rb_treeIiSt4pairIKiN6xaxaxa9AsyncSock13SocketManager8taskInfoEESt10_Select1stIS6_ESt4lessIiESaIS6_EE17_M_insert_unique_ESt23_Rb_tree_const_iteratorIS6_ERKS6_+0x140>
  402da0:	48 83 78 18 00       	cmpq   $0x0,0x18(%rax)
  402da5:	0f 84 ad 01 00 00    	je     402f58 <_ZNSt8_Rb_treeIiSt4pairIKiN6xaxaxa9AsyncSock13SocketManager8taskInfoEESt10_Select1stIS6_ESt4lessIiESaIS6_EE17_M_insert_unique_ESt23_Rb_tree_const_iteratorIS6_ERKS6_+0x218>
  402dab:	bf 80 00 00 00       	mov    $0x80,%edi
  402db0:	e8 8b e4 ff ff       	callq  401240 <_Znwm@plt>
  402db5:	48 83 f8 e0          	cmp    $0xffffffffffffffe0,%rax
  402db9:	74 60                	je     402e1b <_ZNSt8_Rb_treeIiSt4pairIKiN6xaxaxa9AsyncSock13SocketManager8taskInfoEESt10_Select1stIS6_ESt4lessIiESaIS6_EE17_M_insert_unique_ESt23_Rb_tree_const_iteratorIS6_ERKS6_+0xdb>
  402dbb:	49 8b 55 00          	mov    0x0(%r13),%rdx
  402dbf:	48 89 50 20          	mov    %rdx,0x20(%rax)
  402dc3:	49 8b 55 08          	mov    0x8(%r13),%rdx
  402dc7:	48 89 50 28          	mov    %rdx,0x28(%rax)
  402dcb:	49 8b 55 10          	mov    0x10(%r13),%rdx
  402dcf:	48 89 50 30          	mov    %rdx,0x30(%rax)
  402dd3:	49 8b 55 18          	mov    0x18(%r13),%rdx
  402dd7:	48 89 50 38          	mov    %rdx,0x38(%rax)
  402ddb:	49 8b 55 20          	mov    0x20(%r13),%rdx
  402ddf:	48 89 50 40          	mov    %rdx,0x40(%rax)
  402de3:	49 8b 55 28          	mov    0x28(%r13),%rdx
  402de7:	48 89 50 48          	mov    %rdx,0x48(%rax)
  402deb:	49 8b 55 30          	mov    0x30(%r13),%rdx
  402def:	48 89 50 50          	mov    %rdx,0x50(%rax)
  402df3:	49 8b 55 38          	mov    0x38(%r13),%rdx
  402df7:	48 89 50 58          	mov    %rdx,0x58(%rax)
  402dfb:	49 8b 55 40          	mov    0x40(%r13),%rdx
  402dff:	48 89 50 60          	mov    %rdx,0x60(%rax)
  402e03:	49 8b 55 48          	mov    0x48(%r13),%rdx
  402e07:	48 89 50 68          	mov    %rdx,0x68(%rax)
  402e0b:	49 8b 55 50          	mov    0x50(%r13),%rdx
  402e0f:	48 89 50 70          	mov    %rdx,0x70(%rax)
  402e13:	49 8b 55 58          	mov    0x58(%r13),%rdx
  402e17:	48 89 50 78          	mov    %rdx,0x78(%rax)
  402e1b:	4c 89 f1             	mov    %r14,%rcx
  402e1e:	48 89 ea             	mov    %rbp,%rdx
  402e21:	48 89 c6             	mov    %rax,%rsi
  402e24:	bf 01 00 00 00       	mov    $0x1,%edi
  402e29:	48 89 44 24 08       	mov    %rax,0x8(%rsp)
  402e2e:	e8 5d e3 ff ff       	callq  401190 <_ZSt29_Rb_tree_insert_and_rebalancebPSt18_Rb_tree_node_baseS0_RS_@plt>
  402e33:	48 83 43 28 01       	addq   $0x1,0x28(%rbx)
  402e38:	48 8b 44 24 08       	mov    0x8(%rsp),%rax
  402e3d:	eb 06                	jmp    402e45 <_ZNSt8_Rb_treeIiSt4pairIKiN6xaxaxa9AsyncSock13SocketManager8taskInfoEESt10_Select1stIS6_ESt4lessIiESaIS6_EE17_M_insert_unique_ESt23_Rb_tree_const_iteratorIS6_ERKS6_+0x105>
  402e3f:	90                   	nop
  402e40:	7f 4e                	jg     402e90 <_ZNSt8_Rb_treeIiSt4pairIKiN6xaxaxa9AsyncSock13SocketManager8taskInfoEESt10_Select1stIS6_ESt4lessIiESaIS6_EE17_M_insert_unique_ESt23_Rb_tree_const_iteratorIS6_ERKS6_+0x150>
  402e42:	48 89 f0             	mov    %rsi,%rax
  402e45:	48 8b 5c 24 50       	mov    0x50(%rsp),%rbx
  402e4a:	48 8b 6c 24 58       	mov    0x58(%rsp),%rbp
  402e4f:	4c 8b 64 24 60       	mov    0x60(%rsp),%r12
  402e54:	4c 8b 6c 24 68       	mov    0x68(%rsp),%r13
  402e59:	4c 8b 74 24 70       	mov    0x70(%rsp),%r14
  402e5e:	48 83 c4 78          	add    $0x78,%rsp
  402e62:	c3                   	retq   
  402e63:	eb 03                	jmp    402e68 <_ZNSt8_Rb_treeIiSt4pairIKiN6xaxaxa9AsyncSock13SocketManager8taskInfoEESt10_Select1stIS6_ESt4lessIiESaIS6_EE17_M_insert_unique_ESt23_Rb_tree_const_iteratorIS6_ERKS6_+0x128>
  402e65:	90                   	nop
  402e66:	90                   	nop
  402e67:	90                   	nop
  402e68:	48 83 7f 28 00       	cmpq   $0x0,0x28(%rdi)
  402e6d:	74 11                	je     402e80 <_ZNSt8_Rb_treeIiSt4pairIKiN6xaxaxa9AsyncSock13SocketManager8taskInfoEESt10_Select1stIS6_ESt4lessIiESaIS6_EE17_M_insert_unique_ESt23_Rb_tree_const_iteratorIS6_ERKS6_+0x140>
  402e6f:	48 8b 57 20          	mov    0x20(%rdi),%rdx
  402e73:	8b 42 20             	mov    0x20(%rdx),%eax
  402e76:	41 3b 45 00          	cmp    0x0(%r13),%eax
  402e7a:	0f 8c c0 00 00 00    	jl     402f40 <_ZNSt8_Rb_treeIiSt4pairIKiN6xaxaxa9AsyncSock13SocketManager8taskInfoEESt10_Select1stIS6_ESt4lessIiESaIS6_EE17_M_insert_unique_ESt23_Rb_tree_const_iteratorIS6_ERKS6_+0x200>
  402e80:	4c 89 ee             	mov    %r13,%rsi
  402e83:	48 89 df             	mov    %rbx,%rdi
  402e86:	e8 45 fd ff ff       	callq  402bd0 <_ZNSt8_Rb_treeIiSt4pairIKiN6xaxaxa9AsyncSock13SocketManager8taskInfoEESt10_Select1stIS6_ESt4lessIiESaIS6_EE16_M_insert_uniqueERKS6_>
  402e8b:	eb b8                	jmp    402e45 <_ZNSt8_Rb_treeIiSt4pairIKiN6xaxaxa9AsyncSock13SocketManager8taskInfoEESt10_Select1stIS6_ESt4lessIiESaIS6_EE17_M_insert_unique_ESt23_Rb_tree_const_iteratorIS6_ERKS6_+0x105>
  402e8d:	eb 01                	jmp    402e90 <_ZNSt8_Rb_treeIiSt4pairIKiN6xaxaxa9AsyncSock13SocketManager8taskInfoEESt10_Select1stIS6_ESt4lessIiESaIS6_EE17_M_insert_unique_ESt23_Rb_tree_const_iteratorIS6_ERKS6_+0x150>
  402e8f:	90                   	nop
  402e90:	48 8b 57 20          	mov    0x20(%rdi),%rdx
  402e94:	48 39 f2             	cmp    %rsi,%rdx
  402e97:	0f 84 a3 00 00 00    	je     402f40 <_ZNSt8_Rb_treeIiSt4pairIKiN6xaxaxa9AsyncSock13SocketManager8taskInfoEESt10_Select1stIS6_ESt4lessIiESaIS6_EE17_M_insert_unique_ESt23_Rb_tree_const_iteratorIS6_ERKS6_+0x200>
  402e9d:	48 89 f7             	mov    %rsi,%rdi
  402ea0:	e8 6b e2 ff ff       	callq  401110 <_ZSt18_Rb_tree_incrementPKSt18_Rb_tree_node_base@plt>
  402ea5:	49 89 c4             	mov    %rax,%r12
  402ea8:	41 8b 45 00          	mov    0x0(%r13),%eax
  402eac:	41 3b 44 24 20       	cmp    0x20(%r12),%eax
  402eb1:	7d cd                	jge    402e80 <_ZNSt8_Rb_treeIiSt4pairIKiN6xaxaxa9AsyncSock13SocketManager8taskInfoEESt10_Select1stIS6_ESt4lessIiESaIS6_EE17_M_insert_unique_ESt23_Rb_tree_const_iteratorIS6_ERKS6_+0x140>
  402eb3:	48 83 7d 18 00       	cmpq   $0x0,0x18(%rbp)
  402eb8:	0f 84 c2 00 00 00    	je     402f80 <_ZNSt8_Rb_treeIiSt4pairIKiN6xaxaxa9AsyncSock13SocketManager8taskInfoEESt10_Select1stIS6_ESt4lessIiESaIS6_EE17_M_insert_unique_ESt23_Rb_tree_const_iteratorIS6_ERKS6_+0x240>
  402ebe:	bf 80 00 00 00       	mov    $0x80,%edi
  402ec3:	e8 78 e3 ff ff       	callq  401240 <_Znwm@plt>
  402ec8:	48 83 f8 e0          	cmp    $0xffffffffffffffe0,%rax
  402ecc:	74 60                	je     402f2e <_ZNSt8_Rb_treeIiSt4pairIKiN6xaxaxa9AsyncSock13SocketManager8taskInfoEESt10_Select1stIS6_ESt4lessIiESaIS6_EE17_M_insert_unique_ESt23_Rb_tree_const_iteratorIS6_ERKS6_+0x1ee>
  402ece:	49 8b 55 00          	mov    0x0(%r13),%rdx
  402ed2:	48 89 50 20          	mov    %rdx,0x20(%rax)
  402ed6:	49 8b 55 08          	mov    0x8(%r13),%rdx
  402eda:	48 89 50 28          	mov    %rdx,0x28(%rax)
  402ede:	49 8b 55 10          	mov    0x10(%r13),%rdx
  402ee2:	48 89 50 30          	mov    %rdx,0x30(%rax)
  402ee6:	49 8b 55 18          	mov    0x18(%r13),%rdx
  402eea:	48 89 50 38          	mov    %rdx,0x38(%rax)
  402eee:	49 8b 55 20          	mov    0x20(%r13),%rdx
  402ef2:	48 89 50 40          	mov    %rdx,0x40(%rax)
  402ef6:	49 8b 55 28          	mov    0x28(%r13),%rdx
  402efa:	48 89 50 48          	mov    %rdx,0x48(%rax)
  402efe:	49 8b 55 30          	mov    0x30(%r13),%rdx
  402f02:	48 89 50 50          	mov    %rdx,0x50(%rax)
  402f06:	49 8b 55 38          	mov    0x38(%r13),%rdx
  402f0a:	48 89 50 58          	mov    %rdx,0x58(%rax)
  402f0e:	49 8b 55 40          	mov    0x40(%r13),%rdx
  402f12:	48 89 50 60          	mov    %rdx,0x60(%rax)
  402f16:	49 8b 55 48          	mov    0x48(%r13),%rdx
  402f1a:	48 89 50 68          	mov    %rdx,0x68(%rax)
  402f1e:	49 8b 55 50          	mov    0x50(%r13),%rdx
  402f22:	48 89 50 70          	mov    %rdx,0x70(%rax)
  402f26:	49 8b 55 58          	mov    0x58(%r13),%rdx
  402f2a:	48 89 50 78          	mov    %rdx,0x78(%rax)
  402f2e:	4c 89 f1             	mov    %r14,%rcx
  402f31:	4c 89 e2             	mov    %r12,%rdx
  402f34:	e9 e8 fe ff ff       	jmpq   402e21 <_ZNSt8_Rb_treeIiSt4pairIKiN6xaxaxa9AsyncSock13SocketManager8taskInfoEESt10_Select1stIS6_ESt4lessIiESaIS6_EE17_M_insert_unique_ESt23_Rb_tree_const_iteratorIS6_ERKS6_+0xe1>
  402f39:	eb 05                	jmp    402f40 <_ZNSt8_Rb_treeIiSt4pairIKiN6xaxaxa9AsyncSock13SocketManager8taskInfoEESt10_Select1stIS6_ESt4lessIiESaIS6_EE17_M_insert_unique_ESt23_Rb_tree_const_iteratorIS6_ERKS6_+0x200>
  402f3b:	90                   	nop
  402f3c:	90                   	nop
  402f3d:	90                   	nop
  402f3e:	90                   	nop
  402f3f:	90                   	nop
  402f40:	4c 89 e9             	mov    %r13,%rcx
  402f43:	31 f6                	xor    %esi,%esi
  402f45:	48 89 df             	mov    %rbx,%rdi
  402f48:	e8 03 f8 ff ff       	callq  402750 <_ZNSt8_Rb_treeIiSt4pairIKiN6xaxaxa9AsyncSock13SocketManager8taskInfoEESt10_Select1stIS6_ESt4lessIiESaIS6_EE10_M_insert_EPKSt18_Rb_tree_node_baseSF_RKS6_>
  402f4d:	e9 f3 fe ff ff       	jmpq   402e45 <_ZNSt8_Rb_treeIiSt4pairIKiN6xaxaxa9AsyncSock13SocketManager8taskInfoEESt10_Select1stIS6_ESt4lessIiESaIS6_EE17_M_insert_unique_ESt23_Rb_tree_const_iteratorIS6_ERKS6_+0x105>
  402f52:	eb 04                	jmp    402f58 <_ZNSt8_Rb_treeIiSt4pairIKiN6xaxaxa9AsyncSock13SocketManager8taskInfoEESt10_Select1stIS6_ESt4lessIiESaIS6_EE17_M_insert_unique_ESt23_Rb_tree_const_iteratorIS6_ERKS6_+0x218>
  402f54:	90                   	nop
  402f55:	90                   	nop
  402f56:	90                   	nop
  402f57:	90                   	nop
  402f58:	4c 89 e9             	mov    %r13,%rcx
  402f5b:	48 89 c2             	mov    %rax,%rdx
  402f5e:	31 f6                	xor    %esi,%esi
  402f60:	48 89 df             	mov    %rbx,%rdi
  402f63:	e8 e8 f7 ff ff       	callq  402750 <_ZNSt8_Rb_treeIiSt4pairIKiN6xaxaxa9AsyncSock13SocketManager8taskInfoEESt10_Select1stIS6_ESt4lessIiESaIS6_EE10_M_insert_EPKSt18_Rb_tree_node_baseSF_RKS6_>
  402f68:	e9 d8 fe ff ff       	jmpq   402e45 <_ZNSt8_Rb_treeIiSt4pairIKiN6xaxaxa9AsyncSock13SocketManager8taskInfoEESt10_Select1stIS6_ESt4lessIiESaIS6_EE17_M_insert_unique_ESt23_Rb_tree_const_iteratorIS6_ERKS6_+0x105>
  402f6d:	eb 01                	jmp    402f70 <_ZNSt8_Rb_treeIiSt4pairIKiN6xaxaxa9AsyncSock13SocketManager8taskInfoEESt10_Select1stIS6_ESt4lessIiESaIS6_EE17_M_insert_unique_ESt23_Rb_tree_const_iteratorIS6_ERKS6_+0x230>
  402f6f:	90                   	nop
  402f70:	48 89 d1             	mov    %rdx,%rcx
  402f73:	48 89 f2             	mov    %rsi,%rdx
  402f76:	e8 d5 f7 ff ff       	callq  402750 <_ZNSt8_Rb_treeIiSt4pairIKiN6xaxaxa9AsyncSock13SocketManager8taskInfoEESt10_Select1stIS6_ESt4lessIiESaIS6_EE10_M_insert_EPKSt18_Rb_tree_node_baseSF_RKS6_>
  402f7b:	e9 c5 fe ff ff       	jmpq   402e45 <_ZNSt8_Rb_treeIiSt4pairIKiN6xaxaxa9AsyncSock13SocketManager8taskInfoEESt10_Select1stIS6_ESt4lessIiESaIS6_EE17_M_insert_unique_ESt23_Rb_tree_const_iteratorIS6_ERKS6_+0x105>
  402f80:	4c 89 e9             	mov    %r13,%rcx
  402f83:	48 89 ea             	mov    %rbp,%rdx
  402f86:	31 f6                	xor    %esi,%esi
  402f88:	48 89 df             	mov    %rbx,%rdi
  402f8b:	e8 c0 f7 ff ff       	callq  402750 <_ZNSt8_Rb_treeIiSt4pairIKiN6xaxaxa9AsyncSock13SocketManager8taskInfoEESt10_Select1stIS6_ESt4lessIiESaIS6_EE10_M_insert_EPKSt18_Rb_tree_node_baseSF_RKS6_>
  402f90:	e9 b0 fe ff ff       	jmpq   402e45 <_ZNSt8_Rb_treeIiSt4pairIKiN6xaxaxa9AsyncSock13SocketManager8taskInfoEESt10_Select1stIS6_ESt4lessIiESaIS6_EE17_M_insert_unique_ESt23_Rb_tree_const_iteratorIS6_ERKS6_+0x105>
  402f95:	90                   	nop
  402f96:	90                   	nop
  402f97:	90                   	nop
  402f98:	90                   	nop
  402f99:	90                   	nop
  402f9a:	90                   	nop
  402f9b:	90                   	nop
  402f9c:	90                   	nop
  402f9d:	90                   	nop
  402f9e:	90                   	nop
  402f9f:	90                   	nop

0000000000402fa0 <_ZN6xaxaxa10FileStreamC2EP8_IO_FILE>:
  402fa0:	48 c7 07 70 45 40 00 	movq   $0x404570,(%rdi)
  402fa7:	48 89 77 08          	mov    %rsi,0x8(%rdi)
  402fab:	c3                   	retq   
  402fac:	eb 02                	jmp    402fb0 <_ZN6xaxaxa10FileStreamC1EP8_IO_FILE>
  402fae:	90                   	nop
  402faf:	90                   	nop

0000000000402fb0 <_ZN6xaxaxa10FileStreamC1EP8_IO_FILE>:
  402fb0:	48 c7 07 70 45 40 00 	movq   $0x404570,(%rdi)
  402fb7:	48 89 77 08          	mov    %rsi,0x8(%rdi)
  402fbb:	c3                   	retq   
  402fbc:	eb 02                	jmp    402fc0 <_ZN6xaxaxa12StreamReader8ReadLineEPNS_13StringBuilderE>
  402fbe:	90                   	nop
  402fbf:	90                   	nop

0000000000402fc0 <_ZN6xaxaxa12StreamReader8ReadLineEPNS_13StringBuilderE>:
  402fc0:	48 8b 07             	mov    (%rdi),%rax
  402fc3:	b9 02 00 00 00       	mov    $0x2,%ecx
  402fc8:	ba a1 44 40 00       	mov    $0x4044a1,%edx
  402fcd:	48 8b 40 28          	mov    0x28(%rax),%rax
  402fd1:	ff e0                	jmpq   *%rax
  402fd3:	90                   	nop
  402fd4:	eb 0a                	jmp    402fe0 <_ZN6xaxaxa12StreamReader5FlushEv>
  402fd6:	90                   	nop
  402fd7:	90                   	nop
  402fd8:	90                   	nop
  402fd9:	90                   	nop
  402fda:	90                   	nop
  402fdb:	90                   	nop
  402fdc:	90                   	nop
  402fdd:	90                   	nop
  402fde:	90                   	nop
  402fdf:	90                   	nop

0000000000402fe0 <_ZN6xaxaxa12StreamReader5FlushEv>:
  402fe0:	48 8b 7f 08          	mov    0x8(%rdi),%rdi
  402fe4:	48 8b 07             	mov    (%rdi),%rax
  402fe7:	48 8b 40 10          	mov    0x10(%rax),%rax
  402feb:	ff e0                	jmpq   *%rax
  402fed:	90                   	nop
  402fee:	66 90                	xchg   %ax,%ax

0000000000402ff0 <_ZN6xaxaxa12StreamReader5CloseEv>:
  402ff0:	48 8b 7f 08          	mov    0x8(%rdi),%rdi
  402ff4:	48 8b 07             	mov    (%rdi),%rax
  402ff7:	48 8b 40 18          	mov    0x18(%rax),%rax
  402ffb:	ff e0                	jmpq   *%rax
  402ffd:	90                   	nop
  402ffe:	66 90                	xchg   %ax,%ax

0000000000403000 <_ZN6xaxaxa13StringBuilder4ReadENS_6BufferE>:
  403000:	31 c0                	xor    %eax,%eax
  403002:	c3                   	retq   
  403003:	90                   	nop
  403004:	eb 0a                	jmp    403010 <_ZN6xaxaxa13StringBuilder5FlushEv>
  403006:	90                   	nop
  403007:	90                   	nop
  403008:	90                   	nop
  403009:	90                   	nop
  40300a:	90                   	nop
  40300b:	90                   	nop
  40300c:	90                   	nop
  40300d:	90                   	nop
  40300e:	90                   	nop
  40300f:	90                   	nop

0000000000403010 <_ZN6xaxaxa13StringBuilder5FlushEv>:
  403010:	f3 c3                	repz retq 
  403012:	eb 0c                	jmp    403020 <_ZN6xaxaxa13StringBuilder5CloseEv>
  403014:	90                   	nop
  403015:	90                   	nop
  403016:	90                   	nop
  403017:	90                   	nop
  403018:	90                   	nop
  403019:	90                   	nop
  40301a:	90                   	nop
  40301b:	90                   	nop
  40301c:	90                   	nop
  40301d:	90                   	nop
  40301e:	90                   	nop
  40301f:	90                   	nop

0000000000403020 <_ZN6xaxaxa13StringBuilder5CloseEv>:
  403020:	f3 c3                	repz retq 
  403022:	eb 0c                	jmp    403030 <_GLOBAL__I__ZN6xaxaxa10FileStreamC2EP8_IO_FILE>
  403024:	90                   	nop
  403025:	90                   	nop
  403026:	90                   	nop
  403027:	90                   	nop
  403028:	90                   	nop
  403029:	90                   	nop
  40302a:	90                   	nop
  40302b:	90                   	nop
  40302c:	90                   	nop
  40302d:	90                   	nop
  40302e:	90                   	nop
  40302f:	90                   	nop

0000000000403030 <_GLOBAL__I__ZN6xaxaxa10FileStreamC2EP8_IO_FILE>:
  403030:	48 83 ec 08          	sub    $0x8,%rsp
  403034:	bf 9c 62 60 00       	mov    $0x60629c,%edi
  403039:	e8 22 e0 ff ff       	callq  401060 <_ZNSt8ios_base4InitC1Ev@plt>
  40303e:	ba 40 61 60 00       	mov    $0x606140,%edx
  403043:	be 9c 62 60 00       	mov    $0x60629c,%esi
  403048:	bf d0 10 40 00       	mov    $0x4010d0,%edi
  40304d:	48 83 c4 08          	add    $0x8,%rsp
  403051:	e9 6a e0 ff ff       	jmpq   4010c0 <__cxa_atexit@plt>
  403056:	eb 08                	jmp    403060 <_ZN6xaxaxa18RegisterExceptionsEv>
  403058:	90                   	nop
  403059:	90                   	nop
  40305a:	90                   	nop
  40305b:	90                   	nop
  40305c:	90                   	nop
  40305d:	90                   	nop
  40305e:	90                   	nop
  40305f:	90                   	nop

0000000000403060 <_ZN6xaxaxa18RegisterExceptionsEv>:
  403060:	be d0 33 40 00       	mov    $0x4033d0,%esi
  403065:	bf 0b 00 00 00       	mov    $0xb,%edi
  40306a:	e9 01 e1 ff ff       	jmpq   401170 <signal@plt>
  40306f:	90                   	nop

0000000000403070 <_ZN6xaxaxa13StringBuilderD1Ev>:
  403070:	48 c7 07 d0 44 40 00 	movq   $0x4044d0,(%rdi)
  403077:	48 8b 7f 08          	mov    0x8(%rdi),%rdi
  40307b:	e9 70 e0 ff ff       	jmpq   4010f0 <free@plt>

0000000000403080 <_ZN6xaxaxa13StringBuilderD2Ev>:
  403080:	48 c7 07 d0 44 40 00 	movq   $0x4044d0,(%rdi)
  403087:	48 8b 7f 08          	mov    0x8(%rdi),%rdi
  40308b:	e9 60 e0 ff ff       	jmpq   4010f0 <free@plt>

0000000000403090 <_ZN6xaxaxa12StreamReaderD1Ev>:
  403090:	48 c7 07 10 45 40 00 	movq   $0x404510,(%rdi)
  403097:	48 8b 7f 10          	mov    0x10(%rdi),%rdi
  40309b:	e9 50 e0 ff ff       	jmpq   4010f0 <free@plt>

00000000004030a0 <_ZN6xaxaxa12StreamReaderD2Ev>:
  4030a0:	48 c7 07 10 45 40 00 	movq   $0x404510,(%rdi)
  4030a7:	48 8b 7f 10          	mov    0x10(%rdi),%rdi
  4030ab:	e9 40 e0 ff ff       	jmpq   4010f0 <free@plt>

00000000004030b0 <_ZN6xaxaxa13StringBuilderC1Ei>:
  4030b0:	48 89 5c 24 f0       	mov    %rbx,-0x10(%rsp)
  4030b5:	48 89 6c 24 f8       	mov    %rbp,-0x8(%rsp)
  4030ba:	48 89 fb             	mov    %rdi,%rbx
  4030bd:	48 83 ec 18          	sub    $0x18,%rsp
  4030c1:	89 f5                	mov    %esi,%ebp
  4030c3:	48 c7 07 d0 44 40 00 	movq   $0x4044d0,(%rdi)
  4030ca:	48 63 fe             	movslq %esi,%rdi
  4030cd:	e8 9e df ff ff       	callq  401070 <malloc@plt>
  4030d2:	89 6b 10             	mov    %ebp,0x10(%rbx)
  4030d5:	48 89 43 08          	mov    %rax,0x8(%rbx)
  4030d9:	c7 43 14 00 00 00 00 	movl   $0x0,0x14(%rbx)
  4030e0:	48 8b 6c 24 10       	mov    0x10(%rsp),%rbp
  4030e5:	48 8b 5c 24 08       	mov    0x8(%rsp),%rbx
  4030ea:	48 83 c4 18          	add    $0x18,%rsp
  4030ee:	c3                   	retq   
  4030ef:	90                   	nop

00000000004030f0 <_ZN6xaxaxa13StringBuilderC2Ei>:
  4030f0:	48 89 5c 24 f0       	mov    %rbx,-0x10(%rsp)
  4030f5:	48 89 6c 24 f8       	mov    %rbp,-0x8(%rsp)
  4030fa:	48 89 fb             	mov    %rdi,%rbx
  4030fd:	48 83 ec 18          	sub    $0x18,%rsp
  403101:	89 f5                	mov    %esi,%ebp
  403103:	48 c7 07 d0 44 40 00 	movq   $0x4044d0,(%rdi)
  40310a:	48 63 fe             	movslq %esi,%rdi
  40310d:	e8 5e df ff ff       	callq  401070 <malloc@plt>
  403112:	89 6b 10             	mov    %ebp,0x10(%rbx)
  403115:	48 89 43 08          	mov    %rax,0x8(%rbx)
  403119:	c7 43 14 00 00 00 00 	movl   $0x0,0x14(%rbx)
  403120:	48 8b 6c 24 10       	mov    0x10(%rsp),%rbp
  403125:	48 8b 5c 24 08       	mov    0x8(%rsp),%rbx
  40312a:	48 83 c4 18          	add    $0x18,%rsp
  40312e:	c3                   	retq   
  40312f:	90                   	nop

0000000000403130 <_ZN6xaxaxa12StreamReaderC1EPNS_6StreamEi>:
  403130:	48 89 5c 24 f0       	mov    %rbx,-0x10(%rsp)
  403135:	48 89 6c 24 f8       	mov    %rbp,-0x8(%rsp)
  40313a:	48 89 fb             	mov    %rdi,%rbx
  40313d:	48 83 ec 18          	sub    $0x18,%rsp
  403141:	89 d5                	mov    %edx,%ebp
  403143:	48 c7 07 10 45 40 00 	movq   $0x404510,(%rdi)
  40314a:	48 89 77 08          	mov    %rsi,0x8(%rdi)
  40314e:	48 63 fa             	movslq %edx,%rdi
  403151:	e8 1a df ff ff       	callq  401070 <malloc@plt>
  403156:	89 6b 18             	mov    %ebp,0x18(%rbx)
  403159:	48 89 43 10          	mov    %rax,0x10(%rbx)
  40315d:	c7 43 1c 00 00 00 00 	movl   $0x0,0x1c(%rbx)
  403164:	c7 43 20 00 00 00 00 	movl   $0x0,0x20(%rbx)
  40316b:	48 8b 6c 24 10       	mov    0x10(%rsp),%rbp
  403170:	48 8b 5c 24 08       	mov    0x8(%rsp),%rbx
  403175:	48 83 c4 18          	add    $0x18,%rsp
  403179:	c3                   	retq   
  40317a:	eb 04                	jmp    403180 <_ZN6xaxaxa12StreamReaderC2EPNS_6StreamEi>
  40317c:	90                   	nop
  40317d:	90                   	nop
  40317e:	90                   	nop
  40317f:	90                   	nop

0000000000403180 <_ZN6xaxaxa12StreamReaderC2EPNS_6StreamEi>:
  403180:	48 89 5c 24 f0       	mov    %rbx,-0x10(%rsp)
  403185:	48 89 6c 24 f8       	mov    %rbp,-0x8(%rsp)
  40318a:	48 89 fb             	mov    %rdi,%rbx
  40318d:	48 83 ec 18          	sub    $0x18,%rsp
  403191:	89 d5                	mov    %edx,%ebp
  403193:	48 c7 07 10 45 40 00 	movq   $0x404510,(%rdi)
  40319a:	48 89 77 08          	mov    %rsi,0x8(%rdi)
  40319e:	48 63 fa             	movslq %edx,%rdi
  4031a1:	e8 ca de ff ff       	callq  401070 <malloc@plt>
  4031a6:	89 6b 18             	mov    %ebp,0x18(%rbx)
  4031a9:	48 89 43 10          	mov    %rax,0x10(%rbx)
  4031ad:	c7 43 1c 00 00 00 00 	movl   $0x0,0x1c(%rbx)
  4031b4:	c7 43 20 00 00 00 00 	movl   $0x0,0x20(%rbx)
  4031bb:	48 8b 6c 24 10       	mov    0x10(%rsp),%rbp
  4031c0:	48 8b 5c 24 08       	mov    0x8(%rsp),%rbx
  4031c5:	48 83 c4 18          	add    $0x18,%rsp
  4031c9:	c3                   	retq   
  4031ca:	eb 04                	jmp    4031d0 <_ZN6xaxaxa13StringBuilder8ToStringEv>
  4031cc:	90                   	nop
  4031cd:	90                   	nop
  4031ce:	90                   	nop
  4031cf:	90                   	nop

00000000004031d0 <_ZN6xaxaxa13StringBuilder8ToStringEv>:
  4031d0:	48 89 5c 24 f0       	mov    %rbx,-0x10(%rsp)
  4031d5:	48 89 6c 24 f8       	mov    %rbp,-0x8(%rsp)
  4031da:	48 89 fb             	mov    %rdi,%rbx
  4031dd:	48 83 ec 38          	sub    $0x38,%rsp
  4031e1:	48 63 7f 14          	movslq 0x14(%rdi),%rdi
  4031e5:	e8 86 de ff ff       	callq  401070 <malloc@plt>
  4031ea:	48 63 53 14          	movslq 0x14(%rbx),%rdx
  4031ee:	48 8b 73 08          	mov    0x8(%rbx),%rsi
  4031f2:	48 89 c5             	mov    %rax,%rbp
  4031f5:	48 89 c7             	mov    %rax,%rdi
  4031f8:	e8 63 df ff ff       	callq  401160 <memcpy@plt>
  4031fd:	8b 53 14             	mov    0x14(%rbx),%edx
  403200:	48 89 e8             	mov    %rbp,%rax
  403203:	48 8b 5c 24 28       	mov    0x28(%rsp),%rbx
  403208:	48 8b 6c 24 30       	mov    0x30(%rsp),%rbp
  40320d:	48 83 c4 38          	add    $0x38,%rsp
  403211:	c3                   	retq   
  403212:	eb 0c                	jmp    403220 <_ZN6xaxaxa13StringBuilder9CompareToEPKS0_>
  403214:	90                   	nop
  403215:	90                   	nop
  403216:	90                   	nop
  403217:	90                   	nop
  403218:	90                   	nop
  403219:	90                   	nop
  40321a:	90                   	nop
  40321b:	90                   	nop
  40321c:	90                   	nop
  40321d:	90                   	nop
  40321e:	90                   	nop
  40321f:	90                   	nop

0000000000403220 <_ZN6xaxaxa13StringBuilder9CompareToEPKS0_>:
  403220:	8b 56 14             	mov    0x14(%rsi),%edx
  403223:	85 d2                	test   %edx,%edx
  403225:	7f 09                	jg     403230 <_ZN6xaxaxa13StringBuilder9CompareToEPKS0_+0x10>
  403227:	b8 ff ff ff ff       	mov    $0xffffffff,%eax
  40322c:	c3                   	retq   
  40322d:	eb 01                	jmp    403230 <_ZN6xaxaxa13StringBuilder9CompareToEPKS0_+0x10>
  40322f:	90                   	nop
  403230:	8b 4f 14             	mov    0x14(%rdi),%ecx
  403233:	85 c9                	test   %ecx,%ecx
  403235:	7e f0                	jle    403227 <_ZN6xaxaxa13StringBuilder9CompareToEPKS0_+0x7>
  403237:	48 8b 47 08          	mov    0x8(%rdi),%rax
  40323b:	39 d1                	cmp    %edx,%ecx
  40323d:	48 8b 7e 08          	mov    0x8(%rsi),%rdi
  403241:	0f 4f ca             	cmovg  %edx,%ecx
  403244:	48 63 c9             	movslq %ecx,%rcx
  403247:	48 89 c6             	mov    %rax,%rsi
  40324a:	48 39 c9             	cmp    %rcx,%rcx
  40324d:	f3 a6                	repz cmpsb %es:(%rdi),%ds:(%rsi)
  40324f:	0f 97 c0             	seta   %al
  403252:	0f 92 c2             	setb   %dl
  403255:	28 d0                	sub    %dl,%al
  403257:	0f be c0             	movsbl %al,%eax
  40325a:	c3                   	retq   
  40325b:	90                   	nop
  40325c:	eb 02                	jmp    403260 <_ZN6xaxaxa13StringBuilder9CompareToENS_6BufferE>
  40325e:	90                   	nop
  40325f:	90                   	nop

0000000000403260 <_ZN6xaxaxa13StringBuilder9CompareToENS_6BufferE>:
  403260:	8b 56 08             	mov    0x8(%rsi),%edx
  403263:	85 d2                	test   %edx,%edx
  403265:	7f 09                	jg     403270 <_ZN6xaxaxa13StringBuilder9CompareToENS_6BufferE+0x10>
  403267:	b8 ff ff ff ff       	mov    $0xffffffff,%eax
  40326c:	c3                   	retq   
  40326d:	eb 01                	jmp    403270 <_ZN6xaxaxa13StringBuilder9CompareToENS_6BufferE+0x10>
  40326f:	90                   	nop
  403270:	8b 4f 14             	mov    0x14(%rdi),%ecx
  403273:	85 c9                	test   %ecx,%ecx
  403275:	7e f0                	jle    403267 <_ZN6xaxaxa13StringBuilder9CompareToENS_6BufferE+0x7>
  403277:	48 8b 47 08          	mov    0x8(%rdi),%rax
  40327b:	39 d1                	cmp    %edx,%ecx
  40327d:	48 8b 3e             	mov    (%rsi),%rdi
  403280:	0f 4f ca             	cmovg  %edx,%ecx
  403283:	48 63 c9             	movslq %ecx,%rcx
  403286:	48 89 c6             	mov    %rax,%rsi
  403289:	48 39 c9             	cmp    %rcx,%rcx
  40328c:	f3 a6                	repz cmpsb %es:(%rdi),%ds:(%rsi)
  40328e:	0f 97 c0             	seta   %al
  403291:	0f 92 c2             	setb   %dl
  403294:	28 d0                	sub    %dl,%al
  403296:	0f be c0             	movsbl %al,%eax
  403299:	c3                   	retq   
  40329a:	eb 04                	jmp    4032a0 <_ZN6xaxaxa13StringBuilder14EnsureCapacityEi>
  40329c:	90                   	nop
  40329d:	90                   	nop
  40329e:	90                   	nop
  40329f:	90                   	nop

00000000004032a0 <_ZN6xaxaxa13StringBuilder14EnsureCapacityEi>:
  4032a0:	55                   	push   %rbp
  4032a1:	48 89 fd             	mov    %rdi,%rbp
  4032a4:	53                   	push   %rbx
  4032a5:	48 83 ec 08          	sub    $0x8,%rsp
  4032a9:	8b 5f 10             	mov    0x10(%rdi),%ebx
  4032ac:	39 f3                	cmp    %esi,%ebx
  4032ae:	7d 19                	jge    4032c9 <_ZN6xaxaxa13StringBuilder14EnsureCapacityEi+0x29>
  4032b0:	01 db                	add    %ebx,%ebx
  4032b2:	39 de                	cmp    %ebx,%esi
  4032b4:	7f fa                	jg     4032b0 <_ZN6xaxaxa13StringBuilder14EnsureCapacityEi+0x10>
  4032b6:	48 8b 7d 08          	mov    0x8(%rbp),%rdi
  4032ba:	48 63 f3             	movslq %ebx,%rsi
  4032bd:	e8 4e df ff ff       	callq  401210 <realloc@plt>
  4032c2:	89 5d 10             	mov    %ebx,0x10(%rbp)
  4032c5:	48 89 45 08          	mov    %rax,0x8(%rbp)
  4032c9:	48 83 c4 08          	add    $0x8,%rsp
  4032cd:	5b                   	pop    %rbx
  4032ce:	5d                   	pop    %rbp
  4032cf:	c3                   	retq   

00000000004032d0 <_ZN6xaxaxa10FileStream5CloseEv>:
  4032d0:	48 8b 7f 08          	mov    0x8(%rdi),%rdi
  4032d4:	e9 17 df ff ff       	jmpq   4011f0 <fclose@plt>
  4032d9:	90                   	nop
  4032da:	eb 04                	jmp    4032e0 <_ZN6xaxaxa10FileStreamD1Ev>
  4032dc:	90                   	nop
  4032dd:	90                   	nop
  4032de:	90                   	nop
  4032df:	90                   	nop

00000000004032e0 <_ZN6xaxaxa10FileStreamD1Ev>:
  4032e0:	48 c7 07 70 45 40 00 	movq   $0x404570,(%rdi)
  4032e7:	48 8b 7f 08          	mov    0x8(%rdi),%rdi
  4032eb:	e9 00 df ff ff       	jmpq   4011f0 <fclose@plt>

00000000004032f0 <_ZN6xaxaxa10FileStreamD2Ev>:
  4032f0:	48 c7 07 70 45 40 00 	movq   $0x404570,(%rdi)
  4032f7:	48 8b 7f 08          	mov    0x8(%rdi),%rdi
  4032fb:	e9 f0 de ff ff       	jmpq   4011f0 <fclose@plt>

0000000000403300 <_ZN6xaxaxa10FileStream5FlushEv>:
  403300:	48 8b 7f 08          	mov    0x8(%rdi),%rdi
  403304:	e9 67 df ff ff       	jmpq   401270 <fflush@plt>
  403309:	90                   	nop
  40330a:	eb 04                	jmp    403310 <_ZN6xaxaxa10FileStream5WriteENS_6BufferE>
  40330c:	90                   	nop
  40330d:	90                   	nop
  40330e:	90                   	nop
  40330f:	90                   	nop

0000000000403310 <_ZN6xaxaxa10FileStream5WriteENS_6BufferE>:
  403310:	48 89 f0             	mov    %rsi,%rax
  403313:	48 63 56 08          	movslq 0x8(%rsi),%rdx
  403317:	48 8b 4f 08          	mov    0x8(%rdi),%rcx
  40331b:	48 8b 38             	mov    (%rax),%rdi
  40331e:	be 01 00 00 00       	mov    $0x1,%esi
  403323:	e9 d8 de ff ff       	jmpq   401200 <fwrite@plt>
  403328:	eb 06                	jmp    403330 <_ZN6xaxaxa10FileStream4ReadENS_6BufferE>
  40332a:	90                   	nop
  40332b:	90                   	nop
  40332c:	90                   	nop
  40332d:	90                   	nop
  40332e:	90                   	nop
  40332f:	90                   	nop

0000000000403330 <_ZN6xaxaxa10FileStream4ReadENS_6BufferE>:
  403330:	48 83 ec 08          	sub    $0x8,%rsp
  403334:	48 89 f0             	mov    %rsi,%rax
  403337:	48 63 56 08          	movslq 0x8(%rsi),%rdx
  40333b:	48 8b 4f 08          	mov    0x8(%rdi),%rcx
  40333f:	48 8b 38             	mov    (%rax),%rdi
  403342:	be 01 00 00 00       	mov    $0x1,%esi
  403347:	e8 34 de ff ff       	callq  401180 <fread@plt>
  40334c:	48 83 c4 08          	add    $0x8,%rsp
  403350:	c3                   	retq   
  403351:	90                   	nop
  403352:	eb 0c                	jmp    403360 <_ZN6xaxaxa13StringBuilder6AppendENS_6BufferE>
  403354:	90                   	nop
  403355:	90                   	nop
  403356:	90                   	nop
  403357:	90                   	nop
  403358:	90                   	nop
  403359:	90                   	nop
  40335a:	90                   	nop
  40335b:	90                   	nop
  40335c:	90                   	nop
  40335d:	90                   	nop
  40335e:	90                   	nop
  40335f:	90                   	nop

0000000000403360 <_ZN6xaxaxa13StringBuilder6AppendENS_6BufferE>:
  403360:	41 54                	push   %r12
  403362:	55                   	push   %rbp
  403363:	48 89 f5             	mov    %rsi,%rbp
  403366:	53                   	push   %rbx
  403367:	8b 4f 14             	mov    0x14(%rdi),%ecx
  40336a:	48 89 fb             	mov    %rdi,%rbx
  40336d:	8b 56 08             	mov    0x8(%rsi),%edx
  403370:	44 8b 67 10          	mov    0x10(%rdi),%r12d
  403374:	8d 04 0a             	lea    (%rdx,%rcx,1),%eax
  403377:	44 39 e0             	cmp    %r12d,%eax
  40337a:	7e 44                	jle    4033c0 <_ZN6xaxaxa13StringBuilder6AppendENS_6BufferE+0x60>
  40337c:	eb 02                	jmp    403380 <_ZN6xaxaxa13StringBuilder6AppendENS_6BufferE+0x20>
  40337e:	90                   	nop
  40337f:	90                   	nop
  403380:	45 01 e4             	add    %r12d,%r12d
  403383:	44 39 e0             	cmp    %r12d,%eax
  403386:	7f f8                	jg     403380 <_ZN6xaxaxa13StringBuilder6AppendENS_6BufferE+0x20>
  403388:	48 8b 7b 08          	mov    0x8(%rbx),%rdi
  40338c:	49 63 f4             	movslq %r12d,%rsi
  40338f:	e8 7c de ff ff       	callq  401210 <realloc@plt>
  403394:	44 89 63 10          	mov    %r12d,0x10(%rbx)
  403398:	8b 4b 14             	mov    0x14(%rbx),%ecx
  40339b:	8b 55 08             	mov    0x8(%rbp),%edx
  40339e:	48 89 43 08          	mov    %rax,0x8(%rbx)
  4033a2:	48 63 f9             	movslq %ecx,%rdi
  4033a5:	48 8b 75 00          	mov    0x0(%rbp),%rsi
  4033a9:	48 63 d2             	movslq %edx,%rdx
  4033ac:	48 8d 3c 38          	lea    (%rax,%rdi,1),%rdi
  4033b0:	e8 ab dd ff ff       	callq  401160 <memcpy@plt>
  4033b5:	8b 45 08             	mov    0x8(%rbp),%eax
  4033b8:	01 43 14             	add    %eax,0x14(%rbx)
  4033bb:	5b                   	pop    %rbx
  4033bc:	5d                   	pop    %rbp
  4033bd:	41 5c                	pop    %r12
  4033bf:	c3                   	retq   
  4033c0:	48 8b 47 08          	mov    0x8(%rdi),%rax
  4033c4:	eb dc                	jmp    4033a2 <_ZN6xaxaxa13StringBuilder6AppendENS_6BufferE+0x42>
  4033c6:	eb 08                	jmp    4033d0 <_ZN6xaxaxaL10handle_sigEi>
  4033c8:	90                   	nop
  4033c9:	90                   	nop
  4033ca:	90                   	nop
  4033cb:	90                   	nop
  4033cc:	90                   	nop
  4033cd:	90                   	nop
  4033ce:	90                   	nop
  4033cf:	90                   	nop

00000000004033d0 <_ZN6xaxaxaL10handle_sigEi>:
  4033d0:	48 89 5c 24 d0       	mov    %rbx,-0x30(%rsp)
  4033d5:	48 89 6c 24 d8       	mov    %rbp,-0x28(%rsp)
  4033da:	4c 89 64 24 e0       	mov    %r12,-0x20(%rsp)
  4033df:	4c 89 6c 24 e8       	mov    %r13,-0x18(%rsp)
  4033e4:	4c 89 74 24 f0       	mov    %r14,-0x10(%rsp)
  4033e9:	4c 89 7c 24 f8       	mov    %r15,-0x8(%rsp)
  4033ee:	48 81 ec 98 00 00 00 	sub    $0x98,%rsp
  4033f5:	83 ff 0b             	cmp    $0xb,%edi
  4033f8:	0f 84 ba 00 00 00    	je     4034b8 <_ZN6xaxaxaL10handle_sigEi+0xe8>
  4033fe:	4c 8d 6c 24 50       	lea    0x50(%rsp),%r13
  403403:	48 8d 54 24 5f       	lea    0x5f(%rsp),%rdx
  403408:	31 f6                	xor    %esi,%esi
  40340a:	4c 89 ef             	mov    %r13,%rdi
  40340d:	e8 0e dd ff ff       	callq  401120 <_ZNSsC1EPKcRKSaIcE@plt>
  403412:	bf 10 00 00 00       	mov    $0x10,%edi
  403417:	e8 24 de ff ff       	callq  401240 <_Znwm@plt>
  40341c:	4c 8d 64 24 20       	lea    0x20(%rsp),%r12
  403421:	48 c7 40 08 38 62 60 	movq   $0x606238,0x8(%rax)
  403428:	00 
  403429:	4c 89 ee             	mov    %r13,%rsi
  40342c:	48 89 c5             	mov    %rax,%rbp
  40342f:	48 89 c3             	mov    %rax,%rbx
  403432:	4c 89 e7             	mov    %r12,%rdi
  403435:	e8 76 dc ff ff       	callq  4010b0 <_ZNSsC1ERKSs@plt>
  40343a:	48 8d 7c 24 08       	lea    0x8(%rsp),%rdi
  40343f:	4c 89 e6             	mov    %r12,%rsi
  403442:	48 c7 44 24 08 38 62 	movq   $0x606238,0x8(%rsp)
  403449:	60 00 
  40344b:	c7 04 24 00 00 00 00 	movl   $0x0,(%rsp)
  403452:	49 89 e6             	mov    %rsp,%r14
  403455:	e8 76 dd ff ff       	callq  4011d0 <_ZNSs6assignERKSs@plt>
  40345a:	48 8b 7c 24 08       	mov    0x8(%rsp),%rdi
  40345f:	bd 20 62 60 00       	mov    $0x606220,%ebp
  403464:	48 83 ef 18          	sub    $0x18,%rdi
  403468:	48 39 ef             	cmp    %rbp,%rdi
  40346b:	0f 85 bd 01 00 00    	jne    40362e <_ZN6xaxaxaL10handle_sigEi+0x25e>
  403471:	48 8b 7c 24 20       	mov    0x20(%rsp),%rdi
  403476:	48 83 ef 18          	sub    $0x18,%rdi
  40347a:	48 39 fd             	cmp    %rdi,%rbp
  40347d:	0f 85 51 01 00 00    	jne    4035d4 <_ZN6xaxaxaL10handle_sigEi+0x204>
  403483:	48 8b 7c 24 50       	mov    0x50(%rsp),%rdi
  403488:	48 83 ef 18          	sub    $0x18,%rdi
  40348c:	48 39 fd             	cmp    %rdi,%rbp
  40348f:	0f 85 6c 01 00 00    	jne    403601 <_ZN6xaxaxaL10handle_sigEi+0x231>
  403495:	bf 08 00 00 00       	mov    $0x8,%edi
  40349a:	e8 01 dd ff ff       	callq  4011a0 <__cxa_allocate_exception@plt>
  40349f:	31 d2                	xor    %edx,%edx
  4034a1:	48 89 18             	mov    %rbx,(%rax)
  4034a4:	be 00 44 40 00       	mov    $0x404400,%esi
  4034a9:	48 89 c7             	mov    %rax,%rdi
  4034ac:	e8 2f dd ff ff       	callq  4011e0 <__cxa_throw@plt>
  4034b1:	eb 05                	jmp    4034b8 <_ZN6xaxaxaL10handle_sigEi+0xe8>
  4034b3:	90                   	nop
  4034b4:	90                   	nop
  4034b5:	90                   	nop
  4034b6:	90                   	nop
  4034b7:	90                   	nop
  4034b8:	bf 10 00 00 00       	mov    $0x10,%edi
  4034bd:	4c 8d 64 24 30       	lea    0x30(%rsp),%r12
  4034c2:	e8 79 dd ff ff       	callq  401240 <_Znwm@plt>
  4034c7:	48 8d 54 24 5e       	lea    0x5e(%rsp),%rdx
  4034cc:	c7 00 00 00 00 00    	movl   $0x0,(%rax)
  4034d2:	48 c7 40 08 00 00 00 	movq   $0x0,0x8(%rax)
  4034d9:	00 
  4034da:	31 f6                	xor    %esi,%esi
  4034dc:	4c 89 e7             	mov    %r12,%rdi
  4034df:	48 89 c3             	mov    %rax,%rbx
  4034e2:	e8 39 dc ff ff       	callq  401120 <_ZNSsC1EPKcRKSaIcE@plt>
  4034e7:	48 8d 6c 24 40       	lea    0x40(%rsp),%rbp
  4034ec:	48 c7 43 08 38 62 60 	movq   $0x606238,0x8(%rbx)
  4034f3:	00 
  4034f4:	4c 89 e6             	mov    %r12,%rsi
  4034f7:	48 89 ef             	mov    %rbp,%rdi
  4034fa:	e8 b1 db ff ff       	callq  4010b0 <_ZNSsC1ERKSs@plt>
  4034ff:	4c 8d 6c 24 10       	lea    0x10(%rsp),%r13
  403504:	48 89 ee             	mov    %rbp,%rsi
  403507:	48 c7 44 24 18 38 62 	movq   $0x606238,0x18(%rsp)
  40350e:	60 00 
  403510:	c7 44 24 10 00 00 00 	movl   $0x0,0x10(%rsp)
  403517:	00 
  403518:	49 8d 7d 08          	lea    0x8(%r13),%rdi
  40351c:	e8 af dc ff ff       	callq  4011d0 <_ZNSs6assignERKSs@plt>
  403521:	48 8b 7c 24 18       	mov    0x18(%rsp),%rdi
  403526:	bd 20 62 60 00       	mov    $0x606220,%ebp
  40352b:	48 83 ef 18          	sub    $0x18,%rdi
  40352f:	48 39 ef             	cmp    %rbp,%rdi
  403532:	75 73                	jne    4035a7 <_ZN6xaxaxaL10handle_sigEi+0x1d7>
  403534:	48 8b 7c 24 40       	mov    0x40(%rsp),%rdi
  403539:	48 83 ef 18          	sub    $0x18,%rdi
  40353d:	48 39 fd             	cmp    %rdi,%rbp
  403540:	75 3f                	jne    403581 <_ZN6xaxaxaL10handle_sigEi+0x1b1>
  403542:	48 8b 7c 24 30       	mov    0x30(%rsp),%rdi
  403547:	48 83 ef 18          	sub    $0x18,%rdi
  40354b:	48 39 fd             	cmp    %rdi,%rbp
  40354e:	0f 84 41 ff ff ff    	je     403495 <_ZN6xaxaxaL10handle_sigEi+0xc5>
  403554:	b8 00 00 00 00       	mov    $0x0,%eax
  403559:	48 85 c0             	test   %rax,%rax
  40355c:	0f 84 83 01 00 00    	je     4036e5 <_ZN6xaxaxaL10handle_sigEi+0x315>
  403562:	83 c8 ff             	or     $0xffffffffffffffff,%eax
  403565:	f0 0f c1 47 10       	lock xadd %eax,0x10(%rdi)
  40356a:	85 c0                	test   %eax,%eax
  40356c:	0f 8f 23 ff ff ff    	jg     403495 <_ZN6xaxaxaL10handle_sigEi+0xc5>
  403572:	48 8d 74 24 5b       	lea    0x5b(%rsp),%rsi
  403577:	e8 84 db ff ff       	callq  401100 <_ZNSs4_Rep10_M_destroyERKSaIcE@plt>
  40357c:	e9 14 ff ff ff       	jmpq   403495 <_ZN6xaxaxaL10handle_sigEi+0xc5>
  403581:	b8 00 00 00 00       	mov    $0x0,%eax
  403586:	48 85 c0             	test   %rax,%rax
  403589:	0f 84 64 01 00 00    	je     4036f3 <_ZN6xaxaxaL10handle_sigEi+0x323>
  40358f:	83 c8 ff             	or     $0xffffffffffffffff,%eax
  403592:	f0 0f c1 47 10       	lock xadd %eax,0x10(%rdi)
  403597:	85 c0                	test   %eax,%eax
  403599:	7f a7                	jg     403542 <_ZN6xaxaxaL10handle_sigEi+0x172>
  40359b:	48 8d 74 24 5c       	lea    0x5c(%rsp),%rsi
  4035a0:	e8 5b db ff ff       	callq  401100 <_ZNSs4_Rep10_M_destroyERKSaIcE@plt>
  4035a5:	eb 9b                	jmp    403542 <_ZN6xaxaxaL10handle_sigEi+0x172>
  4035a7:	b8 00 00 00 00       	mov    $0x0,%eax
  4035ac:	48 85 c0             	test   %rax,%rax
  4035af:	0f 84 5a 01 00 00    	je     40370f <_ZN6xaxaxaL10handle_sigEi+0x33f>
  4035b5:	83 c8 ff             	or     $0xffffffffffffffff,%eax
  4035b8:	f0 0f c1 47 10       	lock xadd %eax,0x10(%rdi)
  4035bd:	85 c0                	test   %eax,%eax
  4035bf:	0f 8f 6f ff ff ff    	jg     403534 <_ZN6xaxaxaL10handle_sigEi+0x164>
  4035c5:	48 8d 74 24 5d       	lea    0x5d(%rsp),%rsi
  4035ca:	e8 31 db ff ff       	callq  401100 <_ZNSs4_Rep10_M_destroyERKSaIcE@plt>
  4035cf:	e9 60 ff ff ff       	jmpq   403534 <_ZN6xaxaxaL10handle_sigEi+0x164>
  4035d4:	b8 00 00 00 00       	mov    $0x0,%eax
  4035d9:	48 85 c0             	test   %rax,%rax
  4035dc:	0f 84 1f 01 00 00    	je     403701 <_ZN6xaxaxaL10handle_sigEi+0x331>
  4035e2:	83 c8 ff             	or     $0xffffffffffffffff,%eax
  4035e5:	f0 0f c1 47 10       	lock xadd %eax,0x10(%rdi)
  4035ea:	85 c0                	test   %eax,%eax
  4035ec:	0f 8f 91 fe ff ff    	jg     403483 <_ZN6xaxaxaL10handle_sigEi+0xb3>
  4035f2:	48 8d 74 24 59       	lea    0x59(%rsp),%rsi
  4035f7:	e8 04 db ff ff       	callq  401100 <_ZNSs4_Rep10_M_destroyERKSaIcE@plt>
  4035fc:	e9 82 fe ff ff       	jmpq   403483 <_ZN6xaxaxaL10handle_sigEi+0xb3>
  403601:	b8 00 00 00 00       	mov    $0x0,%eax
  403606:	48 85 c0             	test   %rax,%rax
  403609:	0f 84 0e 01 00 00    	je     40371d <_ZN6xaxaxaL10handle_sigEi+0x34d>
  40360f:	83 c8 ff             	or     $0xffffffffffffffff,%eax
  403612:	f0 0f c1 47 10       	lock xadd %eax,0x10(%rdi)
  403617:	85 c0                	test   %eax,%eax
  403619:	0f 8f 76 fe ff ff    	jg     403495 <_ZN6xaxaxaL10handle_sigEi+0xc5>
  40361f:	48 8d 74 24 58       	lea    0x58(%rsp),%rsi
  403624:	e8 d7 da ff ff       	callq  401100 <_ZNSs4_Rep10_M_destroyERKSaIcE@plt>
  403629:	e9 67 fe ff ff       	jmpq   403495 <_ZN6xaxaxaL10handle_sigEi+0xc5>
  40362e:	b8 00 00 00 00       	mov    $0x0,%eax
  403633:	48 85 c0             	test   %rax,%rax
  403636:	74 63                	je     40369b <_ZN6xaxaxaL10handle_sigEi+0x2cb>
  403638:	83 c8 ff             	or     $0xffffffffffffffff,%eax
  40363b:	f0 0f c1 47 10       	lock xadd %eax,0x10(%rdi)
  403640:	85 c0                	test   %eax,%eax
  403642:	0f 8f 29 fe ff ff    	jg     403471 <_ZN6xaxaxaL10handle_sigEi+0xa1>
  403648:	48 8d 74 24 5a       	lea    0x5a(%rsp),%rsi
  40364d:	e8 ae da ff ff       	callq  401100 <_ZNSs4_Rep10_M_destroyERKSaIcE@plt>
  403652:	e9 1a fe ff ff       	jmpq   403471 <_ZN6xaxaxaL10handle_sigEi+0xa1>
  403657:	49 8d 7e 08          	lea    0x8(%r14),%rdi
  40365b:	49 89 c7             	mov    %rax,%r15
  40365e:	e8 7d da ff ff       	callq  4010e0 <_ZNSsD1Ev@plt>
  403663:	4c 89 e7             	mov    %r12,%rdi
  403666:	e8 75 da ff ff       	callq  4010e0 <_ZNSsD1Ev@plt>
  40366b:	48 8d 7d 08          	lea    0x8(%rbp),%rdi
  40366f:	e8 6c da ff ff       	callq  4010e0 <_ZNSsD1Ev@plt>
  403674:	48 89 ef             	mov    %rbp,%rdi
  403677:	e8 d4 d9 ff ff       	callq  401050 <_ZdlPv@plt>
  40367c:	4c 89 ef             	mov    %r13,%rdi
  40367f:	e8 5c da ff ff       	callq  4010e0 <_ZNSsD1Ev@plt>
  403684:	4c 89 ff             	mov    %r15,%rdi
  403687:	e8 c4 db ff ff       	callq  401250 <_Unwind_Resume@plt>
  40368c:	49 89 c7             	mov    %rax,%r15
  40368f:	eb eb                	jmp    40367c <_ZN6xaxaxaL10handle_sigEi+0x2ac>
  403691:	49 89 c7             	mov    %rax,%r15
  403694:	eb ee                	jmp    403684 <_ZN6xaxaxaL10handle_sigEi+0x2b4>
  403696:	49 89 c7             	mov    %rax,%r15
  403699:	eb d0                	jmp    40366b <_ZN6xaxaxaL10handle_sigEi+0x29b>
  40369b:	8b 47 10             	mov    0x10(%rdi),%eax
  40369e:	8d 50 ff             	lea    -0x1(%rax),%edx
  4036a1:	89 57 10             	mov    %edx,0x10(%rdi)
  4036a4:	eb 9a                	jmp    403640 <_ZN6xaxaxaL10handle_sigEi+0x270>
  4036a6:	49 8d 7d 08          	lea    0x8(%r13),%rdi
  4036aa:	49 89 c7             	mov    %rax,%r15
  4036ad:	e8 2e da ff ff       	callq  4010e0 <_ZNSsD1Ev@plt>
  4036b2:	48 89 ef             	mov    %rbp,%rdi
  4036b5:	e8 26 da ff ff       	callq  4010e0 <_ZNSsD1Ev@plt>
  4036ba:	48 8d 7b 08          	lea    0x8(%rbx),%rdi
  4036be:	e8 1d da ff ff       	callq  4010e0 <_ZNSsD1Ev@plt>
  4036c3:	4c 89 e7             	mov    %r12,%rdi
  4036c6:	e8 15 da ff ff       	callq  4010e0 <_ZNSsD1Ev@plt>
  4036cb:	48 89 df             	mov    %rbx,%rdi
  4036ce:	e8 7d d9 ff ff       	callq  401050 <_ZdlPv@plt>
  4036d3:	4c 89 ff             	mov    %r15,%rdi
  4036d6:	e8 75 db ff ff       	callq  401250 <_Unwind_Resume@plt>
  4036db:	49 89 c7             	mov    %rax,%r15
  4036de:	eb da                	jmp    4036ba <_ZN6xaxaxaL10handle_sigEi+0x2ea>
  4036e0:	49 89 c7             	mov    %rax,%r15
  4036e3:	eb e6                	jmp    4036cb <_ZN6xaxaxaL10handle_sigEi+0x2fb>
  4036e5:	8b 47 10             	mov    0x10(%rdi),%eax
  4036e8:	8d 50 ff             	lea    -0x1(%rax),%edx
  4036eb:	89 57 10             	mov    %edx,0x10(%rdi)
  4036ee:	e9 77 fe ff ff       	jmpq   40356a <_ZN6xaxaxaL10handle_sigEi+0x19a>
  4036f3:	8b 47 10             	mov    0x10(%rdi),%eax
  4036f6:	8d 50 ff             	lea    -0x1(%rax),%edx
  4036f9:	89 57 10             	mov    %edx,0x10(%rdi)
  4036fc:	e9 96 fe ff ff       	jmpq   403597 <_ZN6xaxaxaL10handle_sigEi+0x1c7>
  403701:	8b 47 10             	mov    0x10(%rdi),%eax
  403704:	8d 50 ff             	lea    -0x1(%rax),%edx
  403707:	89 57 10             	mov    %edx,0x10(%rdi)
  40370a:	e9 db fe ff ff       	jmpq   4035ea <_ZN6xaxaxaL10handle_sigEi+0x21a>
  40370f:	8b 47 10             	mov    0x10(%rdi),%eax
  403712:	8d 50 ff             	lea    -0x1(%rax),%edx
  403715:	89 57 10             	mov    %edx,0x10(%rdi)
  403718:	e9 a0 fe ff ff       	jmpq   4035bd <_ZN6xaxaxaL10handle_sigEi+0x1ed>
  40371d:	8b 47 10             	mov    0x10(%rdi),%eax
  403720:	8d 50 ff             	lea    -0x1(%rax),%edx
  403723:	89 57 10             	mov    %edx,0x10(%rdi)
  403726:	e9 ec fe ff ff       	jmpq   403617 <_ZN6xaxaxaL10handle_sigEi+0x247>
  40372b:	90                   	nop
  40372c:	eb 02                	jmp    403730 <_ZN6xaxaxa12StreamReader5WriteENS_6BufferE>
  40372e:	90                   	nop
  40372f:	90                   	nop

0000000000403730 <_ZN6xaxaxa12StreamReader5WriteENS_6BufferE>:
  403730:	53                   	push   %rbx
  403731:	48 83 ec 20          	sub    $0x20,%rsp
  403735:	48 8b 16             	mov    (%rsi),%rdx
  403738:	48 8b 7f 08          	mov    0x8(%rdi),%rdi
  40373c:	48 8d 5c 24 10       	lea    0x10(%rsp),%rbx
  403741:	48 89 54 24 10       	mov    %rdx,0x10(%rsp)
  403746:	8b 56 08             	mov    0x8(%rsi),%edx
  403749:	48 8b 07             	mov    (%rdi),%rax
  40374c:	89 54 24 18          	mov    %edx,0x18(%rsp)
  403750:	0f b6 56 0c          	movzbl 0xc(%rsi),%edx
  403754:	48 89 de             	mov    %rbx,%rsi
  403757:	48 8b 40 08          	mov    0x8(%rax),%rax
  40375b:	88 54 24 1c          	mov    %dl,0x1c(%rsp)
  40375f:	ff d0                	callq  *%rax
  403761:	80 7c 24 1c 00       	cmpb   $0x0,0x1c(%rsp)
  403766:	74 0f                	je     403777 <_ZN6xaxaxa12StreamReader5WriteENS_6BufferE+0x47>
  403768:	48 8b 7c 24 10       	mov    0x10(%rsp),%rdi
  40376d:	48 85 ff             	test   %rdi,%rdi
  403770:	74 05                	je     403777 <_ZN6xaxaxa12StreamReader5WriteENS_6BufferE+0x47>
  403772:	e8 79 d9 ff ff       	callq  4010f0 <free@plt>
  403777:	48 83 c4 20          	add    $0x20,%rsp
  40377b:	5b                   	pop    %rbx
  40377c:	c3                   	retq   
  40377d:	48 89 df             	mov    %rbx,%rdi
  403780:	48 89 44 24 08       	mov    %rax,0x8(%rsp)
  403785:	e8 06 0a 00 00       	callq  404190 <_ZN6xaxaxa6BufferD1Ev>
  40378a:	48 8b 44 24 08       	mov    0x8(%rsp),%rax
  40378f:	48 89 c7             	mov    %rax,%rdi
  403792:	e8 b9 da ff ff       	callq  401250 <_Unwind_Resume@plt>
  403797:	90                   	nop
  403798:	eb 06                	jmp    4037a0 <_ZN6xaxaxa12StreamReader4ReadENS_6BufferE>
  40379a:	90                   	nop
  40379b:	90                   	nop
  40379c:	90                   	nop
  40379d:	90                   	nop
  40379e:	90                   	nop
  40379f:	90                   	nop

00000000004037a0 <_ZN6xaxaxa12StreamReader4ReadENS_6BufferE>:
  4037a0:	48 89 5c 24 e0       	mov    %rbx,-0x20(%rsp)
  4037a5:	48 89 6c 24 e8       	mov    %rbp,-0x18(%rsp)
  4037aa:	31 db                	xor    %ebx,%ebx
  4037ac:	4c 89 64 24 f0       	mov    %r12,-0x10(%rsp)
  4037b1:	4c 89 6c 24 f8       	mov    %r13,-0x8(%rsp)
  4037b6:	48 83 ec 48          	sub    $0x48,%rsp
  4037ba:	8b 47 20             	mov    0x20(%rdi),%eax
  4037bd:	49 89 fc             	mov    %rdi,%r12
  4037c0:	48 89 f5             	mov    %rsi,%rbp
  4037c3:	85 c0                	test   %eax,%eax
  4037c5:	7e 32                	jle    4037f9 <_ZN6xaxaxa12StreamReader4ReadENS_6BufferE+0x59>
  4037c7:	39 46 08             	cmp    %eax,0x8(%rsi)
  4037ca:	89 c3                	mov    %eax,%ebx
  4037cc:	48 8b 3e             	mov    (%rsi),%rdi
  4037cf:	0f 4e 5e 08          	cmovle 0x8(%rsi),%ebx
  4037d3:	49 63 74 24 1c       	movslq 0x1c(%r12),%rsi
  4037d8:	49 03 74 24 10       	add    0x10(%r12),%rsi
  4037dd:	4c 63 eb             	movslq %ebx,%r13
  4037e0:	4c 89 ea             	mov    %r13,%rdx
  4037e3:	e8 78 d9 ff ff       	callq  401160 <memcpy@plt>
  4037e8:	29 5d 08             	sub    %ebx,0x8(%rbp)
  4037eb:	4c 01 6d 00          	add    %r13,0x0(%rbp)
  4037ef:	41 01 5c 24 1c       	add    %ebx,0x1c(%r12)
  4037f4:	41 29 5c 24 20       	sub    %ebx,0x20(%r12)
  4037f9:	8b 55 08             	mov    0x8(%rbp),%edx
  4037fc:	85 d2                	test   %edx,%edx
  4037fe:	7e 5c                	jle    40385c <_ZN6xaxaxa12StreamReader4ReadENS_6BufferE+0xbc>
  403800:	49 8b 7c 24 08       	mov    0x8(%r12),%rdi
  403805:	48 8b 4d 00          	mov    0x0(%rbp),%rcx
  403809:	48 89 e6             	mov    %rsp,%rsi
  40380c:	89 54 24 18          	mov    %edx,0x18(%rsp)
  403810:	c6 44 24 1c 00       	movb   $0x0,0x1c(%rsp)
  403815:	89 54 24 08          	mov    %edx,0x8(%rsp)
  403819:	c6 44 24 0c 00       	movb   $0x0,0xc(%rsp)
  40381e:	48 8b 07             	mov    (%rdi),%rax
  403821:	48 89 4c 24 10       	mov    %rcx,0x10(%rsp)
  403826:	48 89 0c 24          	mov    %rcx,(%rsp)
  40382a:	48 8b 00             	mov    (%rax),%rax
  40382d:	ff d0                	callq  *%rax
  40382f:	01 c3                	add    %eax,%ebx
  403831:	80 7c 24 0c 00       	cmpb   $0x0,0xc(%rsp)
  403836:	74 0e                	je     403846 <_ZN6xaxaxa12StreamReader4ReadENS_6BufferE+0xa6>
  403838:	48 8b 3c 24          	mov    (%rsp),%rdi
  40383c:	48 85 ff             	test   %rdi,%rdi
  40383f:	74 05                	je     403846 <_ZN6xaxaxa12StreamReader4ReadENS_6BufferE+0xa6>
  403841:	e8 aa d8 ff ff       	callq  4010f0 <free@plt>
  403846:	80 7c 24 1c 00       	cmpb   $0x0,0x1c(%rsp)
  40384b:	74 0f                	je     40385c <_ZN6xaxaxa12StreamReader4ReadENS_6BufferE+0xbc>
  40384d:	48 8b 7c 24 10       	mov    0x10(%rsp),%rdi
  403852:	48 85 ff             	test   %rdi,%rdi
  403855:	74 05                	je     40385c <_ZN6xaxaxa12StreamReader4ReadENS_6BufferE+0xbc>
  403857:	e8 94 d8 ff ff       	callq  4010f0 <free@plt>
  40385c:	89 d8                	mov    %ebx,%eax
  40385e:	48 8b 6c 24 30       	mov    0x30(%rsp),%rbp
  403863:	48 8b 5c 24 28       	mov    0x28(%rsp),%rbx
  403868:	4c 8b 64 24 38       	mov    0x38(%rsp),%r12
  40386d:	4c 8b 6c 24 40       	mov    0x40(%rsp),%r13
  403872:	48 83 c4 48          	add    $0x48,%rsp
  403876:	c3                   	retq   
  403877:	48 89 e7             	mov    %rsp,%rdi
  40387a:	48 89 c3             	mov    %rax,%rbx
  40387d:	e8 0e 09 00 00       	callq  404190 <_ZN6xaxaxa6BufferD1Ev>
  403882:	48 8d 7c 24 10       	lea    0x10(%rsp),%rdi
  403887:	e8 04 09 00 00       	callq  404190 <_ZN6xaxaxa6BufferD1Ev>
  40388c:	48 89 df             	mov    %rbx,%rdi
  40388f:	e8 bc d9 ff ff       	callq  401250 <_Unwind_Resume@plt>
  403894:	eb 0a                	jmp    4038a0 <_ZN6xaxaxa12StreamReader4ReadEPNS_6StreamEPKci>
  403896:	90                   	nop
  403897:	90                   	nop
  403898:	90                   	nop
  403899:	90                   	nop
  40389a:	90                   	nop
  40389b:	90                   	nop
  40389c:	90                   	nop
  40389d:	90                   	nop
  40389e:	90                   	nop
  40389f:	90                   	nop

00000000004038a0 <_ZN6xaxaxa12StreamReader4ReadEPNS_6StreamEPKci>:
  4038a0:	41 57                	push   %r15
  4038a2:	45 31 ff             	xor    %r15d,%r15d
  4038a5:	41 56                	push   %r14
  4038a7:	49 89 f6             	mov    %rsi,%r14
  4038aa:	41 55                	push   %r13
  4038ac:	41 54                	push   %r12
  4038ae:	49 89 d4             	mov    %rdx,%r12
  4038b1:	55                   	push   %rbp
  4038b2:	48 89 fd             	mov    %rdi,%rbp
  4038b5:	53                   	push   %rbx
  4038b6:	89 cb                	mov    %ecx,%ebx
  4038b8:	48 83 ec 68          	sub    $0x68,%rsp
  4038bc:	8b 45 20             	mov    0x20(%rbp),%eax
  4038bf:	85 c0                	test   %eax,%eax
  4038c1:	0f 8e a8 01 00 00    	jle    403a6f <_ZN6xaxaxa12StreamReader4ReadEPNS_6StreamEPKci+0x1cf>
  4038c7:	44 8b 45 1c          	mov    0x1c(%rbp),%r8d
  4038cb:	4d 63 c8             	movslq %r8d,%r9
  4038ce:	4c 89 4c 24 08       	mov    %r9,0x8(%rsp)
  4038d3:	45 8d 1c 00          	lea    (%r8,%rax,1),%r11d
  4038d7:	45 39 c3             	cmp    %r8d,%r11d
  4038da:	0f 8e 2e 02 00 00    	jle    403b0e <_ZN6xaxaxa12StreamReader4ReadEPNS_6StreamEPKci+0x26e>
  4038e0:	4c 8b 55 10          	mov    0x10(%rbp),%r10
  4038e4:	45 89 c5             	mov    %r8d,%r13d
  4038e7:	4f 8d 0c 0a          	lea    (%r10,%r9,1),%r9
  4038eb:	85 db                	test   %ebx,%ebx
  4038ed:	7e 2d                	jle    40391c <_ZN6xaxaxa12StreamReader4ReadEPNS_6StreamEPKci+0x7c>
  4038ef:	41 0f b6 39          	movzbl (%r9),%edi
  4038f3:	41 3a 3c 24          	cmp    (%r12),%dil
  4038f7:	0f 84 83 00 00 00    	je     403980 <_ZN6xaxaxa12StreamReader4ReadEPNS_6StreamEPKci+0xe0>
  4038fd:	4c 89 e1             	mov    %r12,%rcx
  403900:	31 d2                	xor    %edx,%edx
  403902:	eb 11                	jmp    403915 <_ZN6xaxaxa12StreamReader4ReadEPNS_6StreamEPKci+0x75>
  403904:	eb 02                	jmp    403908 <_ZN6xaxaxa12StreamReader4ReadEPNS_6StreamEPKci+0x68>
  403906:	90                   	nop
  403907:	90                   	nop
  403908:	0f b6 71 01          	movzbl 0x1(%rcx),%esi
  40390c:	48 83 c1 01          	add    $0x1,%rcx
  403910:	40 38 fe             	cmp    %dil,%sil
  403913:	74 6b                	je     403980 <_ZN6xaxaxa12StreamReader4ReadEPNS_6StreamEPKci+0xe0>
  403915:	83 c2 01             	add    $0x1,%edx
  403918:	39 d3                	cmp    %edx,%ebx
  40391a:	7f ec                	jg     403908 <_ZN6xaxaxa12StreamReader4ReadEPNS_6StreamEPKci+0x68>
  40391c:	41 83 c5 01          	add    $0x1,%r13d
  403920:	49 83 c1 01          	add    $0x1,%r9
  403924:	45 39 dd             	cmp    %r11d,%r13d
  403927:	7c c2                	jl     4038eb <_ZN6xaxaxa12StreamReader4ReadEPNS_6StreamEPKci+0x4b>
  403929:	4c 03 54 24 08       	add    0x8(%rsp),%r10
  40392e:	49 8b 16             	mov    (%r14),%rdx
  403931:	48 8d 74 24 10       	lea    0x10(%rsp),%rsi
  403936:	89 44 24 28          	mov    %eax,0x28(%rsp)
  40393a:	c6 44 24 2c 00       	movb   $0x0,0x2c(%rsp)
  40393f:	4c 89 f7             	mov    %r14,%rdi
  403942:	89 44 24 18          	mov    %eax,0x18(%rsp)
  403946:	c6 44 24 1c 00       	movb   $0x0,0x1c(%rsp)
  40394b:	48 8b 52 08          	mov    0x8(%rdx),%rdx
  40394f:	4c 89 54 24 20       	mov    %r10,0x20(%rsp)
  403954:	4c 89 54 24 10       	mov    %r10,0x10(%rsp)
  403959:	ff d2                	callq  *%rdx
  40395b:	48 8d 7c 24 10       	lea    0x10(%rsp),%rdi
  403960:	e8 2b 08 00 00       	callq  404190 <_ZN6xaxaxa6BufferD1Ev>
  403965:	48 8d 7c 24 20       	lea    0x20(%rsp),%rdi
  40396a:	44 03 7d 20          	add    0x20(%rbp),%r15d
  40396e:	c7 45 20 00 00 00 00 	movl   $0x0,0x20(%rbp)
  403975:	e8 16 08 00 00       	callq  404190 <_ZN6xaxaxa6BufferD1Ev>
  40397a:	e9 3d ff ff ff       	jmpq   4038bc <_ZN6xaxaxa12StreamReader4ReadEPNS_6StreamEPKci+0x1c>
  40397f:	90                   	nop
  403980:	4c 03 54 24 08       	add    0x8(%rsp),%r10
  403985:	49 8b 06             	mov    (%r14),%rax
  403988:	45 29 c5             	sub    %r8d,%r13d
  40398b:	44 89 6c 24 48       	mov    %r13d,0x48(%rsp)
  403990:	c6 44 24 4c 00       	movb   $0x0,0x4c(%rsp)
  403995:	48 8d 74 24 30       	lea    0x30(%rsp),%rsi
  40399a:	44 89 6c 24 38       	mov    %r13d,0x38(%rsp)
  40399f:	c6 44 24 3c 00       	movb   $0x0,0x3c(%rsp)
  4039a4:	4c 89 f7             	mov    %r14,%rdi
  4039a7:	48 8b 40 08          	mov    0x8(%rax),%rax
  4039ab:	4c 89 54 24 40       	mov    %r10,0x40(%rsp)
  4039b0:	4c 89 54 24 30       	mov    %r10,0x30(%rsp)
  4039b5:	ff d0                	callq  *%rax
  4039b7:	80 7c 24 3c 00       	cmpb   $0x0,0x3c(%rsp)
  4039bc:	74 0f                	je     4039cd <_ZN6xaxaxa12StreamReader4ReadEPNS_6StreamEPKci+0x12d>
  4039be:	48 8b 7c 24 30       	mov    0x30(%rsp),%rdi
  4039c3:	48 85 ff             	test   %rdi,%rdi
  4039c6:	74 05                	je     4039cd <_ZN6xaxaxa12StreamReader4ReadEPNS_6StreamEPKci+0x12d>
  4039c8:	e8 23 d7 ff ff       	callq  4010f0 <free@plt>
  4039cd:	44 8b 4d 20          	mov    0x20(%rbp),%r9d
  4039d1:	45 8d 45 01          	lea    0x1(%r13),%r8d
  4039d5:	45 01 ef             	add    %r13d,%r15d
  4039d8:	45 39 c1             	cmp    %r8d,%r9d
  4039db:	0f 8e 36 01 00 00    	jle    403b17 <_ZN6xaxaxa12StreamReader4ReadEPNS_6StreamEPKci+0x277>
  4039e1:	44 8b 5d 1c          	mov    0x1c(%rbp),%r11d
  4039e5:	45 0f b6 14 24       	movzbl (%r12),%r10d
  4039ea:	47 8d 6c 2b 01       	lea    0x1(%r11,%r13,1),%r13d
  4039ef:	49 63 fd             	movslq %r13d,%rdi
  4039f2:	48 03 7d 10          	add    0x10(%rbp),%rdi
  4039f6:	0f b6 37             	movzbl (%rdi),%esi
  4039f9:	31 c0                	xor    %eax,%eax
  4039fb:	45 89 ee             	mov    %r13d,%r14d
  4039fe:	4c 89 e2             	mov    %r12,%rdx
  403a01:	44 38 d6             	cmp    %r10b,%sil
  403a04:	75 17                	jne    403a1d <_ZN6xaxaxa12StreamReader4ReadEPNS_6StreamEPKci+0x17d>
  403a06:	eb 50                	jmp    403a58 <_ZN6xaxaxa12StreamReader4ReadEPNS_6StreamEPKci+0x1b8>
  403a08:	eb 06                	jmp    403a10 <_ZN6xaxaxa12StreamReader4ReadEPNS_6StreamEPKci+0x170>
  403a0a:	90                   	nop
  403a0b:	90                   	nop
  403a0c:	90                   	nop
  403a0d:	90                   	nop
  403a0e:	90                   	nop
  403a0f:	90                   	nop
  403a10:	0f b6 4a 01          	movzbl 0x1(%rdx),%ecx
  403a14:	48 83 c2 01          	add    $0x1,%rdx
  403a18:	40 38 f1             	cmp    %sil,%cl
  403a1b:	74 3b                	je     403a58 <_ZN6xaxaxa12StreamReader4ReadEPNS_6StreamEPKci+0x1b8>
  403a1d:	83 c0 01             	add    $0x1,%eax
  403a20:	39 c3                	cmp    %eax,%ebx
  403a22:	7f ec                	jg     403a10 <_ZN6xaxaxa12StreamReader4ReadEPNS_6StreamEPKci+0x170>
  403a24:	44 29 45 20          	sub    %r8d,0x20(%rbp)
  403a28:	80 7c 24 4c 00       	cmpb   $0x0,0x4c(%rsp)
  403a2d:	44 89 75 1c          	mov    %r14d,0x1c(%rbp)
  403a31:	74 0f                	je     403a42 <_ZN6xaxaxa12StreamReader4ReadEPNS_6StreamEPKci+0x1a2>
  403a33:	48 8b 7c 24 40       	mov    0x40(%rsp),%rdi
  403a38:	48 85 ff             	test   %rdi,%rdi
  403a3b:	74 05                	je     403a42 <_ZN6xaxaxa12StreamReader4ReadEPNS_6StreamEPKci+0x1a2>
  403a3d:	e8 ae d6 ff ff       	callq  4010f0 <free@plt>
  403a42:	48 83 c4 68          	add    $0x68,%rsp
  403a46:	44 89 f8             	mov    %r15d,%eax
  403a49:	5b                   	pop    %rbx
  403a4a:	5d                   	pop    %rbp
  403a4b:	41 5c                	pop    %r12
  403a4d:	41 5d                	pop    %r13
  403a4f:	41 5e                	pop    %r14
  403a51:	41 5f                	pop    %r15
  403a53:	c3                   	retq   
  403a54:	eb 02                	jmp    403a58 <_ZN6xaxaxa12StreamReader4ReadEPNS_6StreamEPKci+0x1b8>
  403a56:	90                   	nop
  403a57:	90                   	nop
  403a58:	41 83 c0 01          	add    $0x1,%r8d
  403a5c:	48 83 c7 01          	add    $0x1,%rdi
  403a60:	41 83 c5 01          	add    $0x1,%r13d
  403a64:	45 39 c1             	cmp    %r8d,%r9d
  403a67:	7f 8d                	jg     4039f6 <_ZN6xaxaxa12StreamReader4ReadEPNS_6StreamEPKci+0x156>
  403a69:	47 8d 34 03          	lea    (%r11,%r8,1),%r14d
  403a6d:	eb b5                	jmp    403a24 <_ZN6xaxaxa12StreamReader4ReadEPNS_6StreamEPKci+0x184>
  403a6f:	48 8b 7d 08          	mov    0x8(%rbp),%rdi
  403a73:	8b 55 18             	mov    0x18(%rbp),%edx
  403a76:	48 8d 74 24 50       	lea    0x50(%rsp),%rsi
  403a7b:	48 8b 4d 10          	mov    0x10(%rbp),%rcx
  403a7f:	c6 44 24 4c 00       	movb   $0x0,0x4c(%rsp)
  403a84:	c6 44 24 5c 00       	movb   $0x0,0x5c(%rsp)
  403a89:	48 8b 07             	mov    (%rdi),%rax
  403a8c:	89 54 24 48          	mov    %edx,0x48(%rsp)
  403a90:	48 89 4c 24 40       	mov    %rcx,0x40(%rsp)
  403a95:	48 89 4c 24 50       	mov    %rcx,0x50(%rsp)
  403a9a:	89 54 24 58          	mov    %edx,0x58(%rsp)
  403a9e:	48 8b 00             	mov    (%rax),%rax
  403aa1:	ff d0                	callq  *%rax
  403aa3:	80 7c 24 5c 00       	cmpb   $0x0,0x5c(%rsp)
  403aa8:	74 15                	je     403abf <_ZN6xaxaxa12StreamReader4ReadEPNS_6StreamEPKci+0x21f>
  403aaa:	48 8b 7c 24 50       	mov    0x50(%rsp),%rdi
  403aaf:	48 85 ff             	test   %rdi,%rdi
  403ab2:	74 0b                	je     403abf <_ZN6xaxaxa12StreamReader4ReadEPNS_6StreamEPKci+0x21f>
  403ab4:	89 04 24             	mov    %eax,(%rsp)
  403ab7:	e8 34 d6 ff ff       	callq  4010f0 <free@plt>
  403abc:	8b 04 24             	mov    (%rsp),%eax
  403abf:	85 c0                	test   %eax,%eax
  403ac1:	7e 60                	jle    403b23 <_ZN6xaxaxa12StreamReader4ReadEPNS_6StreamEPKci+0x283>
  403ac3:	80 7c 24 4c 00       	cmpb   $0x0,0x4c(%rsp)
  403ac8:	c7 45 1c 00 00 00 00 	movl   $0x0,0x1c(%rbp)
  403acf:	89 45 20             	mov    %eax,0x20(%rbp)
  403ad2:	74 23                	je     403af7 <_ZN6xaxaxa12StreamReader4ReadEPNS_6StreamEPKci+0x257>
  403ad4:	48 8b 7c 24 40       	mov    0x40(%rsp),%rdi
  403ad9:	48 85 ff             	test   %rdi,%rdi
  403adc:	74 19                	je     403af7 <_ZN6xaxaxa12StreamReader4ReadEPNS_6StreamEPKci+0x257>
  403ade:	e8 0d d6 ff ff       	callq  4010f0 <free@plt>
  403ae3:	44 8b 45 1c          	mov    0x1c(%rbp),%r8d
  403ae7:	8b 45 20             	mov    0x20(%rbp),%eax
  403aea:	4d 63 c8             	movslq %r8d,%r9
  403aed:	4c 89 4c 24 08       	mov    %r9,0x8(%rsp)
  403af2:	e9 dc fd ff ff       	jmpq   4038d3 <_ZN6xaxaxa12StreamReader4ReadEPNS_6StreamEPKci+0x33>
  403af7:	41 89 c3             	mov    %eax,%r11d
  403afa:	48 c7 44 24 08 00 00 	movq   $0x0,0x8(%rsp)
  403b01:	00 00 
  403b03:	45 31 c0             	xor    %r8d,%r8d
  403b06:	45 31 c9             	xor    %r9d,%r9d
  403b09:	e9 d2 fd ff ff       	jmpq   4038e0 <_ZN6xaxaxa12StreamReader4ReadEPNS_6StreamEPKci+0x40>
  403b0e:	4c 8b 55 10          	mov    0x10(%rbp),%r10
  403b12:	e9 12 fe ff ff       	jmpq   403929 <_ZN6xaxaxa12StreamReader4ReadEPNS_6StreamEPKci+0x89>
  403b17:	44 8b 75 1c          	mov    0x1c(%rbp),%r14d
  403b1b:	45 01 c6             	add    %r8d,%r14d
  403b1e:	e9 01 ff ff ff       	jmpq   403a24 <_ZN6xaxaxa12StreamReader4ReadEPNS_6StreamEPKci+0x184>
  403b23:	48 8d 7c 24 40       	lea    0x40(%rsp),%rdi
  403b28:	45 85 ff             	test   %r15d,%r15d
  403b2b:	b8 ff ff ff ff       	mov    $0xffffffff,%eax
  403b30:	44 0f 44 f8          	cmove  %eax,%r15d
  403b34:	e8 57 06 00 00       	callq  404190 <_ZN6xaxaxa6BufferD1Ev>
  403b39:	e9 04 ff ff ff       	jmpq   403a42 <_ZN6xaxaxa12StreamReader4ReadEPNS_6StreamEPKci+0x1a2>
  403b3e:	48 8d 7c 24 50       	lea    0x50(%rsp),%rdi
  403b43:	48 89 c3             	mov    %rax,%rbx
  403b46:	e8 45 06 00 00       	callq  404190 <_ZN6xaxaxa6BufferD1Ev>
  403b4b:	48 8d 7c 24 40       	lea    0x40(%rsp),%rdi
  403b50:	e8 3b 06 00 00       	callq  404190 <_ZN6xaxaxa6BufferD1Ev>
  403b55:	48 89 df             	mov    %rbx,%rdi
  403b58:	e8 f3 d6 ff ff       	callq  401250 <_Unwind_Resume@plt>
  403b5d:	48 8d 7c 24 10       	lea    0x10(%rsp),%rdi
  403b62:	48 89 c3             	mov    %rax,%rbx
  403b65:	e8 26 06 00 00       	callq  404190 <_ZN6xaxaxa6BufferD1Ev>
  403b6a:	48 8d 7c 24 20       	lea    0x20(%rsp),%rdi
  403b6f:	e8 1c 06 00 00       	callq  404190 <_ZN6xaxaxa6BufferD1Ev>
  403b74:	48 89 df             	mov    %rbx,%rdi
  403b77:	e8 d4 d6 ff ff       	callq  401250 <_Unwind_Resume@plt>
  403b7c:	48 89 c3             	mov    %rax,%rbx
  403b7f:	48 8d 7c 24 30       	lea    0x30(%rsp),%rdi
  403b84:	eb c0                	jmp    403b46 <_ZN6xaxaxa12StreamReader4ReadEPNS_6StreamEPKci+0x2a6>
  403b86:	eb 08                	jmp    403b90 <_ZN6xaxaxa13StringBuilder5WriteENS_6BufferE>
  403b88:	90                   	nop
  403b89:	90                   	nop
  403b8a:	90                   	nop
  403b8b:	90                   	nop
  403b8c:	90                   	nop
  403b8d:	90                   	nop
  403b8e:	90                   	nop
  403b8f:	90                   	nop

0000000000403b90 <_ZN6xaxaxa13StringBuilder5WriteENS_6BufferE>:
  403b90:	48 89 5c 24 d8       	mov    %rbx,-0x28(%rsp)
  403b95:	48 89 6c 24 e0       	mov    %rbp,-0x20(%rsp)
  403b9a:	48 89 fb             	mov    %rdi,%rbx
  403b9d:	4c 89 64 24 e8       	mov    %r12,-0x18(%rsp)
  403ba2:	4c 89 6c 24 f0       	mov    %r13,-0x10(%rsp)
  403ba7:	4c 89 74 24 f8       	mov    %r14,-0x8(%rsp)
  403bac:	48 83 ec 28          	sub    $0x28,%rsp
  403bb0:	8b 6e 08             	mov    0x8(%rsi),%ebp
  403bb3:	8b 57 14             	mov    0x14(%rdi),%edx
  403bb6:	44 8b 77 10          	mov    0x10(%rdi),%r14d
  403bba:	44 0f b6 6e 0c       	movzbl 0xc(%rsi),%r13d
  403bbf:	4c 8b 26             	mov    (%rsi),%r12
  403bc2:	8d 44 15 00          	lea    0x0(%rbp,%rdx,1),%eax
  403bc6:	44 39 f0             	cmp    %r14d,%eax
  403bc9:	0f 8e 89 00 00 00    	jle    403c58 <_ZN6xaxaxa13StringBuilder5WriteENS_6BufferE+0xc8>
  403bcf:	90                   	nop
  403bd0:	45 01 f6             	add    %r14d,%r14d
  403bd3:	44 39 f0             	cmp    %r14d,%eax
  403bd6:	7f f8                	jg     403bd0 <_ZN6xaxaxa13StringBuilder5WriteENS_6BufferE+0x40>
  403bd8:	48 8b 7b 08          	mov    0x8(%rbx),%rdi
  403bdc:	49 63 f6             	movslq %r14d,%rsi
  403bdf:	e8 2c d6 ff ff       	callq  401210 <realloc@plt>
  403be4:	8b 53 14             	mov    0x14(%rbx),%edx
  403be7:	48 89 43 08          	mov    %rax,0x8(%rbx)
  403beb:	44 89 73 10          	mov    %r14d,0x10(%rbx)
  403bef:	48 63 fa             	movslq %edx,%rdi
  403bf2:	4c 89 e6             	mov    %r12,%rsi
  403bf5:	48 63 d5             	movslq %ebp,%rdx
  403bf8:	48 8d 3c 38          	lea    (%rax,%rdi,1),%rdi
  403bfc:	e8 5f d5 ff ff       	callq  401160 <memcpy@plt>
  403c01:	01 6b 14             	add    %ebp,0x14(%rbx)
  403c04:	45 84 ed             	test   %r13b,%r13b
  403c07:	74 2f                	je     403c38 <_ZN6xaxaxa13StringBuilder5WriteENS_6BufferE+0xa8>
  403c09:	4d 85 e4             	test   %r12,%r12
  403c0c:	74 2a                	je     403c38 <_ZN6xaxaxa13StringBuilder5WriteENS_6BufferE+0xa8>
  403c0e:	4c 89 e7             	mov    %r12,%rdi
  403c11:	48 8b 1c 24          	mov    (%rsp),%rbx
  403c15:	48 8b 6c 24 08       	mov    0x8(%rsp),%rbp
  403c1a:	4c 8b 64 24 10       	mov    0x10(%rsp),%r12
  403c1f:	4c 8b 6c 24 18       	mov    0x18(%rsp),%r13
  403c24:	4c 8b 74 24 20       	mov    0x20(%rsp),%r14
  403c29:	48 83 c4 28          	add    $0x28,%rsp
  403c2d:	e9 be d4 ff ff       	jmpq   4010f0 <free@plt>
  403c32:	eb 04                	jmp    403c38 <_ZN6xaxaxa13StringBuilder5WriteENS_6BufferE+0xa8>
  403c34:	90                   	nop
  403c35:	90                   	nop
  403c36:	90                   	nop
  403c37:	90                   	nop
  403c38:	48 8b 1c 24          	mov    (%rsp),%rbx
  403c3c:	48 8b 6c 24 08       	mov    0x8(%rsp),%rbp
  403c41:	4c 8b 64 24 10       	mov    0x10(%rsp),%r12
  403c46:	4c 8b 6c 24 18       	mov    0x18(%rsp),%r13
  403c4b:	4c 8b 74 24 20       	mov    0x20(%rsp),%r14
  403c50:	48 83 c4 28          	add    $0x28,%rsp
  403c54:	c3                   	retq   
  403c55:	eb 01                	jmp    403c58 <_ZN6xaxaxa13StringBuilder5WriteENS_6BufferE+0xc8>
  403c57:	90                   	nop
  403c58:	48 8b 47 08          	mov    0x8(%rdi),%rax
  403c5c:	eb 91                	jmp    403bef <_ZN6xaxaxa13StringBuilder5WriteENS_6BufferE+0x5f>
  403c5e:	66 90                	xchg   %ax,%ax

0000000000403c60 <_ZN6xaxaxa13StringBuilder6AppendEPKS0_>:
  403c60:	48 89 5c 24 e0       	mov    %rbx,-0x20(%rsp)
  403c65:	48 89 6c 24 e8       	mov    %rbp,-0x18(%rsp)
  403c6a:	48 89 fb             	mov    %rdi,%rbx
  403c6d:	4c 89 64 24 f0       	mov    %r12,-0x10(%rsp)
  403c72:	4c 89 6c 24 f8       	mov    %r13,-0x8(%rsp)
  403c77:	48 83 ec 28          	sub    $0x28,%rsp
  403c7b:	8b 6e 14             	mov    0x14(%rsi),%ebp
  403c7e:	8b 57 14             	mov    0x14(%rdi),%edx
  403c81:	44 8b 6f 10          	mov    0x10(%rdi),%r13d
  403c85:	4c 8b 66 08          	mov    0x8(%rsi),%r12
  403c89:	8d 04 2a             	lea    (%rdx,%rbp,1),%eax
  403c8c:	44 39 e8             	cmp    %r13d,%eax
  403c8f:	7e 57                	jle    403ce8 <_ZN6xaxaxa13StringBuilder6AppendEPKS0_+0x88>
  403c91:	eb 05                	jmp    403c98 <_ZN6xaxaxa13StringBuilder6AppendEPKS0_+0x38>
  403c93:	90                   	nop
  403c94:	90                   	nop
  403c95:	90                   	nop
  403c96:	90                   	nop
  403c97:	90                   	nop
  403c98:	45 01 ed             	add    %r13d,%r13d
  403c9b:	44 39 e8             	cmp    %r13d,%eax
  403c9e:	7f f8                	jg     403c98 <_ZN6xaxaxa13StringBuilder6AppendEPKS0_+0x38>
  403ca0:	48 8b 7b 08          	mov    0x8(%rbx),%rdi
  403ca4:	49 63 f5             	movslq %r13d,%rsi
  403ca7:	e8 64 d5 ff ff       	callq  401210 <realloc@plt>
  403cac:	8b 53 14             	mov    0x14(%rbx),%edx
  403caf:	48 89 43 08          	mov    %rax,0x8(%rbx)
  403cb3:	44 89 6b 10          	mov    %r13d,0x10(%rbx)
  403cb7:	48 63 fa             	movslq %edx,%rdi
  403cba:	4c 89 e6             	mov    %r12,%rsi
  403cbd:	48 63 d5             	movslq %ebp,%rdx
  403cc0:	48 8d 3c 38          	lea    (%rax,%rdi,1),%rdi
  403cc4:	e8 97 d4 ff ff       	callq  401160 <memcpy@plt>
  403cc9:	01 6b 14             	add    %ebp,0x14(%rbx)
  403ccc:	4c 8b 64 24 18       	mov    0x18(%rsp),%r12
  403cd1:	48 8b 5c 24 08       	mov    0x8(%rsp),%rbx
  403cd6:	48 8b 6c 24 10       	mov    0x10(%rsp),%rbp
  403cdb:	4c 8b 6c 24 20       	mov    0x20(%rsp),%r13
  403ce0:	48 83 c4 28          	add    $0x28,%rsp
  403ce4:	c3                   	retq   
  403ce5:	eb 01                	jmp    403ce8 <_ZN6xaxaxa13StringBuilder6AppendEPKS0_+0x88>
  403ce7:	90                   	nop
  403ce8:	48 8b 47 08          	mov    0x8(%rdi),%rax
  403cec:	eb c9                	jmp    403cb7 <_ZN6xaxaxa13StringBuilder6AppendEPKS0_+0x57>
  403cee:	66 90                	xchg   %ax,%ax

0000000000403cf0 <_ZN6xaxaxa12StreamReader4ReadEPNS_13StringBuilderEPKci>:
  403cf0:	41 57                	push   %r15
  403cf2:	41 56                	push   %r14
  403cf4:	45 31 f6             	xor    %r14d,%r14d
  403cf7:	41 55                	push   %r13
  403cf9:	49 89 d5             	mov    %rdx,%r13
  403cfc:	41 54                	push   %r12
  403cfe:	49 89 f4             	mov    %rsi,%r12
  403d01:	55                   	push   %rbp
  403d02:	48 89 fd             	mov    %rdi,%rbp
  403d05:	53                   	push   %rbx
  403d06:	89 cb                	mov    %ecx,%ebx
  403d08:	48 83 ec 68          	sub    $0x68,%rsp
  403d0c:	8b 45 20             	mov    0x20(%rbp),%eax
  403d0f:	85 c0                	test   %eax,%eax
  403d11:	0f 8e c3 01 00 00    	jle    403eda <_ZN6xaxaxa12StreamReader4ReadEPNS_13StringBuilderEPKci+0x1ea>
  403d17:	44 8b 4d 1c          	mov    0x1c(%rbp),%r9d
  403d1b:	4d 63 d1             	movslq %r9d,%r10
  403d1e:	4c 89 54 24 18       	mov    %r10,0x18(%rsp)
  403d23:	45 8d 1c 01          	lea    (%r9,%rax,1),%r11d
  403d27:	45 39 cb             	cmp    %r9d,%r11d
  403d2a:	0f 8e 4b 02 00 00    	jle    403f7b <_ZN6xaxaxa12StreamReader4ReadEPNS_13StringBuilderEPKci+0x28b>
  403d30:	48 8b 4d 10          	mov    0x10(%rbp),%rcx
  403d34:	45 89 cf             	mov    %r9d,%r15d
  403d37:	4e 8d 14 11          	lea    (%rcx,%r10,1),%r10
  403d3b:	85 db                	test   %ebx,%ebx
  403d3d:	7e 25                	jle    403d64 <_ZN6xaxaxa12StreamReader4ReadEPNS_13StringBuilderEPKci+0x74>
  403d3f:	45 0f b6 02          	movzbl (%r10),%r8d
  403d43:	45 3a 45 00          	cmp    0x0(%r13),%r8b
  403d47:	74 7f                	je     403dc8 <_ZN6xaxaxa12StreamReader4ReadEPNS_13StringBuilderEPKci+0xd8>
  403d49:	4c 89 ee             	mov    %r13,%rsi
  403d4c:	31 d2                	xor    %edx,%edx
  403d4e:	eb 0d                	jmp    403d5d <_ZN6xaxaxa12StreamReader4ReadEPNS_13StringBuilderEPKci+0x6d>
  403d50:	0f b6 7e 01          	movzbl 0x1(%rsi),%edi
  403d54:	48 83 c6 01          	add    $0x1,%rsi
  403d58:	44 38 c7             	cmp    %r8b,%dil
  403d5b:	74 6b                	je     403dc8 <_ZN6xaxaxa12StreamReader4ReadEPNS_13StringBuilderEPKci+0xd8>
  403d5d:	83 c2 01             	add    $0x1,%edx
  403d60:	39 d3                	cmp    %edx,%ebx
  403d62:	7f ec                	jg     403d50 <_ZN6xaxaxa12StreamReader4ReadEPNS_13StringBuilderEPKci+0x60>
  403d64:	41 83 c7 01          	add    $0x1,%r15d
  403d68:	49 83 c2 01          	add    $0x1,%r10
  403d6c:	45 39 df             	cmp    %r11d,%r15d
  403d6f:	7c ca                	jl     403d3b <_ZN6xaxaxa12StreamReader4ReadEPNS_13StringBuilderEPKci+0x4b>
  403d71:	48 03 4c 24 18       	add    0x18(%rsp),%rcx
  403d76:	48 8d 74 24 20       	lea    0x20(%rsp),%rsi
  403d7b:	4c 89 e7             	mov    %r12,%rdi
  403d7e:	89 44 24 38          	mov    %eax,0x38(%rsp)
  403d82:	89 44 24 28          	mov    %eax,0x28(%rsp)
  403d86:	c6 44 24 3c 00       	movb   $0x0,0x3c(%rsp)
  403d8b:	c6 44 24 2c 00       	movb   $0x0,0x2c(%rsp)
  403d90:	48 89 4c 24 30       	mov    %rcx,0x30(%rsp)
  403d95:	48 89 4c 24 20       	mov    %rcx,0x20(%rsp)
  403d9a:	e8 c1 f5 ff ff       	callq  403360 <_ZN6xaxaxa13StringBuilder6AppendENS_6BufferE>
  403d9f:	48 8d 7c 24 20       	lea    0x20(%rsp),%rdi
  403da4:	e8 e7 03 00 00       	callq  404190 <_ZN6xaxaxa6BufferD1Ev>
  403da9:	48 8d 7c 24 30       	lea    0x30(%rsp),%rdi
  403dae:	44 03 75 20          	add    0x20(%rbp),%r14d
  403db2:	c7 45 20 00 00 00 00 	movl   $0x0,0x20(%rbp)
  403db9:	e8 d2 03 00 00       	callq  404190 <_ZN6xaxaxa6BufferD1Ev>
  403dbe:	e9 49 ff ff ff       	jmpq   403d0c <_ZN6xaxaxa12StreamReader4ReadEPNS_13StringBuilderEPKci+0x1c>
  403dc3:	eb 03                	jmp    403dc8 <_ZN6xaxaxa12StreamReader4ReadEPNS_13StringBuilderEPKci+0xd8>
  403dc5:	90                   	nop
  403dc6:	90                   	nop
  403dc7:	90                   	nop
  403dc8:	41 8b 74 24 14       	mov    0x14(%r12),%esi
  403dcd:	45 29 cf             	sub    %r9d,%r15d
  403dd0:	41 8b 54 24 10       	mov    0x10(%r12),%edx
  403dd5:	41 8d 04 37          	lea    (%r15,%rsi,1),%eax
  403dd9:	39 d0                	cmp    %edx,%eax
  403ddb:	0f 8e ef 00 00 00    	jle    403ed0 <_ZN6xaxaxa12StreamReader4ReadEPNS_13StringBuilderEPKci+0x1e0>
  403de1:	eb 05                	jmp    403de8 <_ZN6xaxaxa12StreamReader4ReadEPNS_13StringBuilderEPKci+0xf8>
  403de3:	90                   	nop
  403de4:	90                   	nop
  403de5:	90                   	nop
  403de6:	90                   	nop
  403de7:	90                   	nop
  403de8:	01 d2                	add    %edx,%edx
  403dea:	39 d0                	cmp    %edx,%eax
  403dec:	7f fa                	jg     403de8 <_ZN6xaxaxa12StreamReader4ReadEPNS_13StringBuilderEPKci+0xf8>
  403dee:	49 8b 7c 24 08       	mov    0x8(%r12),%rdi
  403df3:	48 63 f2             	movslq %edx,%rsi
  403df6:	89 54 24 10          	mov    %edx,0x10(%rsp)
  403dfa:	48 89 4c 24 08       	mov    %rcx,0x8(%rsp)
  403dff:	e8 0c d4 ff ff       	callq  401210 <realloc@plt>
  403e04:	8b 54 24 10          	mov    0x10(%rsp),%edx
  403e08:	41 8b 74 24 14       	mov    0x14(%r12),%esi
  403e0d:	48 8b 4c 24 08       	mov    0x8(%rsp),%rcx
  403e12:	49 89 44 24 08       	mov    %rax,0x8(%r12)
  403e17:	41 89 54 24 10       	mov    %edx,0x10(%r12)
  403e1c:	48 63 f6             	movslq %esi,%rsi
  403e1f:	49 63 d7             	movslq %r15d,%rdx
  403e22:	48 8d 3c 30          	lea    (%rax,%rsi,1),%rdi
  403e26:	48 8b 74 24 18       	mov    0x18(%rsp),%rsi
  403e2b:	48 8d 34 31          	lea    (%rcx,%rsi,1),%rsi
  403e2f:	e8 2c d3 ff ff       	callq  401160 <memcpy@plt>
  403e34:	45 01 7c 24 14       	add    %r15d,0x14(%r12)
  403e39:	45 8d 47 01          	lea    0x1(%r15),%r8d
  403e3d:	44 8b 65 20          	mov    0x20(%rbp),%r12d
  403e41:	45 39 c4             	cmp    %r8d,%r12d
  403e44:	0f 8e 3a 01 00 00    	jle    403f84 <_ZN6xaxaxa12StreamReader4ReadEPNS_13StringBuilderEPKci+0x294>
  403e4a:	8b 45 1c             	mov    0x1c(%rbp),%eax
  403e4d:	45 0f b6 5d 00       	movzbl 0x0(%r13),%r11d
  403e52:	46 8d 4c 38 01       	lea    0x1(%rax,%r15,1),%r9d
  403e57:	89 44 24 18          	mov    %eax,0x18(%rsp)
  403e5b:	49 63 f9             	movslq %r9d,%rdi
  403e5e:	48 03 7d 10          	add    0x10(%rbp),%rdi
  403e62:	0f b6 37             	movzbl (%rdi),%esi
  403e65:	31 c0                	xor    %eax,%eax
  403e67:	45 89 ca             	mov    %r9d,%r10d
  403e6a:	4c 89 ea             	mov    %r13,%rdx
  403e6d:	44 38 de             	cmp    %r11b,%sil
  403e70:	75 13                	jne    403e85 <_ZN6xaxaxa12StreamReader4ReadEPNS_13StringBuilderEPKci+0x195>
  403e72:	eb 3c                	jmp    403eb0 <_ZN6xaxaxa12StreamReader4ReadEPNS_13StringBuilderEPKci+0x1c0>
  403e74:	eb 02                	jmp    403e78 <_ZN6xaxaxa12StreamReader4ReadEPNS_13StringBuilderEPKci+0x188>
  403e76:	90                   	nop
  403e77:	90                   	nop
  403e78:	0f b6 4a 01          	movzbl 0x1(%rdx),%ecx
  403e7c:	48 83 c2 01          	add    $0x1,%rdx
  403e80:	40 38 f1             	cmp    %sil,%cl
  403e83:	74 2b                	je     403eb0 <_ZN6xaxaxa12StreamReader4ReadEPNS_13StringBuilderEPKci+0x1c0>
  403e85:	83 c0 01             	add    $0x1,%eax
  403e88:	39 c3                	cmp    %eax,%ebx
  403e8a:	7f ec                	jg     403e78 <_ZN6xaxaxa12StreamReader4ReadEPNS_13StringBuilderEPKci+0x188>
  403e8c:	44 29 45 20          	sub    %r8d,0x20(%rbp)
  403e90:	45 01 fe             	add    %r15d,%r14d
  403e93:	44 89 55 1c          	mov    %r10d,0x1c(%rbp)
  403e97:	48 83 c4 68          	add    $0x68,%rsp
  403e9b:	44 89 f0             	mov    %r14d,%eax
  403e9e:	5b                   	pop    %rbx
  403e9f:	5d                   	pop    %rbp
  403ea0:	41 5c                	pop    %r12
  403ea2:	41 5d                	pop    %r13
  403ea4:	41 5e                	pop    %r14
  403ea6:	41 5f                	pop    %r15
  403ea8:	c3                   	retq   
  403ea9:	eb 05                	jmp    403eb0 <_ZN6xaxaxa12StreamReader4ReadEPNS_13StringBuilderEPKci+0x1c0>
  403eab:	90                   	nop
  403eac:	90                   	nop
  403ead:	90                   	nop
  403eae:	90                   	nop
  403eaf:	90                   	nop
  403eb0:	41 83 c0 01          	add    $0x1,%r8d
  403eb4:	48 83 c7 01          	add    $0x1,%rdi
  403eb8:	41 83 c1 01          	add    $0x1,%r9d
  403ebc:	45 39 c4             	cmp    %r8d,%r12d
  403ebf:	7f a1                	jg     403e62 <_ZN6xaxaxa12StreamReader4ReadEPNS_13StringBuilderEPKci+0x172>
  403ec1:	44 8b 54 24 18       	mov    0x18(%rsp),%r10d
  403ec6:	45 01 c2             	add    %r8d,%r10d
  403ec9:	eb c1                	jmp    403e8c <_ZN6xaxaxa12StreamReader4ReadEPNS_13StringBuilderEPKci+0x19c>
  403ecb:	eb 03                	jmp    403ed0 <_ZN6xaxaxa12StreamReader4ReadEPNS_13StringBuilderEPKci+0x1e0>
  403ecd:	90                   	nop
  403ece:	90                   	nop
  403ecf:	90                   	nop
  403ed0:	49 8b 44 24 08       	mov    0x8(%r12),%rax
  403ed5:	e9 42 ff ff ff       	jmpq   403e1c <_ZN6xaxaxa12StreamReader4ReadEPNS_13StringBuilderEPKci+0x12c>
  403eda:	48 8b 7d 08          	mov    0x8(%rbp),%rdi
  403ede:	8b 55 18             	mov    0x18(%rbp),%edx
  403ee1:	48 8d 74 24 40       	lea    0x40(%rsp),%rsi
  403ee6:	48 8b 4d 10          	mov    0x10(%rbp),%rcx
  403eea:	c6 44 24 5c 00       	movb   $0x0,0x5c(%rsp)
  403eef:	c6 44 24 4c 00       	movb   $0x0,0x4c(%rsp)
  403ef4:	48 8b 07             	mov    (%rdi),%rax
  403ef7:	89 54 24 58          	mov    %edx,0x58(%rsp)
  403efb:	48 89 4c 24 50       	mov    %rcx,0x50(%rsp)
  403f00:	48 89 4c 24 40       	mov    %rcx,0x40(%rsp)
  403f05:	89 54 24 48          	mov    %edx,0x48(%rsp)
  403f09:	48 8b 00             	mov    (%rax),%rax
  403f0c:	ff d0                	callq  *%rax
  403f0e:	80 7c 24 4c 00       	cmpb   $0x0,0x4c(%rsp)
  403f13:	74 17                	je     403f2c <_ZN6xaxaxa12StreamReader4ReadEPNS_13StringBuilderEPKci+0x23c>
  403f15:	48 8b 7c 24 40       	mov    0x40(%rsp),%rdi
  403f1a:	48 85 ff             	test   %rdi,%rdi
  403f1d:	74 0d                	je     403f2c <_ZN6xaxaxa12StreamReader4ReadEPNS_13StringBuilderEPKci+0x23c>
  403f1f:	89 44 24 10          	mov    %eax,0x10(%rsp)
  403f23:	e8 c8 d1 ff ff       	callq  4010f0 <free@plt>
  403f28:	8b 44 24 10          	mov    0x10(%rsp),%eax
  403f2c:	85 c0                	test   %eax,%eax
  403f2e:	7e 60                	jle    403f90 <_ZN6xaxaxa12StreamReader4ReadEPNS_13StringBuilderEPKci+0x2a0>
  403f30:	80 7c 24 5c 00       	cmpb   $0x0,0x5c(%rsp)
  403f35:	c7 45 1c 00 00 00 00 	movl   $0x0,0x1c(%rbp)
  403f3c:	89 45 20             	mov    %eax,0x20(%rbp)
  403f3f:	74 23                	je     403f64 <_ZN6xaxaxa12StreamReader4ReadEPNS_13StringBuilderEPKci+0x274>
  403f41:	48 8b 7c 24 50       	mov    0x50(%rsp),%rdi
  403f46:	48 85 ff             	test   %rdi,%rdi
  403f49:	74 19                	je     403f64 <_ZN6xaxaxa12StreamReader4ReadEPNS_13StringBuilderEPKci+0x274>
  403f4b:	e8 a0 d1 ff ff       	callq  4010f0 <free@plt>
  403f50:	44 8b 4d 1c          	mov    0x1c(%rbp),%r9d
  403f54:	8b 45 20             	mov    0x20(%rbp),%eax
  403f57:	4d 63 d1             	movslq %r9d,%r10
  403f5a:	4c 89 54 24 18       	mov    %r10,0x18(%rsp)
  403f5f:	e9 bf fd ff ff       	jmpq   403d23 <_ZN6xaxaxa12StreamReader4ReadEPNS_13StringBuilderEPKci+0x33>
  403f64:	41 89 c3             	mov    %eax,%r11d
  403f67:	45 31 c9             	xor    %r9d,%r9d
  403f6a:	48 c7 44 24 18 00 00 	movq   $0x0,0x18(%rsp)
  403f71:	00 00 
  403f73:	45 31 d2             	xor    %r10d,%r10d
  403f76:	e9 b5 fd ff ff       	jmpq   403d30 <_ZN6xaxaxa12StreamReader4ReadEPNS_13StringBuilderEPKci+0x40>
  403f7b:	48 8b 4d 10          	mov    0x10(%rbp),%rcx
  403f7f:	e9 ed fd ff ff       	jmpq   403d71 <_ZN6xaxaxa12StreamReader4ReadEPNS_13StringBuilderEPKci+0x81>
  403f84:	44 8b 55 1c          	mov    0x1c(%rbp),%r10d
  403f88:	45 01 c2             	add    %r8d,%r10d
  403f8b:	e9 fc fe ff ff       	jmpq   403e8c <_ZN6xaxaxa12StreamReader4ReadEPNS_13StringBuilderEPKci+0x19c>
  403f90:	48 8d 7c 24 50       	lea    0x50(%rsp),%rdi
  403f95:	45 85 f6             	test   %r14d,%r14d
  403f98:	b8 ff ff ff ff       	mov    $0xffffffff,%eax
  403f9d:	44 0f 44 f0          	cmove  %eax,%r14d
  403fa1:	e8 ea 01 00 00       	callq  404190 <_ZN6xaxaxa6BufferD1Ev>
  403fa6:	e9 ec fe ff ff       	jmpq   403e97 <_ZN6xaxaxa12StreamReader4ReadEPNS_13StringBuilderEPKci+0x1a7>
  403fab:	48 8d 7c 24 40       	lea    0x40(%rsp),%rdi
  403fb0:	48 89 c3             	mov    %rax,%rbx
  403fb3:	e8 d8 01 00 00       	callq  404190 <_ZN6xaxaxa6BufferD1Ev>
  403fb8:	48 8d 7c 24 50       	lea    0x50(%rsp),%rdi
  403fbd:	e8 ce 01 00 00       	callq  404190 <_ZN6xaxaxa6BufferD1Ev>
  403fc2:	48 89 df             	mov    %rbx,%rdi
  403fc5:	e8 86 d2 ff ff       	callq  401250 <_Unwind_Resume@plt>
  403fca:	eb 04                	jmp    403fd0 <_ZN6xaxaxa12StreamReader4ReadEPNS_13StringBuilderEi>
  403fcc:	90                   	nop
  403fcd:	90                   	nop
  403fce:	90                   	nop
  403fcf:	90                   	nop

0000000000403fd0 <_ZN6xaxaxa12StreamReader4ReadEPNS_13StringBuilderEi>:
  403fd0:	48 89 5c 24 d0       	mov    %rbx,-0x30(%rsp)
  403fd5:	48 89 6c 24 d8       	mov    %rbp,-0x28(%rsp)
  403fda:	31 ed                	xor    %ebp,%ebp
  403fdc:	4c 89 64 24 e0       	mov    %r12,-0x20(%rsp)
  403fe1:	4c 89 6c 24 e8       	mov    %r13,-0x18(%rsp)
  403fe6:	48 89 f3             	mov    %rsi,%rbx
  403fe9:	4c 89 74 24 f0       	mov    %r14,-0x10(%rsp)
  403fee:	4c 89 7c 24 f8       	mov    %r15,-0x8(%rsp)
  403ff3:	48 83 ec 68          	sub    $0x68,%rsp
  403ff7:	8b 47 20             	mov    0x20(%rdi),%eax
  403ffa:	49 89 fd             	mov    %rdi,%r13
  403ffd:	41 89 d4             	mov    %edx,%r12d
  404000:	85 c0                	test   %eax,%eax
  404002:	7e 77                	jle    40407b <_ZN6xaxaxa12StreamReader4ReadEPNS_13StringBuilderEi+0xab>
  404004:	39 c2                	cmp    %eax,%edx
  404006:	89 c5                	mov    %eax,%ebp
  404008:	44 8b 76 10          	mov    0x10(%rsi),%r14d
  40400c:	0f 4e ea             	cmovle %edx,%ebp
  40400f:	8b 56 14             	mov    0x14(%rsi),%edx
  404012:	4c 8b 7f 10          	mov    0x10(%rdi),%r15
  404016:	8b 4f 1c             	mov    0x1c(%rdi),%ecx
  404019:	8d 44 15 00          	lea    0x0(%rbp,%rdx,1),%eax
  40401d:	44 39 f0             	cmp    %r14d,%eax
  404020:	0f 8e 32 01 00 00    	jle    404158 <_ZN6xaxaxa12StreamReader4ReadEPNS_13StringBuilderEi+0x188>
  404026:	eb 08                	jmp    404030 <_ZN6xaxaxa12StreamReader4ReadEPNS_13StringBuilderEi+0x60>
  404028:	90                   	nop
  404029:	90                   	nop
  40402a:	90                   	nop
  40402b:	90                   	nop
  40402c:	90                   	nop
  40402d:	90                   	nop
  40402e:	90                   	nop
  40402f:	90                   	nop
  404030:	45 01 f6             	add    %r14d,%r14d
  404033:	44 39 f0             	cmp    %r14d,%eax
  404036:	7f f8                	jg     404030 <_ZN6xaxaxa12StreamReader4ReadEPNS_13StringBuilderEi+0x60>
  404038:	48 8b 7b 08          	mov    0x8(%rbx),%rdi
  40403c:	49 63 f6             	movslq %r14d,%rsi
  40403f:	89 4c 24 08          	mov    %ecx,0x8(%rsp)
  404043:	e8 c8 d1 ff ff       	callq  401210 <realloc@plt>
  404048:	8b 53 14             	mov    0x14(%rbx),%edx
  40404b:	8b 4c 24 08          	mov    0x8(%rsp),%ecx
  40404f:	48 89 43 08          	mov    %rax,0x8(%rbx)
  404053:	44 89 73 10          	mov    %r14d,0x10(%rbx)
  404057:	48 63 fa             	movslq %edx,%rdi
  40405a:	48 63 c9             	movslq %ecx,%rcx
  40405d:	48 63 d5             	movslq %ebp,%rdx
  404060:	48 8d 3c 38          	lea    (%rax,%rdi,1),%rdi
  404064:	49 8d 34 0f          	lea    (%r15,%rcx,1),%rsi
  404068:	41 29 ec             	sub    %ebp,%r12d
  40406b:	e8 f0 d0 ff ff       	callq  401160 <memcpy@plt>
  404070:	01 6b 14             	add    %ebp,0x14(%rbx)
  404073:	41 01 6d 1c          	add    %ebp,0x1c(%r13)
  404077:	41 29 6d 20          	sub    %ebp,0x20(%r13)
  40407b:	45 85 e4             	test   %r12d,%r12d
  40407e:	0f 8e a9 00 00 00    	jle    40412d <_ZN6xaxaxa12StreamReader4ReadEPNS_13StringBuilderEi+0x15d>
  404084:	8b 53 14             	mov    0x14(%rbx),%edx
  404087:	44 8b 73 10          	mov    0x10(%rbx),%r14d
  40408b:	41 8d 04 14          	lea    (%r12,%rdx,1),%eax
  40408f:	44 39 f0             	cmp    %r14d,%eax
  404092:	0f 8e d0 00 00 00    	jle    404168 <_ZN6xaxaxa12StreamReader4ReadEPNS_13StringBuilderEi+0x198>
  404098:	eb 06                	jmp    4040a0 <_ZN6xaxaxa12StreamReader4ReadEPNS_13StringBuilderEi+0xd0>
  40409a:	90                   	nop
  40409b:	90                   	nop
  40409c:	90                   	nop
  40409d:	90                   	nop
  40409e:	90                   	nop
  40409f:	90                   	nop
  4040a0:	45 01 f6             	add    %r14d,%r14d
  4040a3:	44 39 f0             	cmp    %r14d,%eax
  4040a6:	7f f8                	jg     4040a0 <_ZN6xaxaxa12StreamReader4ReadEPNS_13StringBuilderEi+0xd0>
  4040a8:	48 8b 7b 08          	mov    0x8(%rbx),%rdi
  4040ac:	49 63 f6             	movslq %r14d,%rsi
  4040af:	e8 5c d1 ff ff       	callq  401210 <realloc@plt>
  4040b4:	8b 53 14             	mov    0x14(%rbx),%edx
  4040b7:	48 89 43 08          	mov    %rax,0x8(%rbx)
  4040bb:	44 89 73 10          	mov    %r14d,0x10(%rbx)
  4040bf:	49 8b 7d 08          	mov    0x8(%r13),%rdi
  4040c3:	48 63 d2             	movslq %edx,%rdx
  4040c6:	44 89 64 24 28       	mov    %r12d,0x28(%rsp)
  4040cb:	48 01 d0             	add    %rdx,%rax
  4040ce:	44 89 64 24 18       	mov    %r12d,0x18(%rsp)
  4040d3:	4c 8d 64 24 10       	lea    0x10(%rsp),%r12
  4040d8:	48 89 44 24 20       	mov    %rax,0x20(%rsp)
  4040dd:	c6 44 24 2c 00       	movb   $0x0,0x2c(%rsp)
  4040e2:	48 8b 17             	mov    (%rdi),%rdx
  4040e5:	48 89 44 24 10       	mov    %rax,0x10(%rsp)
  4040ea:	4c 89 e6             	mov    %r12,%rsi
  4040ed:	c6 44 24 1c 00       	movb   $0x0,0x1c(%rsp)
  4040f2:	48 8b 12             	mov    (%rdx),%rdx
  4040f5:	ff d2                	callq  *%rdx
  4040f7:	80 7c 24 1c 00       	cmpb   $0x0,0x1c(%rsp)
  4040fc:	41 89 c4             	mov    %eax,%r12d
  4040ff:	74 0f                	je     404110 <_ZN6xaxaxa12StreamReader4ReadEPNS_13StringBuilderEi+0x140>
  404101:	48 8b 7c 24 10       	mov    0x10(%rsp),%rdi
  404106:	48 85 ff             	test   %rdi,%rdi
  404109:	74 05                	je     404110 <_ZN6xaxaxa12StreamReader4ReadEPNS_13StringBuilderEi+0x140>
  40410b:	e8 e0 cf ff ff       	callq  4010f0 <free@plt>
  404110:	44 01 63 14          	add    %r12d,0x14(%rbx)
  404114:	44 01 e5             	add    %r12d,%ebp
  404117:	80 7c 24 2c 00       	cmpb   $0x0,0x2c(%rsp)
  40411c:	74 0f                	je     40412d <_ZN6xaxaxa12StreamReader4ReadEPNS_13StringBuilderEi+0x15d>
  40411e:	48 8b 7c 24 20       	mov    0x20(%rsp),%rdi
  404123:	48 85 ff             	test   %rdi,%rdi
  404126:	74 05                	je     40412d <_ZN6xaxaxa12StreamReader4ReadEPNS_13StringBuilderEi+0x15d>
  404128:	e8 c3 cf ff ff       	callq  4010f0 <free@plt>
  40412d:	89 e8                	mov    %ebp,%eax
  40412f:	48 8b 5c 24 38       	mov    0x38(%rsp),%rbx
  404134:	48 8b 6c 24 40       	mov    0x40(%rsp),%rbp
  404139:	4c 8b 64 24 48       	mov    0x48(%rsp),%r12
  40413e:	4c 8b 6c 24 50       	mov    0x50(%rsp),%r13
  404143:	4c 8b 74 24 58       	mov    0x58(%rsp),%r14
  404148:	4c 8b 7c 24 60       	mov    0x60(%rsp),%r15
  40414d:	48 83 c4 68          	add    $0x68,%rsp
  404151:	c3                   	retq   
  404152:	eb 04                	jmp    404158 <_ZN6xaxaxa12StreamReader4ReadEPNS_13StringBuilderEi+0x188>
  404154:	90                   	nop
  404155:	90                   	nop
  404156:	90                   	nop
  404157:	90                   	nop
  404158:	48 8b 46 08          	mov    0x8(%rsi),%rax
  40415c:	e9 f6 fe ff ff       	jmpq   404057 <_ZN6xaxaxa12StreamReader4ReadEPNS_13StringBuilderEi+0x87>
  404161:	eb 05                	jmp    404168 <_ZN6xaxaxa12StreamReader4ReadEPNS_13StringBuilderEi+0x198>
  404163:	90                   	nop
  404164:	90                   	nop
  404165:	90                   	nop
  404166:	90                   	nop
  404167:	90                   	nop
  404168:	48 8b 43 08          	mov    0x8(%rbx),%rax
  40416c:	e9 4e ff ff ff       	jmpq   4040bf <_ZN6xaxaxa12StreamReader4ReadEPNS_13StringBuilderEi+0xef>
  404171:	4c 89 e7             	mov    %r12,%rdi
  404174:	48 89 c3             	mov    %rax,%rbx
  404177:	e8 14 00 00 00       	callq  404190 <_ZN6xaxaxa6BufferD1Ev>
  40417c:	48 8d 7c 24 20       	lea    0x20(%rsp),%rdi
  404181:	e8 0a 00 00 00       	callq  404190 <_ZN6xaxaxa6BufferD1Ev>
  404186:	48 89 df             	mov    %rbx,%rdi
  404189:	e8 c2 d0 ff ff       	callq  401250 <_Unwind_Resume@plt>
  40418e:	90                   	nop
  40418f:	90                   	nop

0000000000404190 <_ZN6xaxaxa6BufferD1Ev>:
  404190:	80 7f 0c 00          	cmpb   $0x0,0xc(%rdi)
  404194:	74 12                	je     4041a8 <_ZN6xaxaxa6BufferD1Ev+0x18>
  404196:	48 8b 3f             	mov    (%rdi),%rdi
  404199:	48 85 ff             	test   %rdi,%rdi
  40419c:	74 0a                	je     4041a8 <_ZN6xaxaxa6BufferD1Ev+0x18>
  40419e:	e9 4d cf ff ff       	jmpq   4010f0 <free@plt>
  4041a3:	eb 03                	jmp    4041a8 <_ZN6xaxaxa6BufferD1Ev+0x18>
  4041a5:	90                   	nop
  4041a6:	90                   	nop
  4041a7:	90                   	nop
  4041a8:	f3 c3                	repz retq 
  4041aa:	90                   	nop
  4041ab:	90                   	nop
  4041ac:	90                   	nop
  4041ad:	90                   	nop
  4041ae:	90                   	nop
  4041af:	90                   	nop

00000000004041b0 <_Z9call_funcN4asdf9function1E>:
  4041b0:	48 89 f8             	mov    %rdi,%rax
  4041b3:	48 89 74 24 f0       	mov    %rsi,-0x10(%rsp)
  4041b8:	48 89 f7             	mov    %rsi,%rdi
  4041bb:	48 89 44 24 e8       	mov    %rax,-0x18(%rsp)
  4041c0:	be 1f 02 00 00       	mov    $0x21f,%esi
  4041c5:	ff e0                	jmpq   *%rax
  4041c7:	eb 07                	jmp    4041d0 <main>
  4041c9:	90                   	nop
  4041ca:	90                   	nop
  4041cb:	90                   	nop
  4041cc:	90                   	nop
  4041cd:	90                   	nop
  4041ce:	90                   	nop
  4041cf:	90                   	nop

00000000004041d0 <main>:
  4041d0:	31 c0                	xor    %eax,%eax
  4041d2:	c3                   	retq   
  4041d3:	eb 0b                	jmp    4041e0 <_GLOBAL__I__Z9call_funcN4asdf9function1E>
  4041d5:	90                   	nop
  4041d6:	90                   	nop
  4041d7:	90                   	nop
  4041d8:	90                   	nop
  4041d9:	90                   	nop
  4041da:	90                   	nop
  4041db:	90                   	nop
  4041dc:	90                   	nop
  4041dd:	90                   	nop
  4041de:	90                   	nop
  4041df:	90                   	nop

00000000004041e0 <_GLOBAL__I__Z9call_funcN4asdf9function1E>:
  4041e0:	48 83 ec 08          	sub    $0x8,%rsp
  4041e4:	bf a0 62 60 00       	mov    $0x6062a0,%edi
  4041e9:	e8 72 ce ff ff       	callq  401060 <_ZNSt8ios_base4InitC1Ev@plt>
  4041ee:	ba 40 61 60 00       	mov    $0x606140,%edx
  4041f3:	be a0 62 60 00       	mov    $0x6062a0,%esi
  4041f8:	bf d0 10 40 00       	mov    $0x4010d0,%edi
  4041fd:	48 83 c4 08          	add    $0x8,%rsp
  404201:	e9 ba ce ff ff       	jmpq   4010c0 <__cxa_atexit@plt>
  404206:	90                   	nop
  404207:	90                   	nop
  404208:	90                   	nop
  404209:	90                   	nop
  40420a:	90                   	nop
  40420b:	90                   	nop
  40420c:	90                   	nop
  40420d:	90                   	nop
  40420e:	90                   	nop
  40420f:	90                   	nop

0000000000404210 <__libc_csu_fini>:
  404210:	f3 c3                	repz retq 
  404212:	eb 0c                	jmp    404220 <__libc_csu_init>
  404214:	90                   	nop
  404215:	90                   	nop
  404216:	90                   	nop
  404217:	90                   	nop
  404218:	90                   	nop
  404219:	90                   	nop
  40421a:	90                   	nop
  40421b:	90                   	nop
  40421c:	90                   	nop
  40421d:	90                   	nop
  40421e:	90                   	nop
  40421f:	90                   	nop

0000000000404220 <__libc_csu_init>:
  404220:	48 89 6c 24 d8       	mov    %rbp,-0x28(%rsp)
  404225:	4c 89 64 24 e0       	mov    %r12,-0x20(%rsp)
  40422a:	48 8d 2d ae 1b 20 00 	lea    0x201bae(%rip),%rbp        # 605ddf <__init_array_end>
  404231:	4c 8d 25 a7 1b 20 00 	lea    0x201ba7(%rip),%r12        # 605ddf <__init_array_end>
  404238:	4c 89 6c 24 e8       	mov    %r13,-0x18(%rsp)
  40423d:	4c 89 74 24 f0       	mov    %r14,-0x10(%rsp)
  404242:	4c 89 7c 24 f8       	mov    %r15,-0x8(%rsp)
  404247:	48 89 5c 24 d0       	mov    %rbx,-0x30(%rsp)
  40424c:	48 83 ec 38          	sub    $0x38,%rsp
  404250:	4c 29 e5             	sub    %r12,%rbp
  404253:	41 89 fd             	mov    %edi,%r13d
  404256:	49 89 f6             	mov    %rsi,%r14
  404259:	48 c1 fd 03          	sar    $0x3,%rbp
  40425d:	49 89 d7             	mov    %rdx,%r15
  404260:	e8 83 cd ff ff       	callq  400fe8 <_init>
  404265:	48 85 ed             	test   %rbp,%rbp
  404268:	74 1c                	je     404286 <__libc_csu_init+0x66>
  40426a:	31 db                	xor    %ebx,%ebx
  40426c:	eb 02                	jmp    404270 <__libc_csu_init+0x50>
  40426e:	90                   	nop
  40426f:	90                   	nop
  404270:	4c 89 fa             	mov    %r15,%rdx
  404273:	4c 89 f6             	mov    %r14,%rsi
  404276:	44 89 ef             	mov    %r13d,%edi
  404279:	41 ff 14 dc          	callq  *(%r12,%rbx,8)
  40427d:	48 83 c3 01          	add    $0x1,%rbx
  404281:	48 39 eb             	cmp    %rbp,%rbx
  404284:	72 ea                	jb     404270 <__libc_csu_init+0x50>
  404286:	48 8b 5c 24 08       	mov    0x8(%rsp),%rbx
  40428b:	48 8b 6c 24 10       	mov    0x10(%rsp),%rbp
  404290:	4c 8b 64 24 18       	mov    0x18(%rsp),%r12
  404295:	4c 8b 6c 24 20       	mov    0x20(%rsp),%r13
  40429a:	4c 8b 74 24 28       	mov    0x28(%rsp),%r14
  40429f:	4c 8b 7c 24 30       	mov    0x30(%rsp),%r15
  4042a4:	48 83 c4 38          	add    $0x38,%rsp
  4042a8:	c3                   	retq   
  4042a9:	90                   	nop
  4042aa:	90                   	nop
  4042ab:	90                   	nop
  4042ac:	90                   	nop
  4042ad:	90                   	nop
  4042ae:	90                   	nop
  4042af:	90                   	nop

00000000004042b0 <__do_global_ctors_aux>:
  4042b0:	55                   	push   %rbp
  4042b1:	48 89 e5             	mov    %rsp,%rbp
  4042b4:	53                   	push   %rbx
  4042b5:	48 83 ec 08          	sub    $0x8,%rsp
  4042b9:	48 8b 05 38 1b 20 00 	mov    0x201b38(%rip),%rax        # 605df8 <__CTOR_LIST__+0x18>
  4042c0:	48 83 f8 ff          	cmp    $0xffffffffffffffff,%rax
  4042c4:	74 19                	je     4042df <__do_global_ctors_aux+0x2f>
  4042c6:	bb f8 5d 60 00       	mov    $0x605df8,%ebx
  4042cb:	eb 03                	jmp    4042d0 <__do_global_ctors_aux+0x20>
  4042cd:	90                   	nop
  4042ce:	90                   	nop
  4042cf:	90                   	nop
  4042d0:	48 83 eb 08          	sub    $0x8,%rbx
  4042d4:	ff d0                	callq  *%rax
  4042d6:	48 8b 03             	mov    (%rbx),%rax
  4042d9:	48 83 f8 ff          	cmp    $0xffffffffffffffff,%rax
  4042dd:	75 f1                	jne    4042d0 <__do_global_ctors_aux+0x20>
  4042df:	48 83 c4 08          	add    $0x8,%rsp
  4042e3:	5b                   	pop    %rbx
  4042e4:	c9                   	leaveq 
  4042e5:	c3                   	retq   
  4042e6:	90                   	nop
  4042e7:	90                   	nop

Disassembly of section .fini:

00000000004042e8 <_fini>:
  4042e8:	48 83 ec 08          	sub    $0x8,%rsp
  4042ec:	e8 df cf ff ff       	callq  4012d0 <__do_global_dtors_aux>
  4042f1:	48 83 c4 08          	add    $0x8,%rsp
  4042f5:	c3                   	retq   
